(lp0
(dp1
S'action'
p2
S'join'
p3
sS'data_to_add'
p4
(lp5
sS'order'
p6
F1523900359.701247
sS'new_objid'
p7
cnumpy.core.multiarray
scalar
p8
(cnumpy
dtype
p9
(S'i8'
p10
I0
I1
tp11
Rp12
(I3
S'<'
p13
NNNI-1
I-1
I0
tp14
bS'y\x00\x00\x00\x00\x00\x00\x00'
p15
tp16
Rp17
sS'objids'
p18
(lp19
g8
(g12
S'\x00\x00\x00\x00\x00\x00\x00\x00'
p20
tp21
Rp22
ag8
(g12
S'\x01\x00\x00\x00\x00\x00\x00\x00'
p23
tp24
Rp25
asa(dp26
S'cut_frame_global'
p27
I579
sS'cut_time_epoch'
p28
g8
(g9
(S'f8'
p29
I0
I1
tp30
Rp31
(I3
S'<'
p32
NNNI-1
I-1
I0
tp33
bS'\xc2@\x0b\nb\xb4\xd6A'
p34
tp35
Rp36
sS'cut_frame_trajectory'
p37
g8
(g12
S'\x00\x00\x00\x00\x00\x00\x00\x00'
p38
tp39
Rp40
sS'objid'
p41
g8
(g12
S'\x0c\x00\x00\x00\x00\x00\x00\x00'
p42
tp43
Rp44
sS'action'
p45
S'cut'
p46
sS'order'
p47
F1523900375.729648
sS'new_objid'
p48
g8
(g12
S'{\x00\x00\x00\x00\x00\x00\x00'
p49
tp50
Rp51
sa(dp52
g27
I580
sg28
g8
(g31
S'\x82\xa6\x11\nb\xb4\xd6A'
p53
tp54
Rp55
sg37
g8
(g12
S'\x01\x00\x00\x00\x00\x00\x00\x00'
p56
tp57
Rp58
sg41
g8
(g12
S'{\x00\x00\x00\x00\x00\x00\x00'
p59
tp60
Rp61
sg45
g46
sg47
F1523900376.704209
sg48
g8
(g12
S'|\x00\x00\x00\x00\x00\x00\x00'
p62
tp63
Rp64
sa(dp65
S'cut_frame_global'
p66
I348
sS'cut_time_epoch'
p67
g8
(g31
S'\xb6\xd9D\x04b\xb4\xd6A'
p68
tp69
Rp70
sS'cut_frame_trajectory'
p71
g8
(g12
S'[\x01\x00\x00\x00\x00\x00\x00'
p72
tp73
Rp74
sS'objid'
p75
g8
(g12
S'y\x00\x00\x00\x00\x00\x00\x00'
p76
tp77
Rp78
sS'action'
p79
S'cut'
p80
sS'order'
p81
F1523900385.298629
sS'new_objid'
p82
g8
(g12
S'~\x00\x00\x00\x00\x00\x00\x00'
p83
tp84
Rp85
sa(dp86
S'cut_frame_global'
p87
I574
sS'cut_time_epoch'
p88
g8
(g31
S'\x0c@\xeb\tb\xb4\xd6A'
p89
tp90
Rp91
sS'cut_frame_trajectory'
p92
g8
(g12
S'\xe2\x00\x00\x00\x00\x00\x00\x00'
p93
tp94
Rp95
sS'objid'
p96
g8
(g12
S'~\x00\x00\x00\x00\x00\x00\x00'
p97
tp98
Rp99
sS'action'
p100
S'cut'
p101
sS'order'
p102
F1523900386.536014
sS'new_objid'
p103
g8
(g12
S'\x7f\x00\x00\x00\x00\x00\x00\x00'
p104
tp105
Rp106
sa(dp107
S'action'
p108
S'join'
p109
sS'data_to_add'
p110
(lp111
sS'order'
p112
F1523900392.911755
sS'new_objid'
p113
g8
(g12
S'\x80\x00\x00\x00\x00\x00\x00\x00'
p114
tp115
Rp116
sS'objids'
p117
(lp118
g8
(g12
S'|\x00\x00\x00\x00\x00\x00\x00'
p119
tp120
Rp121
ag8
(g12
S'~\x00\x00\x00\x00\x00\x00\x00'
p122
tp123
Rp124
asa(dp125
S'action'
p126
S'join'
p127
sS'data_to_add'
p128
(lp129
sS'order'
p130
F1523900403.622354
sS'new_objid'
p131
g8
(g12
S'\x81\x00\x00\x00\x00\x00\x00\x00'
p132
tp133
Rp134
sS'objids'
p135
(lp136
g8
(g12
S'\x80\x00\x00\x00\x00\x00\x00\x00'
p137
tp138
Rp139
ag8
(g12
S'\x1a\x00\x00\x00\x00\x00\x00\x00'
p140
tp141
Rp142
asa(dp143
S'action'
p144
S'join'
p145
sS'data_to_add'
p146
(lp147
sS'order'
p148
F1523900437.886657
sS'new_objid'
p149
g8
(g12
S'\x82\x00\x00\x00\x00\x00\x00\x00'
p150
tp151
Rp152
sS'objids'
p153
(lp154
g8
(g12
S'\x81\x00\x00\x00\x00\x00\x00\x00'
p155
tp156
Rp157
ag8
(g12
S'[\x00\x00\x00\x00\x00\x00\x00'
p158
tp159
Rp160
ag8
(g12
S'R\x00\x00\x00\x00\x00\x00\x00'
p161
tp162
Rp163
ag8
(g12
S'_\x00\x00\x00\x00\x00\x00\x00'
p164
tp165
Rp166
asa(dp167
S'cut_frame_global'
p168
I1769
sS'cut_time_epoch'
p169
g8
(g31
S"\xec@\xcb'b\xb4\xd6A"
p170
tp171
Rp172
sS'cut_frame_trajectory'
p173
g8
(g12
S'\x1f\x00\x00\x00\x00\x00\x00\x00'
p174
tp175
Rp176
sS'objid'
p177
g8
(g12
S'c\x00\x00\x00\x00\x00\x00\x00'
p178
tp179
Rp180
sS'action'
p181
S'cut'
p182
sS'order'
p183
F1523900449.600729
sS'new_objid'
p184
g8
(g12
S'\x83\x00\x00\x00\x00\x00\x00\x00'
p185
tp186
Rp187
sa(dp188
S'action'
p189
S'join'
p190
sS'data_to_add'
p191
(lp192
sS'order'
p193
F1523900456.366788
sS'new_objid'
p194
g8
(g12
S'\x84\x00\x00\x00\x00\x00\x00\x00'
p195
tp196
Rp197
sS'objids'
p198
(lp199
g8
(g12
S'c\x00\x00\x00\x00\x00\x00\x00'
p200
tp201
Rp202
ag8
(g12
S'i\x00\x00\x00\x00\x00\x00\x00'
p203
tp204
Rp205
ag8
(g12
S'\x82\x00\x00\x00\x00\x00\x00\x00'
p206
tp207
Rp208
asa(dp209
S'action'
p210
S'delete'
p211
sS'order'
p212
F1523900472.815328
sS'objid'
p213
g8
(g12
S'\x83\x00\x00\x00\x00\x00\x00\x00'
p214
tp215
Rp216
sa(dp217
S'action'
p218
S'delete'
p219
sS'order'
p220
F1523900472.818838
sS'objid'
p221
g8
(g12
S'm\x00\x00\x00\x00\x00\x00\x00'
p222
tp223
Rp224
sa(dp225
S'action'
p226
S'delete'
p227
sS'order'
p228
F1523900472.823361
sS'objid'
p229
g8
(g12
S'l\x00\x00\x00\x00\x00\x00\x00'
p230
tp231
Rp232
sa(dp233
S'action'
p234
S'delete'
p235
sS'order'
p236
F1523900472.828243
sS'objid'
p237
g8
(g12
S'k\x00\x00\x00\x00\x00\x00\x00'
p238
tp239
Rp240
sa(dp241
S'action'
p242
S'delete'
p243
sS'order'
p244
F1523900472.830734
sS'objid'
p245
g8
(g12
S'j\x00\x00\x00\x00\x00\x00\x00'
p246
tp247
Rp248
sa(dp249
S'action'
p250
S'delete'
p251
sS'order'
p252
F1523900472.833319
sS'objid'
p253
g8
(g12
S'h\x00\x00\x00\x00\x00\x00\x00'
p254
tp255
Rp256
sa(dp257
S'action'
p258
S'delete'
p259
sS'order'
p260
F1523900472.835958
sS'objid'
p261
g8
(g12
S'g\x00\x00\x00\x00\x00\x00\x00'
p262
tp263
Rp264
sa(dp265
S'action'
p266
S'delete'
p267
sS'order'
p268
F1523900472.838627
sS'objid'
p269
g8
(g12
S'f\x00\x00\x00\x00\x00\x00\x00'
p270
tp271
Rp272
sa(dp273
S'action'
p274
S'delete'
p275
sS'order'
p276
F1523900472.841573
sS'objid'
p277
g8
(g12
S'e\x00\x00\x00\x00\x00\x00\x00'
p278
tp279
Rp280
sa(dp281
S'action'
p282
S'delete'
p283
sS'order'
p284
F1523900472.845503
sS'objid'
p285
g8
(g12
S'd\x00\x00\x00\x00\x00\x00\x00'
p286
tp287
Rp288
sa(dp289
S'action'
p290
S'delete'
p291
sS'order'
p292
F1523900472.848501
sS'objid'
p293
g8
(g12
S'b\x00\x00\x00\x00\x00\x00\x00'
p294
tp295
Rp296
sa(dp297
S'action'
p298
S'delete'
p299
sS'order'
p300
F1523900472.851496
sS'objid'
p301
g8
(g12
S'a\x00\x00\x00\x00\x00\x00\x00'
p302
tp303
Rp304
sa(dp305
S'action'
p306
S'delete'
p307
sS'order'
p308
F1523900472.854574
sS'objid'
p309
g8
(g12
S'`\x00\x00\x00\x00\x00\x00\x00'
p310
tp311
Rp312
sa(dp313
S'action'
p314
S'delete'
p315
sS'order'
p316
F1523900472.85759
sS'objid'
p317
g8
(g12
S'^\x00\x00\x00\x00\x00\x00\x00'
p318
tp319
Rp320
sa(dp321
S'action'
p322
S'delete'
p323
sS'order'
p324
F1523900472.862326
sS'objid'
p325
g8
(g12
S']\x00\x00\x00\x00\x00\x00\x00'
p326
tp327
Rp328
sa(dp329
S'action'
p330
S'delete'
p331
sS'order'
p332
F1523900472.867502
sS'objid'
p333
g8
(g12
S'\\\x00\x00\x00\x00\x00\x00\x00'
p334
tp335
Rp336
sa(dp337
S'action'
p338
S'delete'
p339
sS'order'
p340
F1523900472.870835
sS'objid'
p341
g8
(g12
S'Z\x00\x00\x00\x00\x00\x00\x00'
p342
tp343
Rp344
sa(dp345
S'action'
p346
S'delete'
p347
sS'order'
p348
F1523900472.87417
sS'objid'
p349
g8
(g12
S'Y\x00\x00\x00\x00\x00\x00\x00'
p350
tp351
Rp352
sa(dp353
S'action'
p354
S'delete'
p355
sS'order'
p356
F1523900472.877633
sS'objid'
p357
g8
(g12
S'X\x00\x00\x00\x00\x00\x00\x00'
p358
tp359
Rp360
sa(dp361
S'action'
p362
S'delete'
p363
sS'order'
p364
F1523900472.881061
sS'objid'
p365
g8
(g12
S'W\x00\x00\x00\x00\x00\x00\x00'
p366
tp367
Rp368
sa(dp369
S'action'
p370
S'delete'
p371
sS'order'
p372
F1523900472.884516
sS'objid'
p373
g8
(g12
S'V\x00\x00\x00\x00\x00\x00\x00'
p374
tp375
Rp376
sa(dp377
S'action'
p378
S'delete'
p379
sS'order'
p380
F1523900472.888679
sS'objid'
p381
g8
(g12
S'U\x00\x00\x00\x00\x00\x00\x00'
p382
tp383
Rp384
sa(dp385
S'action'
p386
S'delete'
p387
sS'order'
p388
F1523900472.892227
sS'objid'
p389
g8
(g12
S'T\x00\x00\x00\x00\x00\x00\x00'
p390
tp391
Rp392
sa(dp393
S'action'
p394
S'delete'
p395
sS'order'
p396
F1523900472.895864
sS'objid'
p397
g8
(g12
S'S\x00\x00\x00\x00\x00\x00\x00'
p398
tp399
Rp400
sa(dp401
S'action'
p402
S'delete'
p403
sS'order'
p404
F1523900472.899534
sS'objid'
p405
g8
(g12
S'Q\x00\x00\x00\x00\x00\x00\x00'
p406
tp407
Rp408
sa(dp409
S'action'
p410
S'delete'
p411
sS'order'
p412
F1523900472.90328
sS'objid'
p413
g8
(g12
S'P\x00\x00\x00\x00\x00\x00\x00'
p414
tp415
Rp416
sa(dp417
S'action'
p418
S'delete'
p419
sS'order'
p420
F1523900472.907075
sS'objid'
p421
g8
(g12
S'O\x00\x00\x00\x00\x00\x00\x00'
p422
tp423
Rp424
sa(dp425
S'action'
p426
S'delete'
p427
sS'order'
p428
F1523900472.910919
sS'objid'
p429
g8
(g12
S'N\x00\x00\x00\x00\x00\x00\x00'
p430
tp431
Rp432
sa(dp433
S'action'
p434
S'delete'
p435
sS'order'
p436
F1523900472.914817
sS'objid'
p437
g8
(g12
S'M\x00\x00\x00\x00\x00\x00\x00'
p438
tp439
Rp440
sa(dp441
S'action'
p442
S'delete'
p443
sS'order'
p444
F1523900472.918823
sS'objid'
p445
g8
(g12
S'L\x00\x00\x00\x00\x00\x00\x00'
p446
tp447
Rp448
sa(dp449
S'action'
p450
S'delete'
p451
sS'order'
p452
F1523900472.922876
sS'objid'
p453
g8
(g12
S'K\x00\x00\x00\x00\x00\x00\x00'
p454
tp455
Rp456
sa(dp457
S'action'
p458
S'delete'
p459
sS'order'
p460
F1523900472.926962
sS'objid'
p461
g8
(g12
S'J\x00\x00\x00\x00\x00\x00\x00'
p462
tp463
Rp464
sa(dp465
S'action'
p466
S'delete'
p467
sS'order'
p468
F1523900472.931095
sS'objid'
p469
g8
(g12
S'I\x00\x00\x00\x00\x00\x00\x00'
p470
tp471
Rp472
sa(dp473
S'action'
p474
S'delete'
p475
sS'order'
p476
F1523900472.935311
sS'objid'
p477
g8
(g12
S'H\x00\x00\x00\x00\x00\x00\x00'
p478
tp479
Rp480
sa(dp481
S'action'
p482
S'delete'
p483
sS'order'
p484
F1523900472.939569
sS'objid'
p485
g8
(g12
S'G\x00\x00\x00\x00\x00\x00\x00'
p486
tp487
Rp488
sa(dp489
S'action'
p490
S'delete'
p491
sS'order'
p492
F1523900472.943896
sS'objid'
p493
g8
(g12
S'F\x00\x00\x00\x00\x00\x00\x00'
p494
tp495
Rp496
sa(dp497
S'action'
p498
S'delete'
p499
sS'order'
p500
F1523900472.948267
sS'objid'
p501
g8
(g12
S'E\x00\x00\x00\x00\x00\x00\x00'
p502
tp503
Rp504
sa(dp505
S'action'
p506
S'delete'
p507
sS'order'
p508
F1523900472.952714
sS'objid'
p509
g8
(g12
S'D\x00\x00\x00\x00\x00\x00\x00'
p510
tp511
Rp512
sa(dp513
S'action'
p514
S'delete'
p515
sS'order'
p516
F1523900472.957189
sS'objid'
p517
g8
(g12
S'C\x00\x00\x00\x00\x00\x00\x00'
p518
tp519
Rp520
sa(dp521
S'action'
p522
S'delete'
p523
sS'order'
p524
F1523900472.961709
sS'objid'
p525
g8
(g12
S'B\x00\x00\x00\x00\x00\x00\x00'
p526
tp527
Rp528
sa(dp529
S'action'
p530
S'delete'
p531
sS'order'
p532
F1523900472.966329
sS'objid'
p533
g8
(g12
S'A\x00\x00\x00\x00\x00\x00\x00'
p534
tp535
Rp536
sa(dp537
S'action'
p538
S'delete'
p539
sS'order'
p540
F1523900472.971165
sS'objid'
p541
g8
(g12
S'@\x00\x00\x00\x00\x00\x00\x00'
p542
tp543
Rp544
sa(dp545
S'action'
p546
S'delete'
p547
sS'order'
p548
F1523900472.975973
sS'objid'
p549
g8
(g12
S'?\x00\x00\x00\x00\x00\x00\x00'
p550
tp551
Rp552
sa(dp553
S'action'
p554
S'delete'
p555
sS'order'
p556
F1523900472.980939
sS'objid'
p557
g8
(g12
S'>\x00\x00\x00\x00\x00\x00\x00'
p558
tp559
Rp560
sa(dp561
S'action'
p562
S'delete'
p563
sS'order'
p564
F1523900472.985789
sS'objid'
p565
g8
(g12
S'=\x00\x00\x00\x00\x00\x00\x00'
p566
tp567
Rp568
sa(dp569
S'action'
p570
S'delete'
p571
sS'order'
p572
F1523900472.995198
sS'objid'
p573
g8
(g12
S'<\x00\x00\x00\x00\x00\x00\x00'
p574
tp575
Rp576
sa(dp577
S'action'
p578
S'delete'
p579
sS'order'
p580
F1523900473.004077
sS'objid'
p581
g8
(g12
S';\x00\x00\x00\x00\x00\x00\x00'
p582
tp583
Rp584
sa(dp585
S'action'
p586
S'delete'
p587
sS'order'
p588
F1523900473.009064
sS'objid'
p589
g8
(g12
S':\x00\x00\x00\x00\x00\x00\x00'
p590
tp591
Rp592
sa(dp593
S'action'
p594
S'delete'
p595
sS'order'
p596
F1523900473.014105
sS'objid'
p597
g8
(g12
S'9\x00\x00\x00\x00\x00\x00\x00'
p598
tp599
Rp600
sa(dp601
S'action'
p602
S'delete'
p603
sS'order'
p604
F1523900473.019244
sS'objid'
p605
g8
(g12
S'8\x00\x00\x00\x00\x00\x00\x00'
p606
tp607
Rp608
sa(dp609
S'action'
p610
S'delete'
p611
sS'order'
p612
F1523900473.024418
sS'objid'
p613
g8
(g12
S'7\x00\x00\x00\x00\x00\x00\x00'
p614
tp615
Rp616
sa(dp617
S'action'
p618
S'delete'
p619
sS'order'
p620
F1523900473.029628
sS'objid'
p621
g8
(g12
S'6\x00\x00\x00\x00\x00\x00\x00'
p622
tp623
Rp624
sa(dp625
S'action'
p626
S'delete'
p627
sS'order'
p628
F1523900473.034929
sS'objid'
p629
g8
(g12
S'5\x00\x00\x00\x00\x00\x00\x00'
p630
tp631
Rp632
sa(dp633
S'action'
p634
S'delete'
p635
sS'order'
p636
F1523900473.040311
sS'objid'
p637
g8
(g12
S'4\x00\x00\x00\x00\x00\x00\x00'
p638
tp639
Rp640
sa(dp641
S'action'
p642
S'delete'
p643
sS'order'
p644
F1523900473.045726
sS'objid'
p645
g8
(g12
S'3\x00\x00\x00\x00\x00\x00\x00'
p646
tp647
Rp648
sa(dp649
S'action'
p650
S'delete'
p651
sS'order'
p652
F1523900473.051228
sS'objid'
p653
g8
(g12
S'2\x00\x00\x00\x00\x00\x00\x00'
p654
tp655
Rp656
sa(dp657
S'action'
p658
S'delete'
p659
sS'order'
p660
F1523900473.056756
sS'objid'
p661
g8
(g12
S'1\x00\x00\x00\x00\x00\x00\x00'
p662
tp663
Rp664
sa(dp665
S'action'
p666
S'delete'
p667
sS'order'
p668
F1523900473.062375
sS'objid'
p669
g8
(g12
S'0\x00\x00\x00\x00\x00\x00\x00'
p670
tp671
Rp672
sa(dp673
S'action'
p674
S'delete'
p675
sS'order'
p676
F1523900473.068066
sS'objid'
p677
g8
(g12
S'/\x00\x00\x00\x00\x00\x00\x00'
p678
tp679
Rp680
sa(dp681
S'action'
p682
S'delete'
p683
sS'order'
p684
F1523900473.073914
sS'objid'
p685
g8
(g12
S'.\x00\x00\x00\x00\x00\x00\x00'
p686
tp687
Rp688
sa(dp689
S'action'
p690
S'delete'
p691
sS'order'
p692
F1523900473.079839
sS'objid'
p693
g8
(g12
S'-\x00\x00\x00\x00\x00\x00\x00'
p694
tp695
Rp696
sa(dp697
S'action'
p698
S'delete'
p699
sS'order'
p700
F1523900473.085814
sS'objid'
p701
g8
(g12
S',\x00\x00\x00\x00\x00\x00\x00'
p702
tp703
Rp704
sa(dp705
S'action'
p706
S'delete'
p707
sS'order'
p708
F1523900473.095347
sS'objid'
p709
g8
(g12
S'+\x00\x00\x00\x00\x00\x00\x00'
p710
tp711
Rp712
sa(dp713
S'action'
p714
S'delete'
p715
sS'order'
p716
F1523900473.105169
sS'objid'
p717
g8
(g12
S'*\x00\x00\x00\x00\x00\x00\x00'
p718
tp719
Rp720
sa(dp721
S'action'
p722
S'join'
p723
sS'data_to_add'
p724
(lp725
sS'order'
p726
F1523900492.863657
sS'new_objid'
p727
g8
(g12
S'\x85\x00\x00\x00\x00\x00\x00\x00'
p728
tp729
Rp730
sS'objids'
p731
(lp732
g8
(g12
S'\x84\x00\x00\x00\x00\x00\x00\x00'
p733
tp734
Rp735
ag8
(g12
S'y\x00\x00\x00\x00\x00\x00\x00'
p736
tp737
Rp738
asa(dp739
S'action'
p740
S'delete'
p741
sS'order'
p742
F1523900500.256068
sS'objid'
p743
g8
(g12
S'\x7f\x00\x00\x00\x00\x00\x00\x00'
p744
tp745
Rp746
sa(dp747
S'action'
p748
S'delete'
p749
sS'order'
p750
F1523900500.266761
sS'objid'
p751
g8
(g12
S'{\x00\x00\x00\x00\x00\x00\x00'
p752
tp753
Rp754
sa(dp755
S'action'
p756
S'delete'
p757
sS'order'
p758
F1523900500.279606
sS'objid'
p759
g8
(g12
S')\x00\x00\x00\x00\x00\x00\x00'
p760
tp761
Rp762
sa(dp763
S'action'
p764
S'delete'
p765
sS'order'
p766
F1523900500.289585
sS'objid'
p767
g8
(g12
S'(\x00\x00\x00\x00\x00\x00\x00'
p768
tp769
Rp770
sa(dp771
S'action'
p772
S'delete'
p773
sS'order'
p774
F1523900500.29612
sS'objid'
p775
g8
(g12
S"'\x00\x00\x00\x00\x00\x00\x00"
p776
tp777
Rp778
sa(dp779
S'action'
p780
S'delete'
p781
sS'order'
p782
F1523900500.302592
sS'objid'
p783
g8
(g12
S'&\x00\x00\x00\x00\x00\x00\x00'
p784
tp785
Rp786
sa(dp787
S'action'
p788
S'delete'
p789
sS'order'
p790
F1523900500.309073
sS'objid'
p791
g8
(g12
S'%\x00\x00\x00\x00\x00\x00\x00'
p792
tp793
Rp794
sa(dp795
S'action'
p796
S'delete'
p797
sS'order'
p798
F1523900500.315584
sS'objid'
p799
g8
(g12
S'$\x00\x00\x00\x00\x00\x00\x00'
p800
tp801
Rp802
sa(dp803
S'action'
p804
S'delete'
p805
sS'order'
p806
F1523900500.322199
sS'objid'
p807
g8
(g12
S'#\x00\x00\x00\x00\x00\x00\x00'
p808
tp809
Rp810
sa(dp811
S'action'
p812
S'delete'
p813
sS'order'
p814
F1523900500.328829
sS'objid'
p815
g8
(g12
S'"\x00\x00\x00\x00\x00\x00\x00'
p816
tp817
Rp818
sa(dp819
S'action'
p820
S'delete'
p821
sS'order'
p822
F1523900500.335529
sS'objid'
p823
g8
(g12
S'!\x00\x00\x00\x00\x00\x00\x00'
p824
tp825
Rp826
sa(dp827
S'action'
p828
S'delete'
p829
sS'order'
p830
F1523900500.342261
sS'objid'
p831
g8
(g12
S' \x00\x00\x00\x00\x00\x00\x00'
p832
tp833
Rp834
sa(dp835
S'action'
p836
S'delete'
p837
sS'order'
p838
F1523900500.349047
sS'objid'
p839
g8
(g12
S'\x1f\x00\x00\x00\x00\x00\x00\x00'
p840
tp841
Rp842
sa(dp843
S'action'
p844
S'delete'
p845
sS'order'
p846
F1523900500.355926
sS'objid'
p847
g8
(g12
S'\x1e\x00\x00\x00\x00\x00\x00\x00'
p848
tp849
Rp850
sa(dp851
S'action'
p852
S'delete'
p853
sS'order'
p854
F1523900500.362846
sS'objid'
p855
g8
(g12
S'\x1d\x00\x00\x00\x00\x00\x00\x00'
p856
tp857
Rp858
sa(dp859
S'action'
p860
S'delete'
p861
sS'order'
p862
F1523900500.36981
sS'objid'
p863
g8
(g12
S'\x1c\x00\x00\x00\x00\x00\x00\x00'
p864
tp865
Rp866
sa(dp867
S'action'
p868
S'delete'
p869
sS'order'
p870
F1523900500.376949
sS'objid'
p871
g8
(g12
S'\x1b\x00\x00\x00\x00\x00\x00\x00'
p872
tp873
Rp874
sa(dp875
S'action'
p876
S'delete'
p877
sS'order'
p878
F1523900500.384103
sS'objid'
p879
g8
(g12
S'\x19\x00\x00\x00\x00\x00\x00\x00'
p880
tp881
Rp882
sa(dp883
S'action'
p884
S'delete'
p885
sS'order'
p886
F1523900500.391341
sS'objid'
p887
g8
(g12
S'\x18\x00\x00\x00\x00\x00\x00\x00'
p888
tp889
Rp890
sa(dp891
S'action'
p892
S'delete'
p893
sS'order'
p894
F1523900500.398564
sS'objid'
p895
g8
(g12
S'\x17\x00\x00\x00\x00\x00\x00\x00'
p896
tp897
Rp898
sa(dp899
S'action'
p900
S'delete'
p901
sS'order'
p902
F1523900500.405841
sS'objid'
p903
g8
(g12
S'\x16\x00\x00\x00\x00\x00\x00\x00'
p904
tp905
Rp906
sa(dp907
S'action'
p908
S'delete'
p909
sS'order'
p910
F1523900500.413171
sS'objid'
p911
g8
(g12
S'\x15\x00\x00\x00\x00\x00\x00\x00'
p912
tp913
Rp914
sa(dp915
S'action'
p916
S'delete'
p917
sS'order'
p918
F1523900500.420577
sS'objid'
p919
g8
(g12
S'\x14\x00\x00\x00\x00\x00\x00\x00'
p920
tp921
Rp922
sa(dp923
S'action'
p924
S'delete'
p925
sS'order'
p926
F1523900500.427985
sS'objid'
p927
g8
(g12
S'\x13\x00\x00\x00\x00\x00\x00\x00'
p928
tp929
Rp930
sa(dp931
S'action'
p932
S'delete'
p933
sS'order'
p934
F1523900500.435467
sS'objid'
p935
g8
(g12
S'\x12\x00\x00\x00\x00\x00\x00\x00'
p936
tp937
Rp938
sa(dp939
S'action'
p940
S'delete'
p941
sS'order'
p942
F1523900500.443025
sS'objid'
p943
g8
(g12
S'\x11\x00\x00\x00\x00\x00\x00\x00'
p944
tp945
Rp946
sa(dp947
S'action'
p948
S'delete'
p949
sS'order'
p950
F1523900500.450636
sS'objid'
p951
g8
(g12
S'\x10\x00\x00\x00\x00\x00\x00\x00'
p952
tp953
Rp954
sa(dp955
S'action'
p956
S'delete'
p957
sS'order'
p958
F1523900500.458303
sS'objid'
p959
g8
(g12
S'\x0f\x00\x00\x00\x00\x00\x00\x00'
p960
tp961
Rp962
sa(dp963
S'action'
p964
S'delete'
p965
sS'order'
p966
F1523900500.466024
sS'objid'
p967
g8
(g12
S'\x0e\x00\x00\x00\x00\x00\x00\x00'
p968
tp969
Rp970
sa(dp971
S'action'
p972
S'delete'
p973
sS'order'
p974
F1523900500.473829
sS'objid'
p975
g8
(g12
S'\r\x00\x00\x00\x00\x00\x00\x00'
p976
tp977
Rp978
sa(dp979
S'action'
p980
S'delete'
p981
sS'order'
p982
F1523900500.481759
sS'objid'
p983
g8
(g12
S'\x0b\x00\x00\x00\x00\x00\x00\x00'
p984
tp985
Rp986
sa(dp987
S'action'
p988
S'delete'
p989
sS'order'
p990
F1523900500.489741
sS'objid'
p991
g8
(g12
S'\n\x00\x00\x00\x00\x00\x00\x00'
p992
tp993
Rp994
sa(dp995
S'action'
p996
S'delete'
p997
sS'order'
p998
F1523900500.497696
sS'objid'
p999
g8
(g12
S'\t\x00\x00\x00\x00\x00\x00\x00'
p1000
tp1001
Rp1002
sa(dp1003
S'action'
p1004
S'delete'
p1005
sS'order'
p1006
F1523900500.505706
sS'objid'
p1007
g8
(g12
S'\x08\x00\x00\x00\x00\x00\x00\x00'
p1008
tp1009
Rp1010
sa(dp1011
S'action'
p1012
S'delete'
p1013
sS'order'
p1014
F1523900500.513765
sS'objid'
p1015
g8
(g12
S'\x07\x00\x00\x00\x00\x00\x00\x00'
p1016
tp1017
Rp1018
sa(dp1019
S'action'
p1020
S'delete'
p1021
sS'order'
p1022
F1523900500.521932
sS'objid'
p1023
g8
(g12
S'\x06\x00\x00\x00\x00\x00\x00\x00'
p1024
tp1025
Rp1026
sa(dp1027
S'action'
p1028
S'delete'
p1029
sS'order'
p1030
F1523900500.530134
sS'objid'
p1031
g8
(g12
S'\x05\x00\x00\x00\x00\x00\x00\x00'
p1032
tp1033
Rp1034
sa(dp1035
S'action'
p1036
S'delete'
p1037
sS'order'
p1038
F1523900500.538353
sS'objid'
p1039
g8
(g12
S'\x04\x00\x00\x00\x00\x00\x00\x00'
p1040
tp1041
Rp1042
sa(dp1043
S'action'
p1044
S'delete'
p1045
sS'order'
p1046
F1523900500.546703
sS'objid'
p1047
g8
(g12
S'\x03\x00\x00\x00\x00\x00\x00\x00'
p1048
tp1049
Rp1050
sa(dp1051
S'action'
p1052
S'delete'
p1053
sS'order'
p1054
F1523900500.555056
sS'objid'
p1055
g8
(g12
S'\x02\x00\x00\x00\x00\x00\x00\x00'
p1056
tp1057
Rp1058
sa.