(lp0
(dp1
S'cut_frame_global'
p2
I40
sS'cut_time_epoch'
p3
cnumpy.core.multiarray
scalar
p4
(cnumpy
dtype
p5
(S'f8'
p6
I0
I1
tp7
Rp8
(I3
S'<'
p9
NNNI-1
I-1
I0
tp10
bS'7\x92T\x15\x9c\xb4\xd6A'
p11
tp12
Rp13
sS'cut_frame_trajectory'
p14
g4
(g5
(S'i8'
p15
I0
I1
tp16
Rp17
(I3
S'<'
p18
NNNI-1
I-1
I0
tp19
bS'\x19\x00\x00\x00\x00\x00\x00\x00'
p20
tp21
Rp22
sS'objid'
p23
g4
(g17
S'\x01\x00\x00\x00\x00\x00\x00\x00'
p24
tp25
Rp26
sS'action'
p27
S'cut'
p28
sS'order'
p29
F1523923980.327848
sS'new_objid'
p30
g4
(g17
S'8\x00\x00\x00\x00\x00\x00\x00'
p31
tp32
Rp33
sa(dp34
g2
I178
sg3
g4
(g8
S'f\xc5\xc7\x18\x9c\xb4\xd6A'
p35
tp36
Rp37
sg14
g4
(g17
S'\x89\x00\x00\x00\x00\x00\x00\x00'
p38
tp39
Rp40
sg23
g4
(g17
S'\x02\x00\x00\x00\x00\x00\x00\x00'
p41
tp42
Rp43
sg27
g28
sg29
F1523923982.745015
sg30
g4
(g17
S'9\x00\x00\x00\x00\x00\x00\x00'
p44
tp45
Rp46
sa(dp47
g2
I67
sg3
g4
(g8
S'\x05`\x01\x16\x9c\xb4\xd6A'
p48
tp49
Rp50
sg14
g4
(g17
S'\x1a\x00\x00\x00\x00\x00\x00\x00'
p51
tp52
Rp53
sg23
g4
(g17
S'\x02\x00\x00\x00\x00\x00\x00\x00'
p54
tp55
Rp56
sg27
g28
sg29
F1523923984.828869
sg30
g4
(g17
S':\x00\x00\x00\x00\x00\x00\x00'
p57
tp58
Rp59
sa(dp60
S'action'
p61
S'join'
p62
sS'data_to_add'
p63
(lp64
sS'order'
p65
F1523924007.126523
sS'new_objid'
p66
g4
(g17
S'<\x00\x00\x00\x00\x00\x00\x00'
p67
tp68
Rp69
sS'objids'
p70
(lp71
g4
(g17
S'\x00\x00\x00\x00\x00\x00\x00\x00'
p72
tp73
Rp74
ag4
(g17
S'8\x00\x00\x00\x00\x00\x00\x00'
p75
tp76
Rp77
ag4
(g17
S'\x03\x00\x00\x00\x00\x00\x00\x00'
p78
tp79
Rp80
asa(dp81
g61
g62
sg63
(lp82
sg65
F1523924025.239393
sg66
g4
(g17
S'=\x00\x00\x00\x00\x00\x00\x00'
p83
tp84
Rp85
sg70
(lp86
g4
(g17
S'\x0c\x00\x00\x00\x00\x00\x00\x00'
p87
tp88
Rp89
ag4
(g17
S'\n\x00\x00\x00\x00\x00\x00\x00'
p90
tp91
Rp92
ag4
(g17
S'<\x00\x00\x00\x00\x00\x00\x00'
p93
tp94
Rp95
asa(dp96
g61
g62
sg63
(lp97
sg65
F1523924031.655342
sg66
g4
(g17
S'>\x00\x00\x00\x00\x00\x00\x00'
p98
tp99
Rp100
sg70
(lp101
g4
(g17
S'\x14\x00\x00\x00\x00\x00\x00\x00'
p102
tp103
Rp104
ag4
(g17
S'=\x00\x00\x00\x00\x00\x00\x00'
p105
tp106
Rp107
asa(dp108
g61
g62
sg63
(lp109
sg65
F1523924036.047581
sg66
g4
(g17
S'?\x00\x00\x00\x00\x00\x00\x00'
p110
tp111
Rp112
sg70
(lp113
g4
(g17
S'\x15\x00\x00\x00\x00\x00\x00\x00'
p114
tp115
Rp116
ag4
(g17
S'>\x00\x00\x00\x00\x00\x00\x00'
p117
tp118
Rp119
asa(dp120
S'cut_frame_global'
p121
I1362
sS'cut_time_epoch'
p122
g4
(g8
S'4_a6\x9c\xb4\xd6A'
p123
tp124
Rp125
sS'cut_frame_trajectory'
p126
g4
(g17
S'7\x00\x00\x00\x00\x00\x00\x00'
p127
tp128
Rp129
sS'objid'
p130
g4
(g17
S'!\x00\x00\x00\x00\x00\x00\x00'
p131
tp132
Rp133
sS'action'
p134
S'cut'
p135
sS'order'
p136
F1523924048.298047
sS'new_objid'
p137
g4
(g17
S'A\x00\x00\x00\x00\x00\x00\x00'
p138
tp139
Rp140
sa(dp141
S'action'
p142
S'join'
p143
sS'data_to_add'
p144
(lp145
sS'order'
p146
F1523924054.170548
sS'new_objid'
p147
g4
(g17
S'B\x00\x00\x00\x00\x00\x00\x00'
p148
tp149
Rp150
sS'objids'
p151
(lp152
g4
(g17
S'A\x00\x00\x00\x00\x00\x00\x00'
p153
tp154
Rp155
ag4
(g17
S'?\x00\x00\x00\x00\x00\x00\x00'
p156
tp157
Rp158
asa(dp159
S'cut_frame_global'
p160
I1731
sS'cut_time_epoch'
p161
g4
(g8
S'\x7f\xf9\x9a?\x9c\xb4\xd6A'
p162
tp163
Rp164
sS'cut_frame_trajectory'
p165
g4
(g17
S'\x01\x00\x00\x00\x00\x00\x00\x00'
p166
tp167
Rp168
sS'objid'
p169
g4
(g17
S'+\x00\x00\x00\x00\x00\x00\x00'
p170
tp171
Rp172
sS'action'
p173
S'cut'
p174
sS'order'
p175
F1523924061.817803
sS'new_objid'
p176
g4
(g17
S'C\x00\x00\x00\x00\x00\x00\x00'
p177
tp178
Rp179
sa(dp180
S'action'
p181
S'join'
p182
sS'data_to_add'
p183
(lp184
sS'order'
p185
F1523924067.60778
sS'new_objid'
p186
g4
(g17
S'D\x00\x00\x00\x00\x00\x00\x00'
p187
tp188
Rp189
sS'objids'
p190
(lp191
g4
(g17
S'B\x00\x00\x00\x00\x00\x00\x00'
p192
tp193
Rp194
ag4
(g17
S'C\x00\x00\x00\x00\x00\x00\x00'
p195
tp196
Rp197
asa(dp198
S'action'
p199
S'delete'
p200
sS'order'
p201
F1523924076.112131
sS'objid'
p202
g4
(g17
S':\x00\x00\x00\x00\x00\x00\x00'
p203
tp204
Rp205
sa(dp206
S'action'
p207
S'delete'
p208
sS'order'
p209
F1523924076.116213
sS'objid'
p210
g4
(g17
S'9\x00\x00\x00\x00\x00\x00\x00'
p211
tp212
Rp213
sa(dp214
S'action'
p215
S'delete'
p216
sS'order'
p217
F1523924076.120387
sS'objid'
p218
g4
(g17
S',\x00\x00\x00\x00\x00\x00\x00'
p219
tp220
Rp221
sa(dp222
S'action'
p223
S'delete'
p224
sS'order'
p225
F1523924076.124728
sS'objid'
p226
g4
(g17
S'+\x00\x00\x00\x00\x00\x00\x00'
p227
tp228
Rp229
sa(dp230
S'action'
p231
S'delete'
p232
sS'order'
p233
F1523924076.128331
sS'objid'
p234
g4
(g17
S'*\x00\x00\x00\x00\x00\x00\x00'
p235
tp236
Rp237
sa(dp238
S'action'
p239
S'delete'
p240
sS'order'
p241
F1523924076.130951
sS'objid'
p242
g4
(g17
S')\x00\x00\x00\x00\x00\x00\x00'
p243
tp244
Rp245
sa(dp246
S'action'
p247
S'delete'
p248
sS'order'
p249
F1523924076.133606
sS'objid'
p250
g4
(g17
S'(\x00\x00\x00\x00\x00\x00\x00'
p251
tp252
Rp253
sa(dp254
S'action'
p255
S'delete'
p256
sS'order'
p257
F1523924076.136414
sS'objid'
p258
g4
(g17
S"'\x00\x00\x00\x00\x00\x00\x00"
p259
tp260
Rp261
sa(dp262
S'action'
p263
S'delete'
p264
sS'order'
p265
F1523924076.139536
sS'objid'
p266
g4
(g17
S'&\x00\x00\x00\x00\x00\x00\x00'
p267
tp268
Rp269
sa(dp270
S'action'
p271
S'delete'
p272
sS'order'
p273
F1523924076.142332
sS'objid'
p274
g4
(g17
S'%\x00\x00\x00\x00\x00\x00\x00'
p275
tp276
Rp277
sa(dp278
S'action'
p279
S'delete'
p280
sS'order'
p281
F1523924076.145288
sS'objid'
p282
g4
(g17
S'$\x00\x00\x00\x00\x00\x00\x00'
p283
tp284
Rp285
sa(dp286
S'action'
p287
S'delete'
p288
sS'order'
p289
F1523924076.148239
sS'objid'
p290
g4
(g17
S'#\x00\x00\x00\x00\x00\x00\x00'
p291
tp292
Rp293
sa(dp294
S'action'
p295
S'delete'
p296
sS'order'
p297
F1523924076.151205
sS'objid'
p298
g4
(g17
S'"\x00\x00\x00\x00\x00\x00\x00'
p299
tp300
Rp301
sa(dp302
S'action'
p303
S'delete'
p304
sS'order'
p305
F1523924076.154252
sS'objid'
p306
g4
(g17
S'!\x00\x00\x00\x00\x00\x00\x00'
p307
tp308
Rp309
sa(dp310
S'action'
p311
S'delete'
p312
sS'order'
p313
F1523924076.157387
sS'objid'
p314
g4
(g17
S' \x00\x00\x00\x00\x00\x00\x00'
p315
tp316
Rp317
sa(dp318
S'action'
p319
S'delete'
p320
sS'order'
p321
F1523924076.160587
sS'objid'
p322
g4
(g17
S'\x1f\x00\x00\x00\x00\x00\x00\x00'
p323
tp324
Rp325
sa(dp326
S'action'
p327
S'delete'
p328
sS'order'
p329
F1523924076.163814
sS'objid'
p330
g4
(g17
S'\x1e\x00\x00\x00\x00\x00\x00\x00'
p331
tp332
Rp333
sa(dp334
S'action'
p335
S'delete'
p336
sS'order'
p337
F1523924076.167156
sS'objid'
p338
g4
(g17
S'\x1d\x00\x00\x00\x00\x00\x00\x00'
p339
tp340
Rp341
sa(dp342
S'action'
p343
S'delete'
p344
sS'order'
p345
F1523924076.170531
sS'objid'
p346
g4
(g17
S'\x1c\x00\x00\x00\x00\x00\x00\x00'
p347
tp348
Rp349
sa(dp350
S'action'
p351
S'delete'
p352
sS'order'
p353
F1523924076.173925
sS'objid'
p354
g4
(g17
S'\x1b\x00\x00\x00\x00\x00\x00\x00'
p355
tp356
Rp357
sa(dp358
S'action'
p359
S'delete'
p360
sS'order'
p361
F1523924076.177375
sS'objid'
p362
g4
(g17
S'\x1a\x00\x00\x00\x00\x00\x00\x00'
p363
tp364
Rp365
sa(dp366
S'action'
p367
S'delete'
p368
sS'order'
p369
F1523924076.180876
sS'objid'
p370
g4
(g17
S'\x19\x00\x00\x00\x00\x00\x00\x00'
p371
tp372
Rp373
sa(dp374
S'action'
p375
S'delete'
p376
sS'order'
p377
F1523924076.184428
sS'objid'
p378
g4
(g17
S'\x18\x00\x00\x00\x00\x00\x00\x00'
p379
tp380
Rp381
sa(dp382
S'action'
p383
S'delete'
p384
sS'order'
p385
F1523924076.188036
sS'objid'
p386
g4
(g17
S'\x17\x00\x00\x00\x00\x00\x00\x00'
p387
tp388
Rp389
sa(dp390
S'action'
p391
S'delete'
p392
sS'order'
p393
F1523924076.191699
sS'objid'
p394
g4
(g17
S'\x16\x00\x00\x00\x00\x00\x00\x00'
p395
tp396
Rp397
sa(dp398
S'action'
p399
S'delete'
p400
sS'order'
p401
F1523924076.195418
sS'objid'
p402
g4
(g17
S'\x13\x00\x00\x00\x00\x00\x00\x00'
p403
tp404
Rp405
sa(dp406
S'action'
p407
S'delete'
p408
sS'order'
p409
F1523924076.199201
sS'objid'
p410
g4
(g17
S'\x12\x00\x00\x00\x00\x00\x00\x00'
p411
tp412
Rp413
sa(dp414
S'action'
p415
S'delete'
p416
sS'order'
p417
F1523924076.203025
sS'objid'
p418
g4
(g17
S'\x11\x00\x00\x00\x00\x00\x00\x00'
p419
tp420
Rp421
sa(dp422
S'action'
p423
S'delete'
p424
sS'order'
p425
F1523924076.20691
sS'objid'
p426
g4
(g17
S'\x10\x00\x00\x00\x00\x00\x00\x00'
p427
tp428
Rp429
sa(dp430
S'action'
p431
S'delete'
p432
sS'order'
p433
F1523924076.210859
sS'objid'
p434
g4
(g17
S'\x0f\x00\x00\x00\x00\x00\x00\x00'
p435
tp436
Rp437
sa(dp438
S'action'
p439
S'delete'
p440
sS'order'
p441
F1523924076.214859
sS'objid'
p442
g4
(g17
S'\x0e\x00\x00\x00\x00\x00\x00\x00'
p443
tp444
Rp445
sa(dp446
S'action'
p447
S'delete'
p448
sS'order'
p449
F1523924076.218932
sS'objid'
p450
g4
(g17
S'\r\x00\x00\x00\x00\x00\x00\x00'
p451
tp452
Rp453
sa(dp454
S'action'
p455
S'delete'
p456
sS'order'
p457
F1523924076.223055
sS'objid'
p458
g4
(g17
S'\x0b\x00\x00\x00\x00\x00\x00\x00'
p459
tp460
Rp461
sa(dp462
S'action'
p463
S'delete'
p464
sS'order'
p465
F1523924076.227233
sS'objid'
p466
g4
(g17
S'\t\x00\x00\x00\x00\x00\x00\x00'
p467
tp468
Rp469
sa(dp470
S'action'
p471
S'delete'
p472
sS'order'
p473
F1523924076.231465
sS'objid'
p474
g4
(g17
S'\x08\x00\x00\x00\x00\x00\x00\x00'
p475
tp476
Rp477
sa(dp478
S'action'
p479
S'delete'
p480
sS'order'
p481
F1523924076.235771
sS'objid'
p482
g4
(g17
S'\x07\x00\x00\x00\x00\x00\x00\x00'
p483
tp484
Rp485
sa(dp486
S'action'
p487
S'delete'
p488
sS'order'
p489
F1523924076.240111
sS'objid'
p490
g4
(g17
S'\x06\x00\x00\x00\x00\x00\x00\x00'
p491
tp492
Rp493
sa(dp494
S'action'
p495
S'delete'
p496
sS'order'
p497
F1523924076.244518
sS'objid'
p498
g4
(g17
S'\x05\x00\x00\x00\x00\x00\x00\x00'
p499
tp500
Rp501
sa(dp502
S'action'
p503
S'delete'
p504
sS'order'
p505
F1523924076.249014
sS'objid'
p506
g4
(g17
S'\x04\x00\x00\x00\x00\x00\x00\x00'
p507
tp508
Rp509
sa(dp510
S'action'
p511
S'delete'
p512
sS'order'
p513
F1523924076.253522
sS'objid'
p514
g4
(g17
S'\x02\x00\x00\x00\x00\x00\x00\x00'
p515
tp516
Rp517
sa(dp518
S'action'
p519
S'delete'
p520
sS'order'
p521
F1523924076.25811
sS'objid'
p522
g4
(g17
S'\x01\x00\x00\x00\x00\x00\x00\x00'
p523
tp524
Rp525
sa.