(lp0
(dp1
S'action'
p2
S'join'
p3
sS'data_to_add'
p4
(lp5
sS'order'
p6
F1523894895.620892
sS'new_objid'
p7
cnumpy.core.multiarray
scalar
p8
(cnumpy
dtype
p9
(S'i8'
p10
I0
I1
tp11
Rp12
(I3
S'<'
p13
NNNI-1
I-1
I0
tp14
bS'\x0e\x00\x00\x00\x00\x00\x00\x00'
p15
tp16
Rp17
sS'objids'
p18
(lp19
g8
(g12
S'\x00\x00\x00\x00\x00\x00\x00\x00'
p20
tp21
Rp22
ag8
(g12
S'\x01\x00\x00\x00\x00\x00\x00\x00'
p23
tp24
Rp25
asa(dp26
S'action'
p27
S'delete'
p28
sS'order'
p29
F1523894904.052156
sS'objid'
p30
g8
(g12
S'\x03\x00\x00\x00\x00\x00\x00\x00'
p31
tp32
Rp33
sa(dp34
S'action'
p35
S'delete'
p36
sS'order'
p37
F1523894904.053647
sS'objid'
p38
g8
(g12
S'\x02\x00\x00\x00\x00\x00\x00\x00'
p39
tp40
Rp41
sa.