(lp0
(dp1
S'action'
p2
S'delete'
p3
sS'order'
p4
F1523657677.374549
sS'objid'
p5
cnumpy.core.multiarray
scalar
p6
(cnumpy
dtype
p7
(S'i8'
p8
I0
I1
tp9
Rp10
(I3
S'<'
p11
NNNI-1
I-1
I0
tp12
bS'\x05\x00\x00\x00\x00\x00\x00\x00'
p13
tp14
Rp15
sa(dp16
S'action'
p17
S'delete'
p18
sS'order'
p19
F1523657677.375857
sS'objid'
p20
g6
(g10
S'\x04\x00\x00\x00\x00\x00\x00\x00'
p21
tp22
Rp23
sa(dp24
S'action'
p25
S'delete'
p26
sS'order'
p27
F1523657677.37712
sS'objid'
p28
g6
(g10
S'\x03\x00\x00\x00\x00\x00\x00\x00'
p29
tp30
Rp31
sa(dp32
S'action'
p33
S'delete'
p34
sS'order'
p35
F1523657677.378443
sS'objid'
p36
g6
(g10
S'\x02\x00\x00\x00\x00\x00\x00\x00'
p37
tp38
Rp39
sa(dp40
S'action'
p41
S'delete'
p42
sS'order'
p43
F1523657677.379891
sS'objid'
p44
g6
(g10
S'\x01\x00\x00\x00\x00\x00\x00\x00'
p45
tp46
Rp47
sa.