(lp0
(dp1
S'action'
p2
S'join'
p3
sS'data_to_add'
p4
(lp5
sS'order'
p6
F1523903938.114186
sS'new_objid'
p7
cnumpy.core.multiarray
scalar
p8
(cnumpy
dtype
p9
(S'i8'
p10
I0
I1
tp11
Rp12
(I3
S'<'
p13
NNNI-1
I-1
I0
tp14
bS'T\x00\x00\x00\x00\x00\x00\x00'
p15
tp16
Rp17
sS'objids'
p18
(lp19
g8
(g12
S'\x07\x00\x00\x00\x00\x00\x00\x00'
p20
tp21
Rp22
ag8
(g12
S'\x05\x00\x00\x00\x00\x00\x00\x00'
p23
tp24
Rp25
ag8
(g12
S'\x00\x00\x00\x00\x00\x00\x00\x00'
p26
tp27
Rp28
asa(dp29
S'action'
p30
S'join'
p31
sS'data_to_add'
p32
(lp33
sS'order'
p34
F1523903947.775121
sS'new_objid'
p35
g8
(g12
S'U\x00\x00\x00\x00\x00\x00\x00'
p36
tp37
Rp38
sS'objids'
p39
(lp40
g8
(g12
S'\x14\x00\x00\x00\x00\x00\x00\x00'
p41
tp42
Rp43
ag8
(g12
S'\x0e\x00\x00\x00\x00\x00\x00\x00'
p44
tp45
Rp46
ag8
(g12
S'T\x00\x00\x00\x00\x00\x00\x00'
p47
tp48
Rp49
asa(dp50
S'action'
p51
S'join'
p52
sS'data_to_add'
p53
(lp54
sS'order'
p55
F1523903958.471672
sS'new_objid'
p56
g8
(g12
S'V\x00\x00\x00\x00\x00\x00\x00'
p57
tp58
Rp59
sS'objids'
p60
(lp61
g8
(g12
S'U\x00\x00\x00\x00\x00\x00\x00'
p62
tp63
Rp64
ag8
(g12
S'=\x00\x00\x00\x00\x00\x00\x00'
p65
tp66
Rp67
asa(dp68
S'action'
p69
S'join'
p70
sS'data_to_add'
p71
(lp72
sS'order'
p73
F1523903968.390739
sS'new_objid'
p74
g8
(g12
S'W\x00\x00\x00\x00\x00\x00\x00'
p75
tp76
Rp77
sS'objids'
p78
(lp79
g8
(g12
S'A\x00\x00\x00\x00\x00\x00\x00'
p80
tp81
Rp82
ag8
(g12
S'V\x00\x00\x00\x00\x00\x00\x00'
p83
tp84
Rp85
ag8
(g12
S'D\x00\x00\x00\x00\x00\x00\x00'
p86
tp87
Rp88
asa(dp89
S'action'
p90
S'delete'
p91
sS'order'
p92
F1523903980.515592
sS'objid'
p93
g8
(g12
S'I\x00\x00\x00\x00\x00\x00\x00'
p94
tp95
Rp96
sa(dp97
S'action'
p98
S'delete'
p99
sS'order'
p100
F1523903980.518059
sS'objid'
p101
g8
(g12
S'H\x00\x00\x00\x00\x00\x00\x00'
p102
tp103
Rp104
sa(dp105
S'action'
p106
S'delete'
p107
sS'order'
p108
F1523903980.520795
sS'objid'
p109
g8
(g12
S'G\x00\x00\x00\x00\x00\x00\x00'
p110
tp111
Rp112
sa(dp113
S'action'
p114
S'delete'
p115
sS'order'
p116
F1523903980.523337
sS'objid'
p117
g8
(g12
S'F\x00\x00\x00\x00\x00\x00\x00'
p118
tp119
Rp120
sa(dp121
S'action'
p122
S'delete'
p123
sS'order'
p124
F1523903980.524863
sS'objid'
p125
g8
(g12
S'E\x00\x00\x00\x00\x00\x00\x00'
p126
tp127
Rp128
sa(dp129
S'action'
p130
S'delete'
p131
sS'order'
p132
F1523903980.52653
sS'objid'
p133
g8
(g12
S'C\x00\x00\x00\x00\x00\x00\x00'
p134
tp135
Rp136
sa(dp137
S'action'
p138
S'delete'
p139
sS'order'
p140
F1523903980.528228
sS'objid'
p141
g8
(g12
S'B\x00\x00\x00\x00\x00\x00\x00'
p142
tp143
Rp144
sa(dp145
S'action'
p146
S'delete'
p147
sS'order'
p148
F1523903980.529917
sS'objid'
p149
g8
(g12
S'@\x00\x00\x00\x00\x00\x00\x00'
p150
tp151
Rp152
sa(dp153
S'action'
p154
S'delete'
p155
sS'order'
p156
F1523903980.531665
sS'objid'
p157
g8
(g12
S'?\x00\x00\x00\x00\x00\x00\x00'
p158
tp159
Rp160
sa(dp161
S'action'
p162
S'delete'
p163
sS'order'
p164
F1523903980.533465
sS'objid'
p165
g8
(g12
S'>\x00\x00\x00\x00\x00\x00\x00'
p166
tp167
Rp168
sa(dp169
S'action'
p170
S'delete'
p171
sS'order'
p172
F1523903980.535357
sS'objid'
p173
g8
(g12
S'<\x00\x00\x00\x00\x00\x00\x00'
p174
tp175
Rp176
sa(dp177
S'action'
p178
S'delete'
p179
sS'order'
p180
F1523903980.537284
sS'objid'
p181
g8
(g12
S';\x00\x00\x00\x00\x00\x00\x00'
p182
tp183
Rp184
sa(dp185
S'action'
p186
S'delete'
p187
sS'order'
p188
F1523903980.539264
sS'objid'
p189
g8
(g12
S':\x00\x00\x00\x00\x00\x00\x00'
p190
tp191
Rp192
sa(dp193
S'action'
p194
S'delete'
p195
sS'order'
p196
F1523903980.541309
sS'objid'
p197
g8
(g12
S'9\x00\x00\x00\x00\x00\x00\x00'
p198
tp199
Rp200
sa(dp201
S'action'
p202
S'delete'
p203
sS'order'
p204
F1523903980.543574
sS'objid'
p205
g8
(g12
S'8\x00\x00\x00\x00\x00\x00\x00'
p206
tp207
Rp208
sa(dp209
S'action'
p210
S'delete'
p211
sS'order'
p212
F1523903980.545774
sS'objid'
p213
g8
(g12
S'7\x00\x00\x00\x00\x00\x00\x00'
p214
tp215
Rp216
sa(dp217
S'action'
p218
S'delete'
p219
sS'order'
p220
F1523903980.547979
sS'objid'
p221
g8
(g12
S'6\x00\x00\x00\x00\x00\x00\x00'
p222
tp223
Rp224
sa(dp225
S'action'
p226
S'delete'
p227
sS'order'
p228
F1523903980.550232
sS'objid'
p229
g8
(g12
S'5\x00\x00\x00\x00\x00\x00\x00'
p230
tp231
Rp232
sa(dp233
S'action'
p234
S'delete'
p235
sS'order'
p236
F1523903980.552556
sS'objid'
p237
g8
(g12
S'4\x00\x00\x00\x00\x00\x00\x00'
p238
tp239
Rp240
sa(dp241
S'action'
p242
S'delete'
p243
sS'order'
p244
F1523903980.554943
sS'objid'
p245
g8
(g12
S'3\x00\x00\x00\x00\x00\x00\x00'
p246
tp247
Rp248
sa(dp249
S'action'
p250
S'delete'
p251
sS'order'
p252
F1523903980.557394
sS'objid'
p253
g8
(g12
S'2\x00\x00\x00\x00\x00\x00\x00'
p254
tp255
Rp256
sa(dp257
S'action'
p258
S'delete'
p259
sS'order'
p260
F1523903980.559896
sS'objid'
p261
g8
(g12
S'1\x00\x00\x00\x00\x00\x00\x00'
p262
tp263
Rp264
sa(dp265
S'action'
p266
S'delete'
p267
sS'order'
p268
F1523903980.562458
sS'objid'
p269
g8
(g12
S'0\x00\x00\x00\x00\x00\x00\x00'
p270
tp271
Rp272
sa(dp273
S'action'
p274
S'delete'
p275
sS'order'
p276
F1523903980.565223
sS'objid'
p277
g8
(g12
S'/\x00\x00\x00\x00\x00\x00\x00'
p278
tp279
Rp280
sa(dp281
S'action'
p282
S'delete'
p283
sS'order'
p284
F1523903980.567909
sS'objid'
p285
g8
(g12
S'.\x00\x00\x00\x00\x00\x00\x00'
p286
tp287
Rp288
sa(dp289
S'action'
p290
S'delete'
p291
sS'order'
p292
F1523903980.570671
sS'objid'
p293
g8
(g12
S'-\x00\x00\x00\x00\x00\x00\x00'
p294
tp295
Rp296
sa(dp297
S'action'
p298
S'delete'
p299
sS'order'
p300
F1523903980.573472
sS'objid'
p301
g8
(g12
S',\x00\x00\x00\x00\x00\x00\x00'
p302
tp303
Rp304
sa(dp305
S'action'
p306
S'delete'
p307
sS'order'
p308
F1523903980.576316
sS'objid'
p309
g8
(g12
S'+\x00\x00\x00\x00\x00\x00\x00'
p310
tp311
Rp312
sa(dp313
S'action'
p314
S'delete'
p315
sS'order'
p316
F1523903980.579254
sS'objid'
p317
g8
(g12
S'*\x00\x00\x00\x00\x00\x00\x00'
p318
tp319
Rp320
sa(dp321
S'action'
p322
S'delete'
p323
sS'order'
p324
F1523903980.582212
sS'objid'
p325
g8
(g12
S')\x00\x00\x00\x00\x00\x00\x00'
p326
tp327
Rp328
sa(dp329
S'action'
p330
S'delete'
p331
sS'order'
p332
F1523903980.585292
sS'objid'
p333
g8
(g12
S'(\x00\x00\x00\x00\x00\x00\x00'
p334
tp335
Rp336
sa(dp337
S'action'
p338
S'delete'
p339
sS'order'
p340
F1523903980.588366
sS'objid'
p341
g8
(g12
S"'\x00\x00\x00\x00\x00\x00\x00"
p342
tp343
Rp344
sa(dp345
S'action'
p346
S'delete'
p347
sS'order'
p348
F1523903980.591513
sS'objid'
p349
g8
(g12
S'&\x00\x00\x00\x00\x00\x00\x00'
p350
tp351
Rp352
sa(dp353
S'action'
p354
S'delete'
p355
sS'order'
p356
F1523903980.594701
sS'objid'
p357
g8
(g12
S'%\x00\x00\x00\x00\x00\x00\x00'
p358
tp359
Rp360
sa(dp361
S'action'
p362
S'delete'
p363
sS'order'
p364
F1523903980.597981
sS'objid'
p365
g8
(g12
S'$\x00\x00\x00\x00\x00\x00\x00'
p366
tp367
Rp368
sa(dp369
S'action'
p370
S'delete'
p371
sS'order'
p372
F1523903980.601291
sS'objid'
p373
g8
(g12
S'#\x00\x00\x00\x00\x00\x00\x00'
p374
tp375
Rp376
sa(dp377
S'action'
p378
S'delete'
p379
sS'order'
p380
F1523903980.604693
sS'objid'
p381
g8
(g12
S'"\x00\x00\x00\x00\x00\x00\x00'
p382
tp383
Rp384
sa(dp385
S'action'
p386
S'delete'
p387
sS'order'
p388
F1523903980.608127
sS'objid'
p389
g8
(g12
S'!\x00\x00\x00\x00\x00\x00\x00'
p390
tp391
Rp392
sa(dp393
S'action'
p394
S'delete'
p395
sS'order'
p396
F1523903980.611613
sS'objid'
p397
g8
(g12
S' \x00\x00\x00\x00\x00\x00\x00'
p398
tp399
Rp400
sa(dp401
S'action'
p402
S'delete'
p403
sS'order'
p404
F1523903980.615149
sS'objid'
p405
g8
(g12
S'\x1f\x00\x00\x00\x00\x00\x00\x00'
p406
tp407
Rp408
sa(dp409
S'action'
p410
S'delete'
p411
sS'order'
p412
F1523903980.618757
sS'objid'
p413
g8
(g12
S'\x1e\x00\x00\x00\x00\x00\x00\x00'
p414
tp415
Rp416
sa(dp417
S'action'
p418
S'delete'
p419
sS'order'
p420
F1523903980.622422
sS'objid'
p421
g8
(g12
S'\x1d\x00\x00\x00\x00\x00\x00\x00'
p422
tp423
Rp424
sa(dp425
S'action'
p426
S'delete'
p427
sS'order'
p428
F1523903980.626162
sS'objid'
p429
g8
(g12
S'\x1c\x00\x00\x00\x00\x00\x00\x00'
p430
tp431
Rp432
sa(dp433
S'action'
p434
S'delete'
p435
sS'order'
p436
F1523903980.629933
sS'objid'
p437
g8
(g12
S'\x1b\x00\x00\x00\x00\x00\x00\x00'
p438
tp439
Rp440
sa(dp441
S'action'
p442
S'delete'
p443
sS'order'
p444
F1523903980.633779
sS'objid'
p445
g8
(g12
S'\x1a\x00\x00\x00\x00\x00\x00\x00'
p446
tp447
Rp448
sa(dp449
S'action'
p450
S'delete'
p451
sS'order'
p452
F1523903980.637658
sS'objid'
p453
g8
(g12
S'\x19\x00\x00\x00\x00\x00\x00\x00'
p454
tp455
Rp456
sa(dp457
S'action'
p458
S'delete'
p459
sS'order'
p460
F1523903980.641628
sS'objid'
p461
g8
(g12
S'\x18\x00\x00\x00\x00\x00\x00\x00'
p462
tp463
Rp464
sa(dp465
S'action'
p466
S'delete'
p467
sS'order'
p468
F1523903980.645629
sS'objid'
p469
g8
(g12
S'\x17\x00\x00\x00\x00\x00\x00\x00'
p470
tp471
Rp472
sa(dp473
S'action'
p474
S'delete'
p475
sS'order'
p476
F1523903980.649705
sS'objid'
p477
g8
(g12
S'\x16\x00\x00\x00\x00\x00\x00\x00'
p478
tp479
Rp480
sa(dp481
S'action'
p482
S'delete'
p483
sS'order'
p484
F1523903980.653818
sS'objid'
p485
g8
(g12
S'\x15\x00\x00\x00\x00\x00\x00\x00'
p486
tp487
Rp488
sa(dp489
S'action'
p490
S'delete'
p491
sS'order'
p492
F1523903980.658016
sS'objid'
p493
g8
(g12
S'\x13\x00\x00\x00\x00\x00\x00\x00'
p494
tp495
Rp496
sa(dp497
S'action'
p498
S'delete'
p499
sS'order'
p500
F1523903980.66227
sS'objid'
p501
g8
(g12
S'\x12\x00\x00\x00\x00\x00\x00\x00'
p502
tp503
Rp504
sa(dp505
S'action'
p506
S'delete'
p507
sS'order'
p508
F1523903980.666612
sS'objid'
p509
g8
(g12
S'\x11\x00\x00\x00\x00\x00\x00\x00'
p510
tp511
Rp512
sa(dp513
S'action'
p514
S'delete'
p515
sS'order'
p516
F1523903980.670991
sS'objid'
p517
g8
(g12
S'\x10\x00\x00\x00\x00\x00\x00\x00'
p518
tp519
Rp520
sa(dp521
S'action'
p522
S'delete'
p523
sS'order'
p524
F1523903980.675434
sS'objid'
p525
g8
(g12
S'\x0f\x00\x00\x00\x00\x00\x00\x00'
p526
tp527
Rp528
sa(dp529
S'action'
p530
S'delete'
p531
sS'order'
p532
F1523903980.67996
sS'objid'
p533
g8
(g12
S'\r\x00\x00\x00\x00\x00\x00\x00'
p534
tp535
Rp536
sa(dp537
S'action'
p538
S'delete'
p539
sS'order'
p540
F1523903980.684565
sS'objid'
p541
g8
(g12
S'\x0c\x00\x00\x00\x00\x00\x00\x00'
p542
tp543
Rp544
sa(dp545
S'action'
p546
S'delete'
p547
sS'order'
p548
F1523903980.689172
sS'objid'
p549
g8
(g12
S'\x0b\x00\x00\x00\x00\x00\x00\x00'
p550
tp551
Rp552
sa(dp553
S'action'
p554
S'delete'
p555
sS'order'
p556
F1523903980.693815
sS'objid'
p557
g8
(g12
S'\n\x00\x00\x00\x00\x00\x00\x00'
p558
tp559
Rp560
sa(dp561
S'action'
p562
S'delete'
p563
sS'order'
p564
F1523903980.698505
sS'objid'
p565
g8
(g12
S'\t\x00\x00\x00\x00\x00\x00\x00'
p566
tp567
Rp568
sa(dp569
S'action'
p570
S'delete'
p571
sS'order'
p572
F1523903980.703297
sS'objid'
p573
g8
(g12
S'\x08\x00\x00\x00\x00\x00\x00\x00'
p574
tp575
Rp576
sa(dp577
S'action'
p578
S'delete'
p579
sS'order'
p580
F1523903980.708092
sS'objid'
p581
g8
(g12
S'\x06\x00\x00\x00\x00\x00\x00\x00'
p582
tp583
Rp584
sa(dp585
S'action'
p586
S'delete'
p587
sS'order'
p588
F1523903980.712972
sS'objid'
p589
g8
(g12
S'\x04\x00\x00\x00\x00\x00\x00\x00'
p590
tp591
Rp592
sa(dp593
S'action'
p594
S'delete'
p595
sS'order'
p596
F1523903980.718018
sS'objid'
p597
g8
(g12
S'\x03\x00\x00\x00\x00\x00\x00\x00'
p598
tp599
Rp600
sa(dp601
S'action'
p602
S'delete'
p603
sS'order'
p604
F1523903980.72301
sS'objid'
p605
g8
(g12
S'\x02\x00\x00\x00\x00\x00\x00\x00'
p606
tp607
Rp608
sa(dp609
S'action'
p610
S'delete'
p611
sS'order'
p612
F1523903980.728075
sS'objid'
p613
g8
(g12
S'\x01\x00\x00\x00\x00\x00\x00\x00'
p614
tp615
Rp616
sa.