(lp0
(dp1
S'action'
p2
S'delete'
p3
sS'order'
p4
F1523924298.625633
sS'objid'
p5
cnumpy.core.multiarray
scalar
p6
(cnumpy
dtype
p7
(S'i8'
p8
I0
I1
tp9
Rp10
(I3
S'<'
p11
NNNI-1
I-1
I0
tp12
bS'2\x00\x00\x00\x00\x00\x00\x00'
p13
tp14
Rp15
sa(dp16
S'action'
p17
S'delete'
p18
sS'order'
p19
F1523924298.62711
sS'objid'
p20
g6
(g10
S'1\x00\x00\x00\x00\x00\x00\x00'
p21
tp22
Rp23
sa(dp24
S'action'
p25
S'delete'
p26
sS'order'
p27
F1523924298.628619
sS'objid'
p28
g6
(g10
S'0\x00\x00\x00\x00\x00\x00\x00'
p29
tp30
Rp31
sa(dp32
S'action'
p33
S'delete'
p34
sS'order'
p35
F1523924298.630184
sS'objid'
p36
g6
(g10
S'/\x00\x00\x00\x00\x00\x00\x00'
p37
tp38
Rp39
sa(dp40
S'action'
p41
S'delete'
p42
sS'order'
p43
F1523924298.631839
sS'objid'
p44
g6
(g10
S'.\x00\x00\x00\x00\x00\x00\x00'
p45
tp46
Rp47
sa(dp48
S'action'
p49
S'delete'
p50
sS'order'
p51
F1523924298.633701
sS'objid'
p52
g6
(g10
S'-\x00\x00\x00\x00\x00\x00\x00'
p53
tp54
Rp55
sa(dp56
S'action'
p57
S'delete'
p58
sS'order'
p59
F1523924298.635443
sS'objid'
p60
g6
(g10
S',\x00\x00\x00\x00\x00\x00\x00'
p61
tp62
Rp63
sa(dp64
S'action'
p65
S'delete'
p66
sS'order'
p67
F1523924298.636929
sS'objid'
p68
g6
(g10
S'+\x00\x00\x00\x00\x00\x00\x00'
p69
tp70
Rp71
sa(dp72
S'action'
p73
S'delete'
p74
sS'order'
p75
F1523924298.638869
sS'objid'
p76
g6
(g10
S'*\x00\x00\x00\x00\x00\x00\x00'
p77
tp78
Rp79
sa(dp80
S'action'
p81
S'delete'
p82
sS'order'
p83
F1523924298.640051
sS'objid'
p84
g6
(g10
S')\x00\x00\x00\x00\x00\x00\x00'
p85
tp86
Rp87
sa(dp88
S'action'
p89
S'delete'
p90
sS'order'
p91
F1523924298.641276
sS'objid'
p92
g6
(g10
S'(\x00\x00\x00\x00\x00\x00\x00'
p93
tp94
Rp95
sa(dp96
S'action'
p97
S'delete'
p98
sS'order'
p99
F1523924298.642557
sS'objid'
p100
g6
(g10
S"'\x00\x00\x00\x00\x00\x00\x00"
p101
tp102
Rp103
sa(dp104
S'action'
p105
S'delete'
p106
sS'order'
p107
F1523924298.643915
sS'objid'
p108
g6
(g10
S'&\x00\x00\x00\x00\x00\x00\x00'
p109
tp110
Rp111
sa(dp112
S'action'
p113
S'delete'
p114
sS'order'
p115
F1523924298.645318
sS'objid'
p116
g6
(g10
S'%\x00\x00\x00\x00\x00\x00\x00'
p117
tp118
Rp119
sa(dp120
S'action'
p121
S'delete'
p122
sS'order'
p123
F1523924298.6468
sS'objid'
p124
g6
(g10
S'$\x00\x00\x00\x00\x00\x00\x00'
p125
tp126
Rp127
sa(dp128
S'action'
p129
S'delete'
p130
sS'order'
p131
F1523924298.648337
sS'objid'
p132
g6
(g10
S'#\x00\x00\x00\x00\x00\x00\x00'
p133
tp134
Rp135
sa(dp136
S'action'
p137
S'delete'
p138
sS'order'
p139
F1523924298.649954
sS'objid'
p140
g6
(g10
S'"\x00\x00\x00\x00\x00\x00\x00'
p141
tp142
Rp143
sa(dp144
S'action'
p145
S'delete'
p146
sS'order'
p147
F1523924298.651602
sS'objid'
p148
g6
(g10
S'!\x00\x00\x00\x00\x00\x00\x00'
p149
tp150
Rp151
sa(dp152
S'action'
p153
S'delete'
p154
sS'order'
p155
F1523924298.6533
sS'objid'
p156
g6
(g10
S' \x00\x00\x00\x00\x00\x00\x00'
p157
tp158
Rp159
sa(dp160
S'action'
p161
S'delete'
p162
sS'order'
p163
F1523924298.65506
sS'objid'
p164
g6
(g10
S'\x1f\x00\x00\x00\x00\x00\x00\x00'
p165
tp166
Rp167
sa(dp168
S'action'
p169
S'delete'
p170
sS'order'
p171
F1523924298.657397
sS'objid'
p172
g6
(g10
S'\x1e\x00\x00\x00\x00\x00\x00\x00'
p173
tp174
Rp175
sa(dp176
S'action'
p177
S'delete'
p178
sS'order'
p179
F1523924298.65953
sS'objid'
p180
g6
(g10
S'\x1d\x00\x00\x00\x00\x00\x00\x00'
p181
tp182
Rp183
sa(dp184
S'action'
p185
S'delete'
p186
sS'order'
p187
F1523924298.661471
sS'objid'
p188
g6
(g10
S'\x1c\x00\x00\x00\x00\x00\x00\x00'
p189
tp190
Rp191
sa(dp192
S'action'
p193
S'delete'
p194
sS'order'
p195
F1523924298.663488
sS'objid'
p196
g6
(g10
S'\x1b\x00\x00\x00\x00\x00\x00\x00'
p197
tp198
Rp199
sa(dp200
S'action'
p201
S'delete'
p202
sS'order'
p203
F1523924298.665556
sS'objid'
p204
g6
(g10
S'\x1a\x00\x00\x00\x00\x00\x00\x00'
p205
tp206
Rp207
sa(dp208
S'action'
p209
S'delete'
p210
sS'order'
p211
F1523924298.667817
sS'objid'
p212
g6
(g10
S'\x19\x00\x00\x00\x00\x00\x00\x00'
p213
tp214
Rp215
sa(dp216
S'action'
p217
S'delete'
p218
sS'order'
p219
F1523924298.669971
sS'objid'
p220
g6
(g10
S'\x18\x00\x00\x00\x00\x00\x00\x00'
p221
tp222
Rp223
sa(dp224
S'action'
p225
S'delete'
p226
sS'order'
p227
F1523924298.672231
sS'objid'
p228
g6
(g10
S'\x17\x00\x00\x00\x00\x00\x00\x00'
p229
tp230
Rp231
sa(dp232
S'action'
p233
S'delete'
p234
sS'order'
p235
F1523924298.676825
sS'objid'
p236
g6
(g10
S'\x16\x00\x00\x00\x00\x00\x00\x00'
p237
tp238
Rp239
sa(dp240
S'action'
p241
S'delete'
p242
sS'order'
p243
F1523924298.680506
sS'objid'
p244
g6
(g10
S'\x15\x00\x00\x00\x00\x00\x00\x00'
p245
tp246
Rp247
sa(dp248
S'action'
p249
S'delete'
p250
sS'order'
p251
F1523924298.682922
sS'objid'
p252
g6
(g10
S'\x14\x00\x00\x00\x00\x00\x00\x00'
p253
tp254
Rp255
sa(dp256
S'action'
p257
S'delete'
p258
sS'order'
p259
F1523924298.68539
sS'objid'
p260
g6
(g10
S'\x13\x00\x00\x00\x00\x00\x00\x00'
p261
tp262
Rp263
sa(dp264
S'action'
p265
S'delete'
p266
sS'order'
p267
F1523924298.687914
sS'objid'
p268
g6
(g10
S'\x12\x00\x00\x00\x00\x00\x00\x00'
p269
tp270
Rp271
sa(dp272
S'action'
p273
S'delete'
p274
sS'order'
p275
F1523924298.690487
sS'objid'
p276
g6
(g10
S'\x11\x00\x00\x00\x00\x00\x00\x00'
p277
tp278
Rp279
sa(dp280
S'action'
p281
S'delete'
p282
sS'order'
p283
F1523924298.693115
sS'objid'
p284
g6
(g10
S'\x10\x00\x00\x00\x00\x00\x00\x00'
p285
tp286
Rp287
sa(dp288
S'action'
p289
S'delete'
p290
sS'order'
p291
F1523924298.695828
sS'objid'
p292
g6
(g10
S'\x0f\x00\x00\x00\x00\x00\x00\x00'
p293
tp294
Rp295
sa(dp296
S'action'
p297
S'delete'
p298
sS'order'
p299
F1523924298.698589
sS'objid'
p300
g6
(g10
S'\x0e\x00\x00\x00\x00\x00\x00\x00'
p301
tp302
Rp303
sa(dp304
S'action'
p305
S'delete'
p306
sS'order'
p307
F1523924298.701516
sS'objid'
p308
g6
(g10
S'\r\x00\x00\x00\x00\x00\x00\x00'
p309
tp310
Rp311
sa(dp312
S'action'
p313
S'delete'
p314
sS'order'
p315
F1523924298.704385
sS'objid'
p316
g6
(g10
S'\x0c\x00\x00\x00\x00\x00\x00\x00'
p317
tp318
Rp319
sa(dp320
S'action'
p321
S'delete'
p322
sS'order'
p323
F1523924298.707378
sS'objid'
p324
g6
(g10
S'\x0b\x00\x00\x00\x00\x00\x00\x00'
p325
tp326
Rp327
sa(dp328
S'action'
p329
S'delete'
p330
sS'order'
p331
F1523924298.710517
sS'objid'
p332
g6
(g10
S'\n\x00\x00\x00\x00\x00\x00\x00'
p333
tp334
Rp335
sa(dp336
S'action'
p337
S'delete'
p338
sS'order'
p339
F1523924298.713591
sS'objid'
p340
g6
(g10
S'\t\x00\x00\x00\x00\x00\x00\x00'
p341
tp342
Rp343
sa(dp344
S'action'
p345
S'delete'
p346
sS'order'
p347
F1523924298.717604
sS'objid'
p348
g6
(g10
S'\x08\x00\x00\x00\x00\x00\x00\x00'
p349
tp350
Rp351
sa(dp352
S'action'
p353
S'delete'
p354
sS'order'
p355
F1523924298.72414
sS'objid'
p356
g6
(g10
S'\x07\x00\x00\x00\x00\x00\x00\x00'
p357
tp358
Rp359
sa(dp360
S'action'
p361
S'delete'
p362
sS'order'
p363
F1523924298.73028
sS'objid'
p364
g6
(g10
S'\x06\x00\x00\x00\x00\x00\x00\x00'
p365
tp366
Rp367
sa(dp368
S'action'
p369
S'delete'
p370
sS'order'
p371
F1523924298.733608
sS'objid'
p372
g6
(g10
S'\x05\x00\x00\x00\x00\x00\x00\x00'
p373
tp374
Rp375
sa(dp376
S'action'
p377
S'delete'
p378
sS'order'
p379
F1523924298.736975
sS'objid'
p380
g6
(g10
S'\x04\x00\x00\x00\x00\x00\x00\x00'
p381
tp382
Rp383
sa(dp384
S'action'
p385
S'delete'
p386
sS'order'
p387
F1523924298.740389
sS'objid'
p388
g6
(g10
S'\x03\x00\x00\x00\x00\x00\x00\x00'
p389
tp390
Rp391
sa(dp392
S'action'
p393
S'delete'
p394
sS'order'
p395
F1523924298.743861
sS'objid'
p396
g6
(g10
S'\x02\x00\x00\x00\x00\x00\x00\x00'
p397
tp398
Rp399
sa(dp400
S'action'
p401
S'delete'
p402
sS'order'
p403
F1523924298.747414
sS'objid'
p404
g6
(g10
S'\x01\x00\x00\x00\x00\x00\x00\x00'
p405
tp406
Rp407
sa.