(lp0
(dp1
S'action'
p2
S'delete'
p3
sS'order'
p4
F1523909235.700902
sS'objid'
p5
cnumpy.core.multiarray
scalar
p6
(cnumpy
dtype
p7
(S'i8'
p8
I0
I1
tp9
Rp10
(I3
S'<'
p11
NNNI-1
I-1
I0
tp12
bS'\x02\x00\x00\x00\x00\x00\x00\x00'
p13
tp14
Rp15
sa(dp16
S'action'
p17
S'delete'
p18
sS'order'
p19
F1523909235.702882
sS'objid'
p20
g6
(g10
S'\x01\x00\x00\x00\x00\x00\x00\x00'
p21
tp22
Rp23
sa.