(lp0
(dp1
S'action'
p2
S'join'
p3
sS'data_to_add'
p4
(lp5
sS'order'
p6
F1523915618.215655
sS'new_objid'
p7
cnumpy.core.multiarray
scalar
p8
(cnumpy
dtype
p9
(S'i8'
p10
I0
I1
tp11
Rp12
(I3
S'<'
p13
NNNI-1
I-1
I0
tp14
bS'\x1f\x00\x00\x00\x00\x00\x00\x00'
p15
tp16
Rp17
sS'objids'
p18
(lp19
g8
(g12
S'\x02\x00\x00\x00\x00\x00\x00\x00'
p20
tp21
Rp22
ag8
(g12
S'\x00\x00\x00\x00\x00\x00\x00\x00'
p23
tp24
Rp25
asa(dp26
S'action'
p27
S'join'
p28
sS'data_to_add'
p29
(lp30
sS'order'
p31
F1523915623.516673
sS'new_objid'
p32
g8
(g12
S' \x00\x00\x00\x00\x00\x00\x00'
p33
tp34
Rp35
sS'objids'
p36
(lp37
g8
(g12
S'\x1f\x00\x00\x00\x00\x00\x00\x00'
p38
tp39
Rp40
ag8
(g12
S'\x03\x00\x00\x00\x00\x00\x00\x00'
p41
tp42
Rp43
asa(dp44
S'action'
p45
S'join'
p46
sS'data_to_add'
p47
(lp48
sS'order'
p49
F1523915631.628915
sS'new_objid'
p50
g8
(g12
S'!\x00\x00\x00\x00\x00\x00\x00'
p51
tp52
Rp53
sS'objids'
p54
(lp55
g8
(g12
S'\x0e\x00\x00\x00\x00\x00\x00\x00'
p56
tp57
Rp58
ag8
(g12
S' \x00\x00\x00\x00\x00\x00\x00'
p59
tp60
Rp61
ag8
(g12
S'\r\x00\x00\x00\x00\x00\x00\x00'
p62
tp63
Rp64
asa(dp65
S'action'
p66
S'delete'
p67
sS'order'
p68
F1523915640.869606
sS'objid'
p69
g8
(g12
S'\x14\x00\x00\x00\x00\x00\x00\x00'
p70
tp71
Rp72
sa(dp73
S'action'
p74
S'delete'
p75
sS'order'
p76
F1523915640.871943
sS'objid'
p77
g8
(g12
S'\x13\x00\x00\x00\x00\x00\x00\x00'
p78
tp79
Rp80
sa(dp81
S'action'
p82
S'delete'
p83
sS'order'
p84
F1523915640.87357
sS'objid'
p85
g8
(g12
S'\x12\x00\x00\x00\x00\x00\x00\x00'
p86
tp87
Rp88
sa(dp89
S'action'
p90
S'delete'
p91
sS'order'
p92
F1523915640.875274
sS'objid'
p93
g8
(g12
S'\x11\x00\x00\x00\x00\x00\x00\x00'
p94
tp95
Rp96
sa(dp97
S'action'
p98
S'delete'
p99
sS'order'
p100
F1523915640.877085
sS'objid'
p101
g8
(g12
S'\x10\x00\x00\x00\x00\x00\x00\x00'
p102
tp103
Rp104
sa(dp105
S'action'
p106
S'delete'
p107
sS'order'
p108
F1523915640.878928
sS'objid'
p109
g8
(g12
S'\x0f\x00\x00\x00\x00\x00\x00\x00'
p110
tp111
Rp112
sa(dp113
S'action'
p114
S'delete'
p115
sS'order'
p116
F1523915640.881017
sS'objid'
p117
g8
(g12
S'\x0c\x00\x00\x00\x00\x00\x00\x00'
p118
tp119
Rp120
sa(dp121
S'action'
p122
S'delete'
p123
sS'order'
p124
F1523915640.883095
sS'objid'
p125
g8
(g12
S'\x0b\x00\x00\x00\x00\x00\x00\x00'
p126
tp127
Rp128
sa(dp129
S'action'
p130
S'delete'
p131
sS'order'
p132
F1523915640.884723
sS'objid'
p133
g8
(g12
S'\n\x00\x00\x00\x00\x00\x00\x00'
p134
tp135
Rp136
sa(dp137
S'action'
p138
S'delete'
p139
sS'order'
p140
F1523915640.886375
sS'objid'
p141
g8
(g12
S'\t\x00\x00\x00\x00\x00\x00\x00'
p142
tp143
Rp144
sa(dp145
S'action'
p146
S'delete'
p147
sS'order'
p148
F1523915640.888068
sS'objid'
p149
g8
(g12
S'\x08\x00\x00\x00\x00\x00\x00\x00'
p150
tp151
Rp152
sa(dp153
S'action'
p154
S'delete'
p155
sS'order'
p156
F1523915640.889822
sS'objid'
p157
g8
(g12
S'\x07\x00\x00\x00\x00\x00\x00\x00'
p158
tp159
Rp160
sa(dp161
S'action'
p162
S'delete'
p163
sS'order'
p164
F1523915640.891625
sS'objid'
p165
g8
(g12
S'\x06\x00\x00\x00\x00\x00\x00\x00'
p166
tp167
Rp168
sa(dp169
S'action'
p170
S'delete'
p171
sS'order'
p172
F1523915640.893524
sS'objid'
p173
g8
(g12
S'\x05\x00\x00\x00\x00\x00\x00\x00'
p174
tp175
Rp176
sa(dp177
S'action'
p178
S'delete'
p179
sS'order'
p180
F1523915640.895453
sS'objid'
p181
g8
(g12
S'\x04\x00\x00\x00\x00\x00\x00\x00'
p182
tp183
Rp184
sa(dp185
S'action'
p186
S'delete'
p187
sS'order'
p188
F1523915640.897432
sS'objid'
p189
g8
(g12
S'\x01\x00\x00\x00\x00\x00\x00\x00'
p190
tp191
Rp192
sa.