(lp0
(dp1
S'action'
p2
S'join'
p3
sS'data_to_add'
p4
(lp5
sS'order'
p6
F1523915937.17468
sS'new_objid'
p7
cnumpy.core.multiarray
scalar
p8
(cnumpy
dtype
p9
(S'i8'
p10
I0
I1
tp11
Rp12
(I3
S'<'
p13
NNNI-1
I-1
I0
tp14
bS'\xd1\x00\x00\x00\x00\x00\x00\x00'
p15
tp16
Rp17
sS'objids'
p18
(lp19
g8
(g12
S'-\x00\x00\x00\x00\x00\x00\x00'
p20
tp21
Rp22
ag8
(g12
S'\x01\x00\x00\x00\x00\x00\x00\x00'
p23
tp24
Rp25
asa(dp26
S'cut_frame_global'
p27
I1429
sS'cut_time_epoch'
p28
g8
(g9
(S'f8'
p29
I0
I1
tp30
Rp31
(I3
S'<'
p32
NNNI-1
I-1
I0
tp33
bS'ocJ\xd4\x86\xb4\xd6A'
p34
tp35
Rp36
sS'cut_frame_trajectory'
p37
g8
(g12
S'y\x05\x00\x00\x00\x00\x00\x00'
p38
tp39
Rp40
sS'objid'
p41
g8
(g12
S'\x04\x00\x00\x00\x00\x00\x00\x00'
p42
tp43
Rp44
sS'action'
p45
S'cut'
p46
sS'order'
p47
F1523915956.660402
sS'new_objid'
p48
g8
(g12
S'\xd3\x00\x00\x00\x00\x00\x00\x00'
p49
tp50
Rp51
sa(dp52
g27
I745
sg28
g8
(g31
S'\xcf\xc90\xc3\x86\xb4\xd6A'
p53
tp54
Rp55
sg37
g8
(g12
S'\xcd\x02\x00\x00\x00\x00\x00\x00'
p56
tp57
Rp58
sg41
g8
(g12
S'\x04\x00\x00\x00\x00\x00\x00\x00'
p59
tp60
Rp61
sg45
g46
sg47
F1523915957.855123
sg48
g8
(g12
S'\xd4\x00\x00\x00\x00\x00\x00\x00'
p62
tp63
Rp64
sa(dp65
g45
S'join'
p66
sS'data_to_add'
p67
(lp68
sg47
F1523915964.042694
sg48
g8
(g12
S'\xd5\x00\x00\x00\x00\x00\x00\x00'
p69
tp70
Rp71
sS'objids'
p72
(lp73
g8
(g12
S'\xd4\x00\x00\x00\x00\x00\x00\x00'
p74
tp75
Rp76
ag8
(g12
S'\xd1\x00\x00\x00\x00\x00\x00\x00'
p77
tp78
Rp79
asa(dp80
g27
I912
sg28
g8
(g31
S':\x97]\xc7\x86\xb4\xd6A'
p81
tp82
Rp83
sg37
g8
(g12
S'\x85\x03\x00\x00\x00\x00\x00\x00'
p84
tp85
Rp86
sg41
g8
(g12
S'\xd5\x00\x00\x00\x00\x00\x00\x00'
p87
tp88
Rp89
sg45
g46
sg47
F1523915983.276839
sg48
g8
(g12
S'\xd6\x00\x00\x00\x00\x00\x00\x00'
p90
tp91
Rp92
sa(dp93
g45
g66
sg67
(lp94
sg47
F1523915988.515187
sg48
g8
(g12
S'\xd7\x00\x00\x00\x00\x00\x00\x00'
p95
tp96
Rp97
sg72
(lp98
g8
(g12
S'\xd5\x00\x00\x00\x00\x00\x00\x00'
p99
tp100
Rp101
ag8
(g12
S'\\\x00\x00\x00\x00\x00\x00\x00'
p102
tp103
Rp104
asa(dp105
S'cut_frame_global'
p106
I937
sS'cut_time_epoch'
p107
g8
(g31
S'\xa1\x96\xfd\xc7\x86\xb4\xd6A'
p108
tp109
Rp110
sS'cut_frame_trajectory'
p111
g8
(g12
S'\x9e\x03\x00\x00\x00\x00\x00\x00'
p112
tp113
Rp114
sS'objid'
p115
g8
(g12
S'\xd7\x00\x00\x00\x00\x00\x00\x00'
p116
tp117
Rp118
sS'action'
p119
S'cut'
p120
sS'order'
p121
F1523916022.662232
sS'new_objid'
p122
g8
(g12
S'\xdc\x00\x00\x00\x00\x00\x00\x00'
p123
tp124
Rp125
sa(dp126
S'action'
p127
S'join'
p128
sS'data_to_add'
p129
(lp130
sS'order'
p131
F1523916029.004349
sS'new_objid'
p132
g8
(g12
S'\xdd\x00\x00\x00\x00\x00\x00\x00'
p133
tp134
Rp135
sS'objids'
p136
(lp137
g8
(g12
S'^\x00\x00\x00\x00\x00\x00\x00'
p138
tp139
Rp140
ag8
(g12
S'\xd7\x00\x00\x00\x00\x00\x00\x00'
p141
tp142
Rp143
asa(dp144
S'action'
p145
S'join'
p146
sS'data_to_add'
p147
(lp148
sS'order'
p149
F1523916039.284163
sS'new_objid'
p150
g8
(g12
S'\xde\x00\x00\x00\x00\x00\x00\x00'
p151
tp152
Rp153
sS'objids'
p154
(lp155
g8
(g12
S'\xdd\x00\x00\x00\x00\x00\x00\x00'
p156
tp157
Rp158
ag8
(g12
S'u\x00\x00\x00\x00\x00\x00\x00'
p159
tp160
Rp161
asa(dp162
S'action'
p163
S'join'
p164
sS'data_to_add'
p165
(lp166
sS'order'
p167
F1523916054.276676
sS'new_objid'
p168
g8
(g12
S'\xdf\x00\x00\x00\x00\x00\x00\x00'
p169
tp170
Rp171
sS'objids'
p172
(lp173
g8
(g12
S'\xd3\x00\x00\x00\x00\x00\x00\x00'
p174
tp175
Rp176
ag8
(g12
S'\xde\x00\x00\x00\x00\x00\x00\x00'
p177
tp178
Rp179
asa(dp180
S'action'
p181
S'join'
p182
sS'data_to_add'
p183
(lp184
sS'order'
p185
F1523916061.05308
sS'new_objid'
p186
g8
(g12
S'\xe0\x00\x00\x00\x00\x00\x00\x00'
p187
tp188
Rp189
sS'objids'
p190
(lp191
g8
(g12
S'\xa0\x00\x00\x00\x00\x00\x00\x00'
p192
tp193
Rp194
ag8
(g12
S'\xdf\x00\x00\x00\x00\x00\x00\x00'
p195
tp196
Rp197
asa(dp198
S'action'
p199
S'join'
p200
sS'data_to_add'
p201
(lp202
sS'order'
p203
F1523916070.484006
sS'new_objid'
p204
g8
(g12
S'\xe1\x00\x00\x00\x00\x00\x00\x00'
p205
tp206
Rp207
sS'objids'
p208
(lp209
g8
(g12
S'\xe0\x00\x00\x00\x00\x00\x00\x00'
p210
tp211
Rp212
ag8
(g12
S'\xa9\x00\x00\x00\x00\x00\x00\x00'
p213
tp214
Rp215
asa(dp216
S'action'
p217
S'delete'
p218
sS'order'
p219
F1523916093.053737
sS'objid'
p220
g8
(g12
S'\xd6\x00\x00\x00\x00\x00\x00\x00'
p221
tp222
Rp223
sa(dp224
S'action'
p225
S'delete'
p226
sS'order'
p227
F1523916093.059075
sS'objid'
p228
g8
(g12
S'\xc6\x00\x00\x00\x00\x00\x00\x00'
p229
tp230
Rp231
sa(dp232
S'action'
p233
S'delete'
p234
sS'order'
p235
F1523916093.064793
sS'objid'
p236
g8
(g12
S'\xc5\x00\x00\x00\x00\x00\x00\x00'
p237
tp238
Rp239
sa(dp240
S'action'
p241
S'delete'
p242
sS'order'
p243
F1523916093.067567
sS'objid'
p244
g8
(g12
S'\xc4\x00\x00\x00\x00\x00\x00\x00'
p245
tp246
Rp247
sa(dp248
S'action'
p249
S'delete'
p250
sS'order'
p251
F1523916093.070321
sS'objid'
p252
g8
(g12
S'\xc3\x00\x00\x00\x00\x00\x00\x00'
p253
tp254
Rp255
sa(dp256
S'action'
p257
S'delete'
p258
sS'order'
p259
F1523916093.073191
sS'objid'
p260
g8
(g12
S'\xc2\x00\x00\x00\x00\x00\x00\x00'
p261
tp262
Rp263
sa(dp264
S'action'
p265
S'delete'
p266
sS'order'
p267
F1523916093.076107
sS'objid'
p268
g8
(g12
S'\xc1\x00\x00\x00\x00\x00\x00\x00'
p269
tp270
Rp271
sa(dp272
S'action'
p273
S'delete'
p274
sS'order'
p275
F1523916093.080454
sS'objid'
p276
g8
(g12
S'\xc0\x00\x00\x00\x00\x00\x00\x00'
p277
tp278
Rp279
sa(dp280
S'action'
p281
S'delete'
p282
sS'order'
p283
F1523916093.0837
sS'objid'
p284
g8
(g12
S'\xbf\x00\x00\x00\x00\x00\x00\x00'
p285
tp286
Rp287
sa(dp288
S'action'
p289
S'delete'
p290
sS'order'
p291
F1523916093.08677
sS'objid'
p292
g8
(g12
S'\xbe\x00\x00\x00\x00\x00\x00\x00'
p293
tp294
Rp295
sa(dp296
S'action'
p297
S'delete'
p298
sS'order'
p299
F1523916093.08994
sS'objid'
p300
g8
(g12
S'\xbd\x00\x00\x00\x00\x00\x00\x00'
p301
tp302
Rp303
sa(dp304
S'action'
p305
S'delete'
p306
sS'order'
p307
F1523916093.09315
sS'objid'
p308
g8
(g12
S'\xbc\x00\x00\x00\x00\x00\x00\x00'
p309
tp310
Rp311
sa(dp312
S'action'
p313
S'delete'
p314
sS'order'
p315
F1523916093.097312
sS'objid'
p316
g8
(g12
S'\xbb\x00\x00\x00\x00\x00\x00\x00'
p317
tp318
Rp319
sa(dp320
S'action'
p321
S'delete'
p322
sS'order'
p323
F1523916093.100754
sS'objid'
p324
g8
(g12
S'\xba\x00\x00\x00\x00\x00\x00\x00'
p325
tp326
Rp327
sa(dp328
S'action'
p329
S'delete'
p330
sS'order'
p331
F1523916093.104114
sS'objid'
p332
g8
(g12
S'\xb9\x00\x00\x00\x00\x00\x00\x00'
p333
tp334
Rp335
sa(dp336
S'action'
p337
S'delete'
p338
sS'order'
p339
F1523916093.107662
sS'objid'
p340
g8
(g12
S'\xb8\x00\x00\x00\x00\x00\x00\x00'
p341
tp342
Rp343
sa(dp344
S'action'
p345
S'delete'
p346
sS'order'
p347
F1523916093.111148
sS'objid'
p348
g8
(g12
S'\xb7\x00\x00\x00\x00\x00\x00\x00'
p349
tp350
Rp351
sa(dp352
S'action'
p353
S'delete'
p354
sS'order'
p355
F1523916093.114708
sS'objid'
p356
g8
(g12
S'\xb6\x00\x00\x00\x00\x00\x00\x00'
p357
tp358
Rp359
sa(dp360
S'action'
p361
S'delete'
p362
sS'order'
p363
F1523916093.118343
sS'objid'
p364
g8
(g12
S'\xb5\x00\x00\x00\x00\x00\x00\x00'
p365
tp366
Rp367
sa(dp368
S'action'
p369
S'delete'
p370
sS'order'
p371
F1523916093.122098
sS'objid'
p372
g8
(g12
S'\xb4\x00\x00\x00\x00\x00\x00\x00'
p373
tp374
Rp375
sa(dp376
S'action'
p377
S'delete'
p378
sS'order'
p379
F1523916093.125898
sS'objid'
p380
g8
(g12
S'\xb3\x00\x00\x00\x00\x00\x00\x00'
p381
tp382
Rp383
sa(dp384
S'action'
p385
S'delete'
p386
sS'order'
p387
F1523916093.129764
sS'objid'
p388
g8
(g12
S'\xb2\x00\x00\x00\x00\x00\x00\x00'
p389
tp390
Rp391
sa(dp392
S'action'
p393
S'delete'
p394
sS'order'
p395
F1523916093.133689
sS'objid'
p396
g8
(g12
S'\xb1\x00\x00\x00\x00\x00\x00\x00'
p397
tp398
Rp399
sa(dp400
S'action'
p401
S'delete'
p402
sS'order'
p403
F1523916093.137705
sS'objid'
p404
g8
(g12
S'\xb0\x00\x00\x00\x00\x00\x00\x00'
p405
tp406
Rp407
sa(dp408
S'action'
p409
S'delete'
p410
sS'order'
p411
F1523916093.141711
sS'objid'
p412
g8
(g12
S'\xaf\x00\x00\x00\x00\x00\x00\x00'
p413
tp414
Rp415
sa(dp416
S'action'
p417
S'delete'
p418
sS'order'
p419
F1523916093.149073
sS'objid'
p420
g8
(g12
S'\xae\x00\x00\x00\x00\x00\x00\x00'
p421
tp422
Rp423
sa(dp424
S'action'
p425
S'delete'
p426
sS'order'
p427
F1523916093.153169
sS'objid'
p428
g8
(g12
S'\xad\x00\x00\x00\x00\x00\x00\x00'
p429
tp430
Rp431
sa(dp432
S'action'
p433
S'delete'
p434
sS'order'
p435
F1523916093.157347
sS'objid'
p436
g8
(g12
S'\xac\x00\x00\x00\x00\x00\x00\x00'
p437
tp438
Rp439
sa(dp440
S'action'
p441
S'delete'
p442
sS'order'
p443
F1523916093.161587
sS'objid'
p444
g8
(g12
S'\xab\x00\x00\x00\x00\x00\x00\x00'
p445
tp446
Rp447
sa(dp448
S'action'
p449
S'delete'
p450
sS'order'
p451
F1523916093.16587
sS'objid'
p452
g8
(g12
S'\xaa\x00\x00\x00\x00\x00\x00\x00'
p453
tp454
Rp455
sa(dp456
S'action'
p457
S'delete'
p458
sS'order'
p459
F1523916093.170221
sS'objid'
p460
g8
(g12
S'\xa8\x00\x00\x00\x00\x00\x00\x00'
p461
tp462
Rp463
sa(dp464
S'action'
p465
S'delete'
p466
sS'order'
p467
F1523916093.174667
sS'objid'
p468
g8
(g12
S'\xa7\x00\x00\x00\x00\x00\x00\x00'
p469
tp470
Rp471
sa(dp472
S'action'
p473
S'delete'
p474
sS'order'
p475
F1523916093.179125
sS'objid'
p476
g8
(g12
S'\xa6\x00\x00\x00\x00\x00\x00\x00'
p477
tp478
Rp479
sa(dp480
S'action'
p481
S'delete'
p482
sS'order'
p483
F1523916093.183677
sS'objid'
p484
g8
(g12
S'\xa5\x00\x00\x00\x00\x00\x00\x00'
p485
tp486
Rp487
sa(dp488
S'action'
p489
S'delete'
p490
sS'order'
p491
F1523916093.188271
sS'objid'
p492
g8
(g12
S'\xa4\x00\x00\x00\x00\x00\x00\x00'
p493
tp494
Rp495
sa(dp496
S'action'
p497
S'delete'
p498
sS'order'
p499
F1523916093.192931
sS'objid'
p500
g8
(g12
S'\xa3\x00\x00\x00\x00\x00\x00\x00'
p501
tp502
Rp503
sa(dp504
S'action'
p505
S'delete'
p506
sS'order'
p507
F1523916093.19768
sS'objid'
p508
g8
(g12
S'\xa2\x00\x00\x00\x00\x00\x00\x00'
p509
tp510
Rp511
sa(dp512
S'action'
p513
S'delete'
p514
sS'order'
p515
F1523916093.202482
sS'objid'
p516
g8
(g12
S'\xa1\x00\x00\x00\x00\x00\x00\x00'
p517
tp518
Rp519
sa(dp520
S'action'
p521
S'delete'
p522
sS'order'
p523
F1523916093.20734
sS'objid'
p524
g8
(g12
S'\x9f\x00\x00\x00\x00\x00\x00\x00'
p525
tp526
Rp527
sa(dp528
S'action'
p529
S'delete'
p530
sS'order'
p531
F1523916093.212282
sS'objid'
p532
g8
(g12
S'\x9e\x00\x00\x00\x00\x00\x00\x00'
p533
tp534
Rp535
sa(dp536
S'action'
p537
S'delete'
p538
sS'order'
p539
F1523916093.217236
sS'objid'
p540
g8
(g12
S'\x9d\x00\x00\x00\x00\x00\x00\x00'
p541
tp542
Rp543
sa(dp544
S'action'
p545
S'delete'
p546
sS'order'
p547
F1523916093.222285
sS'objid'
p548
g8
(g12
S'\x9c\x00\x00\x00\x00\x00\x00\x00'
p549
tp550
Rp551
sa(dp552
S'action'
p553
S'delete'
p554
sS'order'
p555
F1523916093.227444
sS'objid'
p556
g8
(g12
S'\x9b\x00\x00\x00\x00\x00\x00\x00'
p557
tp558
Rp559
sa(dp560
S'action'
p561
S'delete'
p562
sS'order'
p563
F1523916093.232684
sS'objid'
p564
g8
(g12
S'\x9a\x00\x00\x00\x00\x00\x00\x00'
p565
tp566
Rp567
sa(dp568
S'action'
p569
S'delete'
p570
sS'order'
p571
F1523916093.237985
sS'objid'
p572
g8
(g12
S'\x99\x00\x00\x00\x00\x00\x00\x00'
p573
tp574
Rp575
sa(dp576
S'action'
p577
S'delete'
p578
sS'order'
p579
F1523916093.243303
sS'objid'
p580
g8
(g12
S'\x98\x00\x00\x00\x00\x00\x00\x00'
p581
tp582
Rp583
sa(dp584
S'action'
p585
S'delete'
p586
sS'order'
p587
F1523916093.250693
sS'objid'
p588
g8
(g12
S'\x97\x00\x00\x00\x00\x00\x00\x00'
p589
tp590
Rp591
sa(dp592
S'action'
p593
S'delete'
p594
sS'order'
p595
F1523916093.256077
sS'objid'
p596
g8
(g12
S'\x96\x00\x00\x00\x00\x00\x00\x00'
p597
tp598
Rp599
sa(dp600
S'action'
p601
S'delete'
p602
sS'order'
p603
F1523916093.261501
sS'objid'
p604
g8
(g12
S'\x95\x00\x00\x00\x00\x00\x00\x00'
p605
tp606
Rp607
sa(dp608
S'action'
p609
S'delete'
p610
sS'order'
p611
F1523916093.267022
sS'objid'
p612
g8
(g12
S'\x94\x00\x00\x00\x00\x00\x00\x00'
p613
tp614
Rp615
sa(dp616
S'action'
p617
S'delete'
p618
sS'order'
p619
F1523916093.272567
sS'objid'
p620
g8
(g12
S'\x93\x00\x00\x00\x00\x00\x00\x00'
p621
tp622
Rp623
sa(dp624
S'action'
p625
S'delete'
p626
sS'order'
p627
F1523916093.278215
sS'objid'
p628
g8
(g12
S'\x92\x00\x00\x00\x00\x00\x00\x00'
p629
tp630
Rp631
sa(dp632
S'action'
p633
S'delete'
p634
sS'order'
p635
F1523916093.283887
sS'objid'
p636
g8
(g12
S'\x91\x00\x00\x00\x00\x00\x00\x00'
p637
tp638
Rp639
sa(dp640
S'action'
p641
S'delete'
p642
sS'order'
p643
F1523916093.289624
sS'objid'
p644
g8
(g12
S'\x90\x00\x00\x00\x00\x00\x00\x00'
p645
tp646
Rp647
sa(dp648
S'action'
p649
S'delete'
p650
sS'order'
p651
F1523916093.295428
sS'objid'
p652
g8
(g12
S'\x8f\x00\x00\x00\x00\x00\x00\x00'
p653
tp654
Rp655
sa(dp656
S'action'
p657
S'delete'
p658
sS'order'
p659
F1523916093.301266
sS'objid'
p660
g8
(g12
S'\x8e\x00\x00\x00\x00\x00\x00\x00'
p661
tp662
Rp663
sa(dp664
S'action'
p665
S'delete'
p666
sS'order'
p667
F1523916093.307171
sS'objid'
p668
g8
(g12
S'\x8d\x00\x00\x00\x00\x00\x00\x00'
p669
tp670
Rp671
sa(dp672
S'action'
p673
S'delete'
p674
sS'order'
p675
F1523916093.313174
sS'objid'
p676
g8
(g12
S'\x8c\x00\x00\x00\x00\x00\x00\x00'
p677
tp678
Rp679
sa(dp680
S'action'
p681
S'delete'
p682
sS'order'
p683
F1523916093.319206
sS'objid'
p684
g8
(g12
S'\x8b\x00\x00\x00\x00\x00\x00\x00'
p685
tp686
Rp687
sa(dp688
S'action'
p689
S'delete'
p690
sS'order'
p691
F1523916093.32536
sS'objid'
p692
g8
(g12
S'\x8a\x00\x00\x00\x00\x00\x00\x00'
p693
tp694
Rp695
sa(dp696
S'action'
p697
S'delete'
p698
sS'order'
p699
F1523916093.331599
sS'objid'
p700
g8
(g12
S'\x89\x00\x00\x00\x00\x00\x00\x00'
p701
tp702
Rp703
sa(dp704
S'action'
p705
S'delete'
p706
sS'order'
p707
F1523916093.337906
sS'objid'
p708
g8
(g12
S'\x88\x00\x00\x00\x00\x00\x00\x00'
p709
tp710
Rp711
sa(dp712
S'action'
p713
S'delete'
p714
sS'order'
p715
F1523916093.34424
sS'objid'
p716
g8
(g12
S'\x87\x00\x00\x00\x00\x00\x00\x00'
p717
tp718
Rp719
sa(dp720
S'action'
p721
S'delete'
p722
sS'order'
p723
F1523916093.351581
sS'objid'
p724
g8
(g12
S'\x86\x00\x00\x00\x00\x00\x00\x00'
p725
tp726
Rp727
sa(dp728
S'action'
p729
S'delete'
p730
sS'order'
p731
F1523916093.357958
sS'objid'
p732
g8
(g12
S'\x85\x00\x00\x00\x00\x00\x00\x00'
p733
tp734
Rp735
sa(dp736
S'action'
p737
S'delete'
p738
sS'order'
p739
F1523916093.364461
sS'objid'
p740
g8
(g12
S'\x84\x00\x00\x00\x00\x00\x00\x00'
p741
tp742
Rp743
sa(dp744
S'action'
p745
S'delete'
p746
sS'order'
p747
F1523916093.37098
sS'objid'
p748
g8
(g12
S'\x83\x00\x00\x00\x00\x00\x00\x00'
p749
tp750
Rp751
sa(dp752
S'action'
p753
S'delete'
p754
sS'order'
p755
F1523916093.377603
sS'objid'
p756
g8
(g12
S'\x82\x00\x00\x00\x00\x00\x00\x00'
p757
tp758
Rp759
sa(dp760
S'action'
p761
S'delete'
p762
sS'order'
p763
F1523916093.384246
sS'objid'
p764
g8
(g12
S'\x81\x00\x00\x00\x00\x00\x00\x00'
p765
tp766
Rp767
sa(dp768
S'action'
p769
S'delete'
p770
sS'order'
p771
F1523916093.390944
sS'objid'
p772
g8
(g12
S'i\x00\x00\x00\x00\x00\x00\x00'
p773
tp774
Rp775
sa(dp776
S'action'
p777
S'delete'
p778
sS'order'
p779
F1523916110.942093
sS'objid'
p780
g8
(g12
S'\xdc\x00\x00\x00\x00\x00\x00\x00'
p781
tp782
Rp783
sa(dp784
S'action'
p785
S'delete'
p786
sS'order'
p787
F1523916110.958123
sS'objid'
p788
g8
(g12
S'\x80\x00\x00\x00\x00\x00\x00\x00'
p789
tp790
Rp791
sa(dp792
S'action'
p793
S'delete'
p794
sS'order'
p795
F1523916110.968445
sS'objid'
p796
g8
(g12
S'\x7f\x00\x00\x00\x00\x00\x00\x00'
p797
tp798
Rp799
sa(dp800
S'action'
p801
S'delete'
p802
sS'order'
p803
F1523916110.981469
sS'objid'
p804
g8
(g12
S'~\x00\x00\x00\x00\x00\x00\x00'
p805
tp806
Rp807
sa(dp808
S'action'
p809
S'delete'
p810
sS'order'
p811
F1523916110.988625
sS'objid'
p812
g8
(g12
S'}\x00\x00\x00\x00\x00\x00\x00'
p813
tp814
Rp815
sa(dp816
S'action'
p817
S'delete'
p818
sS'order'
p819
F1523916110.998467
sS'objid'
p820
g8
(g12
S'|\x00\x00\x00\x00\x00\x00\x00'
p821
tp822
Rp823
sa(dp824
S'action'
p825
S'delete'
p826
sS'order'
p827
F1523916111.007305
sS'objid'
p828
g8
(g12
S'{\x00\x00\x00\x00\x00\x00\x00'
p829
tp830
Rp831
sa(dp832
S'action'
p833
S'delete'
p834
sS'order'
p835
F1523916111.018284
sS'objid'
p836
g8
(g12
S'z\x00\x00\x00\x00\x00\x00\x00'
p837
tp838
Rp839
sa(dp840
S'action'
p841
S'delete'
p842
sS'order'
p843
F1523916111.025492
sS'objid'
p844
g8
(g12
S'y\x00\x00\x00\x00\x00\x00\x00'
p845
tp846
Rp847
sa(dp848
S'action'
p849
S'delete'
p850
sS'order'
p851
F1523916111.032767
sS'objid'
p852
g8
(g12
S'x\x00\x00\x00\x00\x00\x00\x00'
p853
tp854
Rp855
sa(dp856
S'action'
p857
S'delete'
p858
sS'order'
p859
F1523916111.04009
sS'objid'
p860
g8
(g12
S'w\x00\x00\x00\x00\x00\x00\x00'
p861
tp862
Rp863
sa(dp864
S'action'
p865
S'delete'
p866
sS'order'
p867
F1523916111.047499
sS'objid'
p868
g8
(g12
S'v\x00\x00\x00\x00\x00\x00\x00'
p869
tp870
Rp871
sa(dp872
S'action'
p873
S'delete'
p874
sS'order'
p875
F1523916111.054961
sS'objid'
p876
g8
(g12
S't\x00\x00\x00\x00\x00\x00\x00'
p877
tp878
Rp879
sa(dp880
S'action'
p881
S'delete'
p882
sS'order'
p883
F1523916111.062462
sS'objid'
p884
g8
(g12
S's\x00\x00\x00\x00\x00\x00\x00'
p885
tp886
Rp887
sa(dp888
S'action'
p889
S'delete'
p890
sS'order'
p891
F1523916111.070072
sS'objid'
p892
g8
(g12
S'r\x00\x00\x00\x00\x00\x00\x00'
p893
tp894
Rp895
sa(dp896
S'action'
p897
S'delete'
p898
sS'order'
p899
F1523916111.077893
sS'objid'
p900
g8
(g12
S'q\x00\x00\x00\x00\x00\x00\x00'
p901
tp902
Rp903
sa(dp904
S'action'
p905
S'delete'
p906
sS'order'
p907
F1523916111.085661
sS'objid'
p908
g8
(g12
S'p\x00\x00\x00\x00\x00\x00\x00'
p909
tp910
Rp911
sa(dp912
S'action'
p913
S'delete'
p914
sS'order'
p915
F1523916111.094108
sS'objid'
p916
g8
(g12
S'o\x00\x00\x00\x00\x00\x00\x00'
p917
tp918
Rp919
sa(dp920
S'action'
p921
S'delete'
p922
sS'order'
p923
F1523916111.103708
sS'objid'
p924
g8
(g12
S'n\x00\x00\x00\x00\x00\x00\x00'
p925
tp926
Rp927
sa(dp928
S'action'
p929
S'delete'
p930
sS'order'
p931
F1523916111.111599
sS'objid'
p932
g8
(g12
S'm\x00\x00\x00\x00\x00\x00\x00'
p933
tp934
Rp935
sa(dp936
S'action'
p937
S'delete'
p938
sS'order'
p939
F1523916111.119571
sS'objid'
p940
g8
(g12
S'l\x00\x00\x00\x00\x00\x00\x00'
p941
tp942
Rp943
sa(dp944
S'action'
p945
S'delete'
p946
sS'order'
p947
F1523916111.127558
sS'objid'
p948
g8
(g12
S'k\x00\x00\x00\x00\x00\x00\x00'
p949
tp950
Rp951
sa(dp952
S'action'
p953
S'delete'
p954
sS'order'
p955
F1523916111.135613
sS'objid'
p956
g8
(g12
S'j\x00\x00\x00\x00\x00\x00\x00'
p957
tp958
Rp959
sa(dp960
S'action'
p961
S'delete'
p962
sS'order'
p963
F1523916111.143737
sS'objid'
p964
g8
(g12
S'h\x00\x00\x00\x00\x00\x00\x00'
p965
tp966
Rp967
sa(dp968
S'action'
p969
S'delete'
p970
sS'order'
p971
F1523916111.151924
sS'objid'
p972
g8
(g12
S'g\x00\x00\x00\x00\x00\x00\x00'
p973
tp974
Rp975
sa(dp976
S'action'
p977
S'delete'
p978
sS'order'
p979
F1523916111.160168
sS'objid'
p980
g8
(g12
S'f\x00\x00\x00\x00\x00\x00\x00'
p981
tp982
Rp983
sa(dp984
S'action'
p985
S'delete'
p986
sS'order'
p987
F1523916111.168522
sS'objid'
p988
g8
(g12
S'e\x00\x00\x00\x00\x00\x00\x00'
p989
tp990
Rp991
sa(dp992
S'action'
p993
S'delete'
p994
sS'order'
p995
F1523916111.176964
sS'objid'
p996
g8
(g12
S'd\x00\x00\x00\x00\x00\x00\x00'
p997
tp998
Rp999
sa(dp1000
S'action'
p1001
S'delete'
p1002
sS'order'
p1003
F1523916111.185449
sS'objid'
p1004
g8
(g12
S'c\x00\x00\x00\x00\x00\x00\x00'
p1005
tp1006
Rp1007
sa(dp1008
S'action'
p1009
S'delete'
p1010
sS'order'
p1011
F1523916111.194065
sS'objid'
p1012
g8
(g12
S'b\x00\x00\x00\x00\x00\x00\x00'
p1013
tp1014
Rp1015
sa(dp1016
S'action'
p1017
S'delete'
p1018
sS'order'
p1019
F1523916111.203849
sS'objid'
p1020
g8
(g12
S'a\x00\x00\x00\x00\x00\x00\x00'
p1021
tp1022
Rp1023
sa(dp1024
S'action'
p1025
S'delete'
p1026
sS'order'
p1027
F1523916111.21244
sS'objid'
p1028
g8
(g12
S'`\x00\x00\x00\x00\x00\x00\x00'
p1029
tp1030
Rp1031
sa(dp1032
S'action'
p1033
S'delete'
p1034
sS'order'
p1035
F1523916111.221151
sS'objid'
p1036
g8
(g12
S'_\x00\x00\x00\x00\x00\x00\x00'
p1037
tp1038
Rp1039
sa(dp1040
S'action'
p1041
S'delete'
p1042
sS'order'
p1043
F1523916111.229873
sS'objid'
p1044
g8
(g12
S']\x00\x00\x00\x00\x00\x00\x00'
p1045
tp1046
Rp1047
sa(dp1048
S'action'
p1049
S'delete'
p1050
sS'order'
p1051
F1523916111.238617
sS'objid'
p1052
g8
(g12
S'[\x00\x00\x00\x00\x00\x00\x00'
p1053
tp1054
Rp1055
sa(dp1056
S'action'
p1057
S'delete'
p1058
sS'order'
p1059
F1523916111.247464
sS'objid'
p1060
g8
(g12
S'Z\x00\x00\x00\x00\x00\x00\x00'
p1061
tp1062
Rp1063
sa(dp1064
S'action'
p1065
S'delete'
p1066
sS'order'
p1067
F1523916111.256435
sS'objid'
p1068
g8
(g12
S'Y\x00\x00\x00\x00\x00\x00\x00'
p1069
tp1070
Rp1071
sa(dp1072
S'action'
p1073
S'delete'
p1074
sS'order'
p1075
F1523916111.265365
sS'objid'
p1076
g8
(g12
S'X\x00\x00\x00\x00\x00\x00\x00'
p1077
tp1078
Rp1079
sa(dp1080
S'action'
p1081
S'delete'
p1082
sS'order'
p1083
F1523916111.274386
sS'objid'
p1084
g8
(g12
S'W\x00\x00\x00\x00\x00\x00\x00'
p1085
tp1086
Rp1087
sa(dp1088
S'action'
p1089
S'delete'
p1090
sS'order'
p1091
F1523916111.28364
sS'objid'
p1092
g8
(g12
S'V\x00\x00\x00\x00\x00\x00\x00'
p1093
tp1094
Rp1095
sa(dp1096
S'action'
p1097
S'delete'
p1098
sS'order'
p1099
F1523916111.292897
sS'objid'
p1100
g8
(g12
S'U\x00\x00\x00\x00\x00\x00\x00'
p1101
tp1102
Rp1103
sa(dp1104
S'action'
p1105
S'delete'
p1106
sS'order'
p1107
F1523916111.303818
sS'objid'
p1108
g8
(g12
S'T\x00\x00\x00\x00\x00\x00\x00'
p1109
tp1110
Rp1111
sa(dp1112
S'action'
p1113
S'delete'
p1114
sS'order'
p1115
F1523916111.318944
sS'objid'
p1116
g8
(g12
S'S\x00\x00\x00\x00\x00\x00\x00'
p1117
tp1118
Rp1119
sa(dp1120
S'action'
p1121
S'delete'
p1122
sS'order'
p1123
F1523916111.328277
sS'objid'
p1124
g8
(g12
S'R\x00\x00\x00\x00\x00\x00\x00'
p1125
tp1126
Rp1127
sa(dp1128
S'action'
p1129
S'delete'
p1130
sS'order'
p1131
F1523916111.337646
sS'objid'
p1132
g8
(g12
S'Q\x00\x00\x00\x00\x00\x00\x00'
p1133
tp1134
Rp1135
sa(dp1136
S'action'
p1137
S'delete'
p1138
sS'order'
p1139
F1523916111.347092
sS'objid'
p1140
g8
(g12
S'P\x00\x00\x00\x00\x00\x00\x00'
p1141
tp1142
Rp1143
sa(dp1144
S'action'
p1145
S'delete'
p1146
sS'order'
p1147
F1523916111.356653
sS'objid'
p1148
g8
(g12
S'O\x00\x00\x00\x00\x00\x00\x00'
p1149
tp1150
Rp1151
sa(dp1152
S'action'
p1153
S'delete'
p1154
sS'order'
p1155
F1523916111.366211
sS'objid'
p1156
g8
(g12
S'N\x00\x00\x00\x00\x00\x00\x00'
p1157
tp1158
Rp1159
sa(dp1160
S'action'
p1161
S'delete'
p1162
sS'order'
p1163
F1523916111.375838
sS'objid'
p1164
g8
(g12
S'M\x00\x00\x00\x00\x00\x00\x00'
p1165
tp1166
Rp1167
sa(dp1168
S'action'
p1169
S'delete'
p1170
sS'order'
p1171
F1523916111.385596
sS'objid'
p1172
g8
(g12
S'L\x00\x00\x00\x00\x00\x00\x00'
p1173
tp1174
Rp1175
sa(dp1176
S'action'
p1177
S'delete'
p1178
sS'order'
p1179
F1523916111.395496
sS'objid'
p1180
g8
(g12
S'K\x00\x00\x00\x00\x00\x00\x00'
p1181
tp1182
Rp1183
sa(dp1184
S'action'
p1185
S'delete'
p1186
sS'order'
p1187
F1523916111.414569
sS'objid'
p1188
g8
(g12
S'J\x00\x00\x00\x00\x00\x00\x00'
p1189
tp1190
Rp1191
sa(dp1192
S'action'
p1193
S'delete'
p1194
sS'order'
p1195
F1523916111.424413
sS'objid'
p1196
g8
(g12
S'I\x00\x00\x00\x00\x00\x00\x00'
p1197
tp1198
Rp1199
sa(dp1200
S'action'
p1201
S'delete'
p1202
sS'order'
p1203
F1523916111.434316
sS'objid'
p1204
g8
(g12
S'H\x00\x00\x00\x00\x00\x00\x00'
p1205
tp1206
Rp1207
sa(dp1208
S'action'
p1209
S'delete'
p1210
sS'order'
p1211
F1523916111.444317
sS'objid'
p1212
g8
(g12
S'G\x00\x00\x00\x00\x00\x00\x00'
p1213
tp1214
Rp1215
sa(dp1216
S'action'
p1217
S'delete'
p1218
sS'order'
p1219
F1523916111.454317
sS'objid'
p1220
g8
(g12
S'F\x00\x00\x00\x00\x00\x00\x00'
p1221
tp1222
Rp1223
sa(dp1224
S'action'
p1225
S'delete'
p1226
sS'order'
p1227
F1523916111.46444
sS'objid'
p1228
g8
(g12
S'E\x00\x00\x00\x00\x00\x00\x00'
p1229
tp1230
Rp1231
sa(dp1232
S'action'
p1233
S'delete'
p1234
sS'order'
p1235
F1523916111.474579
sS'objid'
p1236
g8
(g12
S'D\x00\x00\x00\x00\x00\x00\x00'
p1237
tp1238
Rp1239
sa(dp1240
S'action'
p1241
S'delete'
p1242
sS'order'
p1243
F1523916111.484852
sS'objid'
p1244
g8
(g12
S'C\x00\x00\x00\x00\x00\x00\x00'
p1245
tp1246
Rp1247
sa(dp1248
S'action'
p1249
S'delete'
p1250
sS'order'
p1251
F1523916111.495346
sS'objid'
p1252
g8
(g12
S'B\x00\x00\x00\x00\x00\x00\x00'
p1253
tp1254
Rp1255
sa(dp1256
S'action'
p1257
S'delete'
p1258
sS'order'
p1259
F1523916111.513694
sS'objid'
p1260
g8
(g12
S'A\x00\x00\x00\x00\x00\x00\x00'
p1261
tp1262
Rp1263
sa(dp1264
S'action'
p1265
S'delete'
p1266
sS'order'
p1267
F1523916111.524207
sS'objid'
p1268
g8
(g12
S'@\x00\x00\x00\x00\x00\x00\x00'
p1269
tp1270
Rp1271
sa(dp1272
S'action'
p1273
S'delete'
p1274
sS'order'
p1275
F1523916111.534673
sS'objid'
p1276
g8
(g12
S'?\x00\x00\x00\x00\x00\x00\x00'
p1277
tp1278
Rp1279
sa(dp1280
S'action'
p1281
S'delete'
p1282
sS'order'
p1283
F1523916111.545203
sS'objid'
p1284
g8
(g12
S'>\x00\x00\x00\x00\x00\x00\x00'
p1285
tp1286
Rp1287
sa(dp1288
S'action'
p1289
S'delete'
p1290
sS'order'
p1291
F1523916111.555829
sS'objid'
p1292
g8
(g12
S'=\x00\x00\x00\x00\x00\x00\x00'
p1293
tp1294
Rp1295
sa(dp1296
S'action'
p1297
S'delete'
p1298
sS'order'
p1299
F1523916111.566437
sS'objid'
p1300
g8
(g12
S'<\x00\x00\x00\x00\x00\x00\x00'
p1301
tp1302
Rp1303
sa(dp1304
S'action'
p1305
S'delete'
p1306
sS'order'
p1307
F1523916111.577144
sS'objid'
p1308
g8
(g12
S';\x00\x00\x00\x00\x00\x00\x00'
p1309
tp1310
Rp1311
sa(dp1312
S'action'
p1313
S'delete'
p1314
sS'order'
p1315
F1523916111.587978
sS'objid'
p1316
g8
(g12
S':\x00\x00\x00\x00\x00\x00\x00'
p1317
tp1318
Rp1319
sa(dp1320
S'action'
p1321
S'delete'
p1322
sS'order'
p1323
F1523916111.599006
sS'objid'
p1324
g8
(g12
S'9\x00\x00\x00\x00\x00\x00\x00'
p1325
tp1326
Rp1327
sa(dp1328
S'action'
p1329
S'delete'
p1330
sS'order'
p1331
F1523916111.617108
sS'objid'
p1332
g8
(g12
S'\x04\x00\x00\x00\x00\x00\x00\x00'
p1333
tp1334
Rp1335
sa(dp1336
S'action'
p1337
S'delete'
p1338
sS'order'
p1339
F1523916122.091963
sS'objid'
p1340
g8
(g12
S'8\x00\x00\x00\x00\x00\x00\x00'
p1341
tp1342
Rp1343
sa(dp1344
S'action'
p1345
S'delete'
p1346
sS'order'
p1347
F1523916122.104766
sS'objid'
p1348
g8
(g12
S'7\x00\x00\x00\x00\x00\x00\x00'
p1349
tp1350
Rp1351
sa(dp1352
S'action'
p1353
S'delete'
p1354
sS'order'
p1355
F1523916122.116805
sS'objid'
p1356
g8
(g12
S'6\x00\x00\x00\x00\x00\x00\x00'
p1357
tp1358
Rp1359
sa(dp1360
S'action'
p1361
S'delete'
p1362
sS'order'
p1363
F1523916122.131954
sS'objid'
p1364
g8
(g12
S'5\x00\x00\x00\x00\x00\x00\x00'
p1365
tp1366
Rp1367
sa(dp1368
S'action'
p1369
S'delete'
p1370
sS'order'
p1371
F1523916122.143165
sS'objid'
p1372
g8
(g12
S'4\x00\x00\x00\x00\x00\x00\x00'
p1373
tp1374
Rp1375
sa(dp1376
S'action'
p1377
S'delete'
p1378
sS'order'
p1379
F1523916122.154442
sS'objid'
p1380
g8
(g12
S'3\x00\x00\x00\x00\x00\x00\x00'
p1381
tp1382
Rp1383
sa(dp1384
S'action'
p1385
S'delete'
p1386
sS'order'
p1387
F1523916122.165835
sS'objid'
p1388
g8
(g12
S'2\x00\x00\x00\x00\x00\x00\x00'
p1389
tp1390
Rp1391
sa(dp1392
S'action'
p1393
S'delete'
p1394
sS'order'
p1395
F1523916122.177248
sS'objid'
p1396
g8
(g12
S'1\x00\x00\x00\x00\x00\x00\x00'
p1397
tp1398
Rp1399
sa(dp1400
S'action'
p1401
S'delete'
p1402
sS'order'
p1403
F1523916122.188781
sS'objid'
p1404
g8
(g12
S'0\x00\x00\x00\x00\x00\x00\x00'
p1405
tp1406
Rp1407
sa(dp1408
S'action'
p1409
S'delete'
p1410
sS'order'
p1411
F1523916122.200501
sS'objid'
p1412
g8
(g12
S'/\x00\x00\x00\x00\x00\x00\x00'
p1413
tp1414
Rp1415
sa(dp1416
S'action'
p1417
S'delete'
p1418
sS'order'
p1419
F1523916122.212134
sS'objid'
p1420
g8
(g12
S'.\x00\x00\x00\x00\x00\x00\x00'
p1421
tp1422
Rp1423
sa(dp1424
S'action'
p1425
S'delete'
p1426
sS'order'
p1427
F1523916122.223848
sS'objid'
p1428
g8
(g12
S',\x00\x00\x00\x00\x00\x00\x00'
p1429
tp1430
Rp1431
sa(dp1432
S'action'
p1433
S'delete'
p1434
sS'order'
p1435
F1523916122.235562
sS'objid'
p1436
g8
(g12
S'+\x00\x00\x00\x00\x00\x00\x00'
p1437
tp1438
Rp1439
sa(dp1440
S'action'
p1441
S'delete'
p1442
sS'order'
p1443
F1523916122.247315
sS'objid'
p1444
g8
(g12
S'*\x00\x00\x00\x00\x00\x00\x00'
p1445
tp1446
Rp1447
sa(dp1448
S'action'
p1449
S'delete'
p1450
sS'order'
p1451
F1523916122.25909
sS'objid'
p1452
g8
(g12
S')\x00\x00\x00\x00\x00\x00\x00'
p1453
tp1454
Rp1455
sa(dp1456
S'action'
p1457
S'delete'
p1458
sS'order'
p1459
F1523916122.270919
sS'objid'
p1460
g8
(g12
S'(\x00\x00\x00\x00\x00\x00\x00'
p1461
tp1462
Rp1463
sa(dp1464
S'action'
p1465
S'delete'
p1466
sS'order'
p1467
F1523916122.282847
sS'objid'
p1468
g8
(g12
S"'\x00\x00\x00\x00\x00\x00\x00"
p1469
tp1470
Rp1471
sa(dp1472
S'action'
p1473
S'delete'
p1474
sS'order'
p1475
F1523916122.294945
sS'objid'
p1476
g8
(g12
S'&\x00\x00\x00\x00\x00\x00\x00'
p1477
tp1478
Rp1479
sa(dp1480
S'action'
p1481
S'delete'
p1482
sS'order'
p1483
F1523916122.307092
sS'objid'
p1484
g8
(g12
S'%\x00\x00\x00\x00\x00\x00\x00'
p1485
tp1486
Rp1487
sa(dp1488
S'action'
p1489
S'delete'
p1490
sS'order'
p1491
F1523916122.319236
sS'objid'
p1492
g8
(g12
S'$\x00\x00\x00\x00\x00\x00\x00'
p1493
tp1494
Rp1495
sa(dp1496
S'action'
p1497
S'delete'
p1498
sS'order'
p1499
F1523916122.331417
sS'objid'
p1500
g8
(g12
S'#\x00\x00\x00\x00\x00\x00\x00'
p1501
tp1502
Rp1503
sa(dp1504
S'action'
p1505
S'delete'
p1506
sS'order'
p1507
F1523916122.34364
sS'objid'
p1508
g8
(g12
S'"\x00\x00\x00\x00\x00\x00\x00'
p1509
tp1510
Rp1511
sa(dp1512
S'action'
p1513
S'delete'
p1514
sS'order'
p1515
F1523916122.355917
sS'objid'
p1516
g8
(g12
S'!\x00\x00\x00\x00\x00\x00\x00'
p1517
tp1518
Rp1519
sa(dp1520
S'action'
p1521
S'delete'
p1522
sS'order'
p1523
F1523916122.368272
sS'objid'
p1524
g8
(g12
S' \x00\x00\x00\x00\x00\x00\x00'
p1525
tp1526
Rp1527
sa(dp1528
S'action'
p1529
S'delete'
p1530
sS'order'
p1531
F1523916122.380702
sS'objid'
p1532
g8
(g12
S'\x1f\x00\x00\x00\x00\x00\x00\x00'
p1533
tp1534
Rp1535
sa(dp1536
S'action'
p1537
S'delete'
p1538
sS'order'
p1539
F1523916122.39321
sS'objid'
p1540
g8
(g12
S'\x1e\x00\x00\x00\x00\x00\x00\x00'
p1541
tp1542
Rp1543
sa(dp1544
S'action'
p1545
S'delete'
p1546
sS'order'
p1547
F1523916122.405971
sS'objid'
p1548
g8
(g12
S'\x1d\x00\x00\x00\x00\x00\x00\x00'
p1549
tp1550
Rp1551
sa(dp1552
S'action'
p1553
S'delete'
p1554
sS'order'
p1555
F1523916122.418564
sS'objid'
p1556
g8
(g12
S'\x1c\x00\x00\x00\x00\x00\x00\x00'
p1557
tp1558
Rp1559
sa(dp1560
S'action'
p1561
S'delete'
p1562
sS'order'
p1563
F1523916122.431188
sS'objid'
p1564
g8
(g12
S'\x1b\x00\x00\x00\x00\x00\x00\x00'
p1565
tp1566
Rp1567
sa(dp1568
S'action'
p1569
S'delete'
p1570
sS'order'
p1571
F1523916122.443838
sS'objid'
p1572
g8
(g12
S'\x1a\x00\x00\x00\x00\x00\x00\x00'
p1573
tp1574
Rp1575
sa(dp1576
S'action'
p1577
S'delete'
p1578
sS'order'
p1579
F1523916122.456614
sS'objid'
p1580
g8
(g12
S'\x19\x00\x00\x00\x00\x00\x00\x00'
p1581
tp1582
Rp1583
sa(dp1584
S'action'
p1585
S'delete'
p1586
sS'order'
p1587
F1523916122.469444
sS'objid'
p1588
g8
(g12
S'\x18\x00\x00\x00\x00\x00\x00\x00'
p1589
tp1590
Rp1591
sa(dp1592
S'action'
p1593
S'delete'
p1594
sS'order'
p1595
F1523916122.482326
sS'objid'
p1596
g8
(g12
S'\x17\x00\x00\x00\x00\x00\x00\x00'
p1597
tp1598
Rp1599
sa(dp1600
S'action'
p1601
S'delete'
p1602
sS'order'
p1603
F1523916122.495393
sS'objid'
p1604
g8
(g12
S'\x16\x00\x00\x00\x00\x00\x00\x00'
p1605
tp1606
Rp1607
sa(dp1608
S'action'
p1609
S'delete'
p1610
sS'order'
p1611
F1523916122.50857
sS'objid'
p1612
g8
(g12
S'\x15\x00\x00\x00\x00\x00\x00\x00'
p1613
tp1614
Rp1615
sa(dp1616
S'action'
p1617
S'delete'
p1618
sS'order'
p1619
F1523916122.521707
sS'objid'
p1620
g8
(g12
S'\x14\x00\x00\x00\x00\x00\x00\x00'
p1621
tp1622
Rp1623
sa(dp1624
S'action'
p1625
S'delete'
p1626
sS'order'
p1627
F1523916122.534907
sS'objid'
p1628
g8
(g12
S'\x13\x00\x00\x00\x00\x00\x00\x00'
p1629
tp1630
Rp1631
sa(dp1632
S'action'
p1633
S'delete'
p1634
sS'order'
p1635
F1523916122.548078
sS'objid'
p1636
g8
(g12
S'\x12\x00\x00\x00\x00\x00\x00\x00'
p1637
tp1638
Rp1639
sa(dp1640
S'action'
p1641
S'delete'
p1642
sS'order'
p1643
F1523916122.561265
sS'objid'
p1644
g8
(g12
S'\x11\x00\x00\x00\x00\x00\x00\x00'
p1645
tp1646
Rp1647
sa(dp1648
S'action'
p1649
S'delete'
p1650
sS'order'
p1651
F1523916122.574523
sS'objid'
p1652
g8
(g12
S'\x10\x00\x00\x00\x00\x00\x00\x00'
p1653
tp1654
Rp1655
sa(dp1656
S'action'
p1657
S'delete'
p1658
sS'order'
p1659
F1523916122.587924
sS'objid'
p1660
g8
(g12
S'\x0f\x00\x00\x00\x00\x00\x00\x00'
p1661
tp1662
Rp1663
sa(dp1664
S'action'
p1665
S'delete'
p1666
sS'order'
p1667
F1523916122.601486
sS'objid'
p1668
g8
(g12
S'\x0e\x00\x00\x00\x00\x00\x00\x00'
p1669
tp1670
Rp1671
sa(dp1672
S'action'
p1673
S'delete'
p1674
sS'order'
p1675
F1523916122.614967
sS'objid'
p1676
g8
(g12
S'\r\x00\x00\x00\x00\x00\x00\x00'
p1677
tp1678
Rp1679
sa(dp1680
S'action'
p1681
S'delete'
p1682
sS'order'
p1683
F1523916122.628496
sS'objid'
p1684
g8
(g12
S'\x0c\x00\x00\x00\x00\x00\x00\x00'
p1685
tp1686
Rp1687
sa(dp1688
S'action'
p1689
S'delete'
p1690
sS'order'
p1691
F1523916122.642086
sS'objid'
p1692
g8
(g12
S'\x0b\x00\x00\x00\x00\x00\x00\x00'
p1693
tp1694
Rp1695
sa(dp1696
S'action'
p1697
S'delete'
p1698
sS'order'
p1699
F1523916122.655806
sS'objid'
p1700
g8
(g12
S'\n\x00\x00\x00\x00\x00\x00\x00'
p1701
tp1702
Rp1703
sa(dp1704
S'action'
p1705
S'delete'
p1706
sS'order'
p1707
F1523916122.669509
sS'objid'
p1708
g8
(g12
S'\t\x00\x00\x00\x00\x00\x00\x00'
p1709
tp1710
Rp1711
sa(dp1712
S'action'
p1713
S'delete'
p1714
sS'order'
p1715
F1523916122.683359
sS'objid'
p1716
g8
(g12
S'\x08\x00\x00\x00\x00\x00\x00\x00'
p1717
tp1718
Rp1719
sa(dp1720
S'action'
p1721
S'delete'
p1722
sS'order'
p1723
F1523916122.697338
sS'objid'
p1724
g8
(g12
S'\x07\x00\x00\x00\x00\x00\x00\x00'
p1725
tp1726
Rp1727
sa(dp1728
S'action'
p1729
S'delete'
p1730
sS'order'
p1731
F1523916122.711364
sS'objid'
p1732
g8
(g12
S'\x06\x00\x00\x00\x00\x00\x00\x00'
p1733
tp1734
Rp1735
sa(dp1736
S'action'
p1737
S'delete'
p1738
sS'order'
p1739
F1523916122.72535
sS'objid'
p1740
g8
(g12
S'\x05\x00\x00\x00\x00\x00\x00\x00'
p1741
tp1742
Rp1743
sa(dp1744
S'action'
p1745
S'delete'
p1746
sS'order'
p1747
F1523916122.739455
sS'objid'
p1748
g8
(g12
S'\x03\x00\x00\x00\x00\x00\x00\x00'
p1749
tp1750
Rp1751
sa(dp1752
S'action'
p1753
S'delete'
p1754
sS'order'
p1755
F1523916122.75355
sS'objid'
p1756
g8
(g12
S'\x02\x00\x00\x00\x00\x00\x00\x00'
p1757
tp1758
Rp1759
sa(dp1760
S'action'
p1761
S'delete'
p1762
sS'order'
p1763
F1523916122.76768
sS'objid'
p1764
g8
(g12
S'\x00\x00\x00\x00\x00\x00\x00\x00'
p1765
tp1766
Rp1767
sa.