(lp0
(dp1
S'action'
p2
S'join'
p3
sS'data_to_add'
p4
(lp5
sS'order'
p6
F1523918828.535638
sS'new_objid'
p7
cnumpy.core.multiarray
scalar
p8
(cnumpy
dtype
p9
(S'i8'
p10
I0
I1
tp11
Rp12
(I3
S'<'
p13
NNNI-1
I-1
I0
tp14
bS'M\x00\x00\x00\x00\x00\x00\x00'
p15
tp16
Rp17
sS'objids'
p18
(lp19
g8
(g12
S'\x00\x00\x00\x00\x00\x00\x00\x00'
p20
tp21
Rp22
ag8
(g12
S'\x04\x00\x00\x00\x00\x00\x00\x00'
p23
tp24
Rp25
ag8
(g12
S'\x05\x00\x00\x00\x00\x00\x00\x00'
p26
tp27
Rp28
asa(dp29
S'action'
p30
S'join'
p31
sS'data_to_add'
p32
(lp33
sS'order'
p34
F1523918833.767342
sS'new_objid'
p35
g8
(g12
S'N\x00\x00\x00\x00\x00\x00\x00'
p36
tp37
Rp38
sS'objids'
p39
(lp40
g8
(g12
S'\x06\x00\x00\x00\x00\x00\x00\x00'
p41
tp42
Rp43
ag8
(g12
S'M\x00\x00\x00\x00\x00\x00\x00'
p44
tp45
Rp46
asa(dp47
S'action'
p48
S'join'
p49
sS'data_to_add'
p50
(lp51
sS'order'
p52
F1523918842.271492
sS'new_objid'
p53
g8
(g12
S'O\x00\x00\x00\x00\x00\x00\x00'
p54
tp55
Rp56
sS'objids'
p57
(lp58
g8
(g12
S'\x10\x00\x00\x00\x00\x00\x00\x00'
p59
tp60
Rp61
ag8
(g12
S'N\x00\x00\x00\x00\x00\x00\x00'
p62
tp63
Rp64
ag8
(g12
S'\x0f\x00\x00\x00\x00\x00\x00\x00'
p65
tp66
Rp67
asa(dp68
S'action'
p69
S'join'
p70
sS'data_to_add'
p71
(lp72
sS'order'
p73
F1523918853.751817
sS'new_objid'
p74
g8
(g12
S'P\x00\x00\x00\x00\x00\x00\x00'
p75
tp76
Rp77
sS'objids'
p78
(lp79
g8
(g12
S'\x16\x00\x00\x00\x00\x00\x00\x00'
p80
tp81
Rp82
ag8
(g12
S'O\x00\x00\x00\x00\x00\x00\x00'
p83
tp84
Rp85
asa(dp86
S'action'
p87
S'join'
p88
sS'data_to_add'
p89
(lp90
sS'order'
p91
F1523918861.064386
sS'new_objid'
p92
g8
(g12
S'Q\x00\x00\x00\x00\x00\x00\x00'
p93
tp94
Rp95
sS'objids'
p96
(lp97
g8
(g12
S'#\x00\x00\x00\x00\x00\x00\x00'
p98
tp99
Rp100
ag8
(g12
S'P\x00\x00\x00\x00\x00\x00\x00'
p101
tp102
Rp103
asa(dp104
S'action'
p105
S'delete'
p106
sS'order'
p107
F1523918876.083203
sS'objid'
p108
g8
(g12
S'A\x00\x00\x00\x00\x00\x00\x00'
p109
tp110
Rp111
sa(dp112
S'action'
p113
S'delete'
p114
sS'order'
p115
F1523918876.085639
sS'objid'
p116
g8
(g12
S'@\x00\x00\x00\x00\x00\x00\x00'
p117
tp118
Rp119
sa(dp120
S'action'
p121
S'delete'
p122
sS'order'
p123
F1523918876.087599
sS'objid'
p124
g8
(g12
S'?\x00\x00\x00\x00\x00\x00\x00'
p125
tp126
Rp127
sa(dp128
S'action'
p129
S'delete'
p130
sS'order'
p131
F1523918876.089484
sS'objid'
p132
g8
(g12
S'>\x00\x00\x00\x00\x00\x00\x00'
p133
tp134
Rp135
sa(dp136
S'action'
p137
S'delete'
p138
sS'order'
p139
F1523918876.091405
sS'objid'
p140
g8
(g12
S'=\x00\x00\x00\x00\x00\x00\x00'
p141
tp142
Rp143
sa(dp144
S'action'
p145
S'delete'
p146
sS'order'
p147
F1523918876.093109
sS'objid'
p148
g8
(g12
S'<\x00\x00\x00\x00\x00\x00\x00'
p149
tp150
Rp151
sa(dp152
S'action'
p153
S'delete'
p154
sS'order'
p155
F1523918876.095084
sS'objid'
p156
g8
(g12
S';\x00\x00\x00\x00\x00\x00\x00'
p157
tp158
Rp159
sa(dp160
S'action'
p161
S'delete'
p162
sS'order'
p163
F1523918876.096917
sS'objid'
p164
g8
(g12
S':\x00\x00\x00\x00\x00\x00\x00'
p165
tp166
Rp167
sa(dp168
S'action'
p169
S'delete'
p170
sS'order'
p171
F1523918876.098787
sS'objid'
p172
g8
(g12
S'9\x00\x00\x00\x00\x00\x00\x00'
p173
tp174
Rp175
sa(dp176
S'action'
p177
S'delete'
p178
sS'order'
p179
F1523918876.100734
sS'objid'
p180
g8
(g12
S'8\x00\x00\x00\x00\x00\x00\x00'
p181
tp182
Rp183
sa(dp184
S'action'
p185
S'delete'
p186
sS'order'
p187
F1523918876.10304
sS'objid'
p188
g8
(g12
S'7\x00\x00\x00\x00\x00\x00\x00'
p189
tp190
Rp191
sa(dp192
S'action'
p193
S'delete'
p194
sS'order'
p195
F1523918876.105104
sS'objid'
p196
g8
(g12
S'6\x00\x00\x00\x00\x00\x00\x00'
p197
tp198
Rp199
sa(dp200
S'action'
p201
S'delete'
p202
sS'order'
p203
F1523918876.10733
sS'objid'
p204
g8
(g12
S'5\x00\x00\x00\x00\x00\x00\x00'
p205
tp206
Rp207
sa(dp208
S'action'
p209
S'delete'
p210
sS'order'
p211
F1523918876.109501
sS'objid'
p212
g8
(g12
S'4\x00\x00\x00\x00\x00\x00\x00'
p213
tp214
Rp215
sa(dp216
S'action'
p217
S'delete'
p218
sS'order'
p219
F1523918876.111738
sS'objid'
p220
g8
(g12
S'3\x00\x00\x00\x00\x00\x00\x00'
p221
tp222
Rp223
sa(dp224
S'action'
p225
S'delete'
p226
sS'order'
p227
F1523918876.114088
sS'objid'
p228
g8
(g12
S'2\x00\x00\x00\x00\x00\x00\x00'
p229
tp230
Rp231
sa(dp232
S'action'
p233
S'delete'
p234
sS'order'
p235
F1523918876.116508
sS'objid'
p236
g8
(g12
S'1\x00\x00\x00\x00\x00\x00\x00'
p237
tp238
Rp239
sa(dp240
S'action'
p241
S'delete'
p242
sS'order'
p243
F1523918876.119328
sS'objid'
p244
g8
(g12
S'0\x00\x00\x00\x00\x00\x00\x00'
p245
tp246
Rp247
sa(dp248
S'action'
p249
S'delete'
p250
sS'order'
p251
F1523918876.121788
sS'objid'
p252
g8
(g12
S'/\x00\x00\x00\x00\x00\x00\x00'
p253
tp254
Rp255
sa(dp256
S'action'
p257
S'delete'
p258
sS'order'
p259
F1523918876.124433
sS'objid'
p260
g8
(g12
S'.\x00\x00\x00\x00\x00\x00\x00'
p261
tp262
Rp263
sa(dp264
S'action'
p265
S'delete'
p266
sS'order'
p267
F1523918876.127018
sS'objid'
p268
g8
(g12
S'-\x00\x00\x00\x00\x00\x00\x00'
p269
tp270
Rp271
sa(dp272
S'action'
p273
S'delete'
p274
sS'order'
p275
F1523918876.129658
sS'objid'
p276
g8
(g12
S',\x00\x00\x00\x00\x00\x00\x00'
p277
tp278
Rp279
sa(dp280
S'action'
p281
S'delete'
p282
sS'order'
p283
F1523918876.134656
sS'objid'
p284
g8
(g12
S'+\x00\x00\x00\x00\x00\x00\x00'
p285
tp286
Rp287
sa(dp288
S'action'
p289
S'delete'
p290
sS'order'
p291
F1523918876.137824
sS'objid'
p292
g8
(g12
S'*\x00\x00\x00\x00\x00\x00\x00'
p293
tp294
Rp295
sa(dp296
S'action'
p297
S'delete'
p298
sS'order'
p299
F1523918876.141023
sS'objid'
p300
g8
(g12
S')\x00\x00\x00\x00\x00\x00\x00'
p301
tp302
Rp303
sa(dp304
S'action'
p305
S'delete'
p306
sS'order'
p307
F1523918876.144358
sS'objid'
p308
g8
(g12
S'(\x00\x00\x00\x00\x00\x00\x00'
p309
tp310
Rp311
sa(dp312
S'action'
p313
S'delete'
p314
sS'order'
p315
F1523918876.147761
sS'objid'
p316
g8
(g12
S"'\x00\x00\x00\x00\x00\x00\x00"
p317
tp318
Rp319
sa(dp320
S'action'
p321
S'delete'
p322
sS'order'
p323
F1523918876.150767
sS'objid'
p324
g8
(g12
S'&\x00\x00\x00\x00\x00\x00\x00'
p325
tp326
Rp327
sa(dp328
S'action'
p329
S'delete'
p330
sS'order'
p331
F1523918876.153844
sS'objid'
p332
g8
(g12
S'%\x00\x00\x00\x00\x00\x00\x00'
p333
tp334
Rp335
sa(dp336
S'action'
p337
S'delete'
p338
sS'order'
p339
F1523918876.156965
sS'objid'
p340
g8
(g12
S'$\x00\x00\x00\x00\x00\x00\x00'
p341
tp342
Rp343
sa(dp344
S'action'
p345
S'delete'
p346
sS'order'
p347
F1523918876.160149
sS'objid'
p348
g8
(g12
S'"\x00\x00\x00\x00\x00\x00\x00'
p349
tp350
Rp351
sa(dp352
S'action'
p353
S'delete'
p354
sS'order'
p355
F1523918876.16339
sS'objid'
p356
g8
(g12
S'!\x00\x00\x00\x00\x00\x00\x00'
p357
tp358
Rp359
sa(dp360
S'action'
p361
S'delete'
p362
sS'order'
p363
F1523918876.166683
sS'objid'
p364
g8
(g12
S' \x00\x00\x00\x00\x00\x00\x00'
p365
tp366
Rp367
sa(dp368
S'action'
p369
S'delete'
p370
sS'order'
p371
F1523918876.17004
sS'objid'
p372
g8
(g12
S'\x1f\x00\x00\x00\x00\x00\x00\x00'
p373
tp374
Rp375
sa(dp376
S'action'
p377
S'delete'
p378
sS'order'
p379
F1523918876.173441
sS'objid'
p380
g8
(g12
S'\x1e\x00\x00\x00\x00\x00\x00\x00'
p381
tp382
Rp383
sa(dp384
S'action'
p385
S'delete'
p386
sS'order'
p387
F1523918876.176917
sS'objid'
p388
g8
(g12
S'\x1d\x00\x00\x00\x00\x00\x00\x00'
p389
tp390
Rp391
sa(dp392
S'action'
p393
S'delete'
p394
sS'order'
p395
F1523918876.180438
sS'objid'
p396
g8
(g12
S'\x1c\x00\x00\x00\x00\x00\x00\x00'
p397
tp398
Rp399
sa(dp400
S'action'
p401
S'delete'
p402
sS'order'
p403
F1523918876.184013
sS'objid'
p404
g8
(g12
S'\x1b\x00\x00\x00\x00\x00\x00\x00'
p405
tp406
Rp407
sa(dp408
S'action'
p409
S'delete'
p410
sS'order'
p411
F1523918876.187666
sS'objid'
p412
g8
(g12
S'\x1a\x00\x00\x00\x00\x00\x00\x00'
p413
tp414
Rp415
sa(dp416
S'action'
p417
S'delete'
p418
sS'order'
p419
F1523918876.191356
sS'objid'
p420
g8
(g12
S'\x19\x00\x00\x00\x00\x00\x00\x00'
p421
tp422
Rp423
sa(dp424
S'action'
p425
S'delete'
p426
sS'order'
p427
F1523918876.195105
sS'objid'
p428
g8
(g12
S'\x18\x00\x00\x00\x00\x00\x00\x00'
p429
tp430
Rp431
sa(dp432
S'action'
p433
S'delete'
p434
sS'order'
p435
F1523918876.198923
sS'objid'
p436
g8
(g12
S'\x17\x00\x00\x00\x00\x00\x00\x00'
p437
tp438
Rp439
sa(dp440
S'action'
p441
S'delete'
p442
sS'order'
p443
F1523918876.202798
sS'objid'
p444
g8
(g12
S'\x15\x00\x00\x00\x00\x00\x00\x00'
p445
tp446
Rp447
sa(dp448
S'action'
p449
S'delete'
p450
sS'order'
p451
F1523918876.206735
sS'objid'
p452
g8
(g12
S'\x14\x00\x00\x00\x00\x00\x00\x00'
p453
tp454
Rp455
sa(dp456
S'action'
p457
S'delete'
p458
sS'order'
p459
F1523918876.210729
sS'objid'
p460
g8
(g12
S'\x13\x00\x00\x00\x00\x00\x00\x00'
p461
tp462
Rp463
sa(dp464
S'action'
p465
S'delete'
p466
sS'order'
p467
F1523918876.214785
sS'objid'
p468
g8
(g12
S'\x12\x00\x00\x00\x00\x00\x00\x00'
p469
tp470
Rp471
sa(dp472
S'action'
p473
S'delete'
p474
sS'order'
p475
F1523918876.21889
sS'objid'
p476
g8
(g12
S'\x11\x00\x00\x00\x00\x00\x00\x00'
p477
tp478
Rp479
sa(dp480
S'action'
p481
S'delete'
p482
sS'order'
p483
F1523918876.223054
sS'objid'
p484
g8
(g12
S'\x0e\x00\x00\x00\x00\x00\x00\x00'
p485
tp486
Rp487
sa(dp488
S'action'
p489
S'delete'
p490
sS'order'
p491
F1523918876.227269
sS'objid'
p492
g8
(g12
S'\r\x00\x00\x00\x00\x00\x00\x00'
p493
tp494
Rp495
sa(dp496
S'action'
p497
S'delete'
p498
sS'order'
p499
F1523918876.232086
sS'objid'
p500
g8
(g12
S'\x0c\x00\x00\x00\x00\x00\x00\x00'
p501
tp502
Rp503
sa(dp504
S'action'
p505
S'delete'
p506
sS'order'
p507
F1523918876.236996
sS'objid'
p508
g8
(g12
S'\x0b\x00\x00\x00\x00\x00\x00\x00'
p509
tp510
Rp511
sa(dp512
S'action'
p513
S'delete'
p514
sS'order'
p515
F1523918876.241995
sS'objid'
p516
g8
(g12
S'\n\x00\x00\x00\x00\x00\x00\x00'
p517
tp518
Rp519
sa(dp520
S'action'
p521
S'delete'
p522
sS'order'
p523
F1523918876.246496
sS'objid'
p524
g8
(g12
S'\t\x00\x00\x00\x00\x00\x00\x00'
p525
tp526
Rp527
sa(dp528
S'action'
p529
S'delete'
p530
sS'order'
p531
F1523918876.251063
sS'objid'
p532
g8
(g12
S'\x08\x00\x00\x00\x00\x00\x00\x00'
p533
tp534
Rp535
sa(dp536
S'action'
p537
S'delete'
p538
sS'order'
p539
F1523918876.255649
sS'objid'
p540
g8
(g12
S'\x07\x00\x00\x00\x00\x00\x00\x00'
p541
tp542
Rp543
sa(dp544
S'action'
p545
S'delete'
p546
sS'order'
p547
F1523918876.26027
sS'objid'
p548
g8
(g12
S'\x03\x00\x00\x00\x00\x00\x00\x00'
p549
tp550
Rp551
sa(dp552
S'action'
p553
S'delete'
p554
sS'order'
p555
F1523918876.264977
sS'objid'
p556
g8
(g12
S'\x02\x00\x00\x00\x00\x00\x00\x00'
p557
tp558
Rp559
sa(dp560
S'action'
p561
S'delete'
p562
sS'order'
p563
F1523918876.269725
sS'objid'
p564
g8
(g12
S'\x01\x00\x00\x00\x00\x00\x00\x00'
p565
tp566
Rp567
sa.