(lp0
(dp1
S'action'
p2
S'join'
p3
sS'data_to_add'
p4
(lp5
sS'order'
p6
F1523983400.261603
sS'new_objid'
p7
cnumpy.core.multiarray
scalar
p8
(cnumpy
dtype
p9
(S'i8'
p10
I0
I1
tp11
Rp12
(I3
S'<'
p13
NNNI-1
I-1
I0
tp14
bS'<\x00\x00\x00\x00\x00\x00\x00'
p15
tp16
Rp17
sS'objids'
p18
(lp19
g8
(g12
S'\x00\x00\x00\x00\x00\x00\x00\x00'
p20
tp21
Rp22
ag8
(g12
S'\x01\x00\x00\x00\x00\x00\x00\x00'
p23
tp24
Rp25
asa(dp26
g2
g3
sg4
(lp27
sg6
F1523983405.074652
sg7
g8
(g12
S'=\x00\x00\x00\x00\x00\x00\x00'
p28
tp29
Rp30
sg18
(lp31
g8
(g12
S'\x02\x00\x00\x00\x00\x00\x00\x00'
p32
tp33
Rp34
ag8
(g12
S'\x03\x00\x00\x00\x00\x00\x00\x00'
p35
tp36
Rp37
ag8
(g12
S'\x04\x00\x00\x00\x00\x00\x00\x00'
p38
tp39
Rp40
ag8
(g12
S'<\x00\x00\x00\x00\x00\x00\x00'
p41
tp42
Rp43
asa(dp44
g2
g3
sg4
(lp45
sg6
F1523983408.810691
sg7
g8
(g12
S'>\x00\x00\x00\x00\x00\x00\x00'
p46
tp47
Rp48
sg18
(lp49
g8
(g12
S'\x05\x00\x00\x00\x00\x00\x00\x00'
p50
tp51
Rp52
ag8
(g12
S'\x06\x00\x00\x00\x00\x00\x00\x00'
p53
tp54
Rp55
ag8
(g12
S'\x07\x00\x00\x00\x00\x00\x00\x00'
p56
tp57
Rp58
ag8
(g12
S'=\x00\x00\x00\x00\x00\x00\x00'
p59
tp60
Rp61
asa(dp62
S'action'
p63
S'join'
p64
sS'data_to_add'
p65
(lp66
sS'order'
p67
F1523983422.551136
sS'new_objid'
p68
g8
(g12
S'@\x00\x00\x00\x00\x00\x00\x00'
p69
tp70
Rp71
sS'objids'
p72
(lp73
g8
(g12
S'\x08\x00\x00\x00\x00\x00\x00\x00'
p74
tp75
Rp76
ag8
(g12
S'>\x00\x00\x00\x00\x00\x00\x00'
p77
tp78
Rp79
asa(dp80
S'action'
p81
S'join'
p82
sS'data_to_add'
p83
(lp84
sS'order'
p85
F1523983433.323209
sS'new_objid'
p86
g8
(g12
S'A\x00\x00\x00\x00\x00\x00\x00'
p87
tp88
Rp89
sS'objids'
p90
(lp91
g8
(g12
S'\x18\x00\x00\x00\x00\x00\x00\x00'
p92
tp93
Rp94
ag8
(g12
S'\x1a\x00\x00\x00\x00\x00\x00\x00'
p95
tp96
Rp97
ag8
(g12
S'\x15\x00\x00\x00\x00\x00\x00\x00'
p98
tp99
Rp100
ag8
(g12
S'@\x00\x00\x00\x00\x00\x00\x00'
p101
tp102
Rp103
asa(dp104
S'action'
p105
S'join'
p106
sS'data_to_add'
p107
(lp108
sS'order'
p109
F1523983440.026775
sS'new_objid'
p110
g8
(g12
S'B\x00\x00\x00\x00\x00\x00\x00'
p111
tp112
Rp113
sS'objids'
p114
(lp115
g8
(g12
S"'\x00\x00\x00\x00\x00\x00\x00"
p116
tp117
Rp118
ag8
(g12
S'A\x00\x00\x00\x00\x00\x00\x00'
p119
tp120
Rp121
asa(dp122
S'action'
p123
S'join'
p124
sS'data_to_add'
p125
(lp126
sS'order'
p127
F1523983449.739442
sS'new_objid'
p128
g8
(g12
S'C\x00\x00\x00\x00\x00\x00\x00'
p129
tp130
Rp131
sS'objids'
p132
(lp133
g8
(g12
S'B\x00\x00\x00\x00\x00\x00\x00'
p134
tp135
Rp136
ag8
(g12
S'0\x00\x00\x00\x00\x00\x00\x00'
p137
tp138
Rp139
asa(dp140
S'action'
p141
S'delete'
p142
sS'order'
p143
F1523983459.446282
sS'objid'
p144
g8
(g12
S'1\x00\x00\x00\x00\x00\x00\x00'
p145
tp146
Rp147
sa(dp148
S'action'
p149
S'delete'
p150
sS'order'
p151
F1523983459.448791
sS'objid'
p152
g8
(g12
S'/\x00\x00\x00\x00\x00\x00\x00'
p153
tp154
Rp155
sa(dp156
S'action'
p157
S'delete'
p158
sS'order'
p159
F1523983459.451493
sS'objid'
p160
g8
(g12
S'.\x00\x00\x00\x00\x00\x00\x00'
p161
tp162
Rp163
sa(dp164
S'action'
p165
S'delete'
p166
sS'order'
p167
F1523983459.454258
sS'objid'
p168
g8
(g12
S'-\x00\x00\x00\x00\x00\x00\x00'
p169
tp170
Rp171
sa(dp172
S'action'
p173
S'delete'
p174
sS'order'
p175
F1523983459.456519
sS'objid'
p176
g8
(g12
S',\x00\x00\x00\x00\x00\x00\x00'
p177
tp178
Rp179
sa(dp180
S'action'
p181
S'delete'
p182
sS'order'
p183
F1523983459.45879
sS'objid'
p184
g8
(g12
S'+\x00\x00\x00\x00\x00\x00\x00'
p185
tp186
Rp187
sa(dp188
S'action'
p189
S'delete'
p190
sS'order'
p191
F1523983459.460874
sS'objid'
p192
g8
(g12
S'*\x00\x00\x00\x00\x00\x00\x00'
p193
tp194
Rp195
sa(dp196
S'action'
p197
S'delete'
p198
sS'order'
p199
F1523983459.462995
sS'objid'
p200
g8
(g12
S')\x00\x00\x00\x00\x00\x00\x00'
p201
tp202
Rp203
sa(dp204
S'action'
p205
S'delete'
p206
sS'order'
p207
F1523983459.465167
sS'objid'
p208
g8
(g12
S'(\x00\x00\x00\x00\x00\x00\x00'
p209
tp210
Rp211
sa(dp212
S'action'
p213
S'delete'
p214
sS'order'
p215
F1523983459.467528
sS'objid'
p216
g8
(g12
S'&\x00\x00\x00\x00\x00\x00\x00'
p217
tp218
Rp219
sa(dp220
S'action'
p221
S'delete'
p222
sS'order'
p223
F1523983459.470487
sS'objid'
p224
g8
(g12
S'%\x00\x00\x00\x00\x00\x00\x00'
p225
tp226
Rp227
sa(dp228
S'action'
p229
S'delete'
p230
sS'order'
p231
F1523983459.472863
sS'objid'
p232
g8
(g12
S'$\x00\x00\x00\x00\x00\x00\x00'
p233
tp234
Rp235
sa(dp236
S'action'
p237
S'delete'
p238
sS'order'
p239
F1523983459.475291
sS'objid'
p240
g8
(g12
S'#\x00\x00\x00\x00\x00\x00\x00'
p241
tp242
Rp243
sa(dp244
S'action'
p245
S'delete'
p246
sS'order'
p247
F1523983459.477757
sS'objid'
p248
g8
(g12
S'"\x00\x00\x00\x00\x00\x00\x00'
p249
tp250
Rp251
sa(dp252
S'action'
p253
S'delete'
p254
sS'order'
p255
F1523983459.480291
sS'objid'
p256
g8
(g12
S'!\x00\x00\x00\x00\x00\x00\x00'
p257
tp258
Rp259
sa(dp260
S'action'
p261
S'delete'
p262
sS'order'
p263
F1523983459.482858
sS'objid'
p264
g8
(g12
S' \x00\x00\x00\x00\x00\x00\x00'
p265
tp266
Rp267
sa(dp268
S'action'
p269
S'delete'
p270
sS'order'
p271
F1523983459.485498
sS'objid'
p272
g8
(g12
S'\x1f\x00\x00\x00\x00\x00\x00\x00'
p273
tp274
Rp275
sa(dp276
S'action'
p277
S'delete'
p278
sS'order'
p279
F1523983459.488202
sS'objid'
p280
g8
(g12
S'\x1e\x00\x00\x00\x00\x00\x00\x00'
p281
tp282
Rp283
sa(dp284
S'action'
p285
S'delete'
p286
sS'order'
p287
F1523983459.490949
sS'objid'
p288
g8
(g12
S'\x1d\x00\x00\x00\x00\x00\x00\x00'
p289
tp290
Rp291
sa(dp292
S'action'
p293
S'delete'
p294
sS'order'
p295
F1523983459.493748
sS'objid'
p296
g8
(g12
S'\x1c\x00\x00\x00\x00\x00\x00\x00'
p297
tp298
Rp299
sa(dp300
S'action'
p301
S'delete'
p302
sS'order'
p303
F1523983459.49661
sS'objid'
p304
g8
(g12
S'\x1b\x00\x00\x00\x00\x00\x00\x00'
p305
tp306
Rp307
sa(dp308
S'action'
p309
S'delete'
p310
sS'order'
p311
F1523983459.499543
sS'objid'
p312
g8
(g12
S'\x19\x00\x00\x00\x00\x00\x00\x00'
p313
tp314
Rp315
sa(dp316
S'action'
p317
S'delete'
p318
sS'order'
p319
F1523983459.502521
sS'objid'
p320
g8
(g12
S'\x17\x00\x00\x00\x00\x00\x00\x00'
p321
tp322
Rp323
sa(dp324
S'action'
p325
S'delete'
p326
sS'order'
p327
F1523983459.505573
sS'objid'
p328
g8
(g12
S'\x16\x00\x00\x00\x00\x00\x00\x00'
p329
tp330
Rp331
sa(dp332
S'action'
p333
S'delete'
p334
sS'order'
p335
F1523983459.508677
sS'objid'
p336
g8
(g12
S'\x14\x00\x00\x00\x00\x00\x00\x00'
p337
tp338
Rp339
sa(dp340
S'action'
p341
S'delete'
p342
sS'order'
p343
F1523983459.511827
sS'objid'
p344
g8
(g12
S'\x13\x00\x00\x00\x00\x00\x00\x00'
p345
tp346
Rp347
sa(dp348
S'action'
p349
S'delete'
p350
sS'order'
p351
F1523983459.515039
sS'objid'
p352
g8
(g12
S'\x12\x00\x00\x00\x00\x00\x00\x00'
p353
tp354
Rp355
sa(dp356
S'action'
p357
S'delete'
p358
sS'order'
p359
F1523983459.51832
sS'objid'
p360
g8
(g12
S'\x11\x00\x00\x00\x00\x00\x00\x00'
p361
tp362
Rp363
sa(dp364
S'action'
p365
S'delete'
p366
sS'order'
p367
F1523983459.521671
sS'objid'
p368
g8
(g12
S'\x10\x00\x00\x00\x00\x00\x00\x00'
p369
tp370
Rp371
sa(dp372
S'action'
p373
S'delete'
p374
sS'order'
p375
F1523983459.525077
sS'objid'
p376
g8
(g12
S'\x0f\x00\x00\x00\x00\x00\x00\x00'
p377
tp378
Rp379
sa(dp380
S'action'
p381
S'delete'
p382
sS'order'
p383
F1523983459.528564
sS'objid'
p384
g8
(g12
S'\x0e\x00\x00\x00\x00\x00\x00\x00'
p385
tp386
Rp387
sa(dp388
S'action'
p389
S'delete'
p390
sS'order'
p391
F1523983459.532107
sS'objid'
p392
g8
(g12
S'\r\x00\x00\x00\x00\x00\x00\x00'
p393
tp394
Rp395
sa(dp396
S'action'
p397
S'delete'
p398
sS'order'
p399
F1523983459.535681
sS'objid'
p400
g8
(g12
S'\x0c\x00\x00\x00\x00\x00\x00\x00'
p401
tp402
Rp403
sa(dp404
S'action'
p405
S'delete'
p406
sS'order'
p407
F1523983459.539351
sS'objid'
p408
g8
(g12
S'\x0b\x00\x00\x00\x00\x00\x00\x00'
p409
tp410
Rp411
sa(dp412
S'action'
p413
S'delete'
p414
sS'order'
p415
F1523983459.543036
sS'objid'
p416
g8
(g12
S'\n\x00\x00\x00\x00\x00\x00\x00'
p417
tp418
Rp419
sa(dp420
S'action'
p421
S'delete'
p422
sS'order'
p423
F1523983459.546818
sS'objid'
p424
g8
(g12
S'\t\x00\x00\x00\x00\x00\x00\x00'
p425
tp426
Rp427
sa.