(lp0
(dp1
S'action'
p2
S'join'
p3
sS'data_to_add'
p4
(lp5
sS'order'
p6
F1523996753.916452
sS'new_objid'
p7
cnumpy.core.multiarray
scalar
p8
(cnumpy
dtype
p9
(S'i8'
p10
I0
I1
tp11
Rp12
(I3
S'<'
p13
NNNI-1
I-1
I0
tp14
bS'c\x00\x00\x00\x00\x00\x00\x00'
p15
tp16
Rp17
sS'objids'
p18
(lp19
g8
(g12
S'\x00\x00\x00\x00\x00\x00\x00\x00'
p20
tp21
Rp22
ag8
(g12
S'\x01\x00\x00\x00\x00\x00\x00\x00'
p23
tp24
Rp25
asa(dp26
g2
g3
sg4
(lp27
sg6
F1523996756.815864
sg7
g8
(g12
S'd\x00\x00\x00\x00\x00\x00\x00'
p28
tp29
Rp30
sg18
(lp31
g8
(g12
S'\x02\x00\x00\x00\x00\x00\x00\x00'
p32
tp33
Rp34
ag8
(g12
S'\x03\x00\x00\x00\x00\x00\x00\x00'
p35
tp36
Rp37
ag8
(g12
S'c\x00\x00\x00\x00\x00\x00\x00'
p38
tp39
Rp40
asa(dp41
g2
g3
sg4
(lp42
sg6
F1523996760.624106
sg7
g8
(g12
S'e\x00\x00\x00\x00\x00\x00\x00'
p43
tp44
Rp45
sg18
(lp46
g8
(g12
S'\x04\x00\x00\x00\x00\x00\x00\x00'
p47
tp48
Rp49
ag8
(g12
S'\x05\x00\x00\x00\x00\x00\x00\x00'
p50
tp51
Rp52
ag8
(g12
S'\x06\x00\x00\x00\x00\x00\x00\x00'
p53
tp54
Rp55
ag8
(g12
S'\x07\x00\x00\x00\x00\x00\x00\x00'
p56
tp57
Rp58
ag8
(g12
S'd\x00\x00\x00\x00\x00\x00\x00'
p59
tp60
Rp61
asa(dp62
g2
g3
sg4
(lp63
sg6
F1523996766.136112
sg7
g8
(g12
S'f\x00\x00\x00\x00\x00\x00\x00'
p64
tp65
Rp66
sg18
(lp67
g8
(g12
S'\x08\x00\x00\x00\x00\x00\x00\x00'
p68
tp69
Rp70
ag8
(g12
S'\t\x00\x00\x00\x00\x00\x00\x00'
p71
tp72
Rp73
ag8
(g12
S'\n\x00\x00\x00\x00\x00\x00\x00'
p74
tp75
Rp76
ag8
(g12
S'\x0b\x00\x00\x00\x00\x00\x00\x00'
p77
tp78
Rp79
ag8
(g12
S'\x0c\x00\x00\x00\x00\x00\x00\x00'
p80
tp81
Rp82
ag8
(g12
S'e\x00\x00\x00\x00\x00\x00\x00'
p83
tp84
Rp85
asa(dp86
g2
g3
sg4
(lp87
sg6
F1523996769.056129
sg7
g8
(g12
S'g\x00\x00\x00\x00\x00\x00\x00'
p88
tp89
Rp90
sg18
(lp91
g8
(g12
S'\r\x00\x00\x00\x00\x00\x00\x00'
p92
tp93
Rp94
ag8
(g12
S'\x0e\x00\x00\x00\x00\x00\x00\x00'
p95
tp96
Rp97
ag8
(g12
S'\x0f\x00\x00\x00\x00\x00\x00\x00'
p98
tp99
Rp100
ag8
(g12
S'f\x00\x00\x00\x00\x00\x00\x00'
p101
tp102
Rp103
asa(dp104
g2
g3
sg4
(lp105
sg6
F1523996772.496641
sg7
g8
(g12
S'h\x00\x00\x00\x00\x00\x00\x00'
p106
tp107
Rp108
sg18
(lp109
g8
(g12
S'\x10\x00\x00\x00\x00\x00\x00\x00'
p110
tp111
Rp112
ag8
(g12
S'\x11\x00\x00\x00\x00\x00\x00\x00'
p113
tp114
Rp115
ag8
(g12
S'g\x00\x00\x00\x00\x00\x00\x00'
p116
tp117
Rp118
asa(dp119
S'action'
p120
S'join'
p121
sS'data_to_add'
p122
(lp123
sS'order'
p124
F1523996784.184858
sS'new_objid'
p125
g8
(g12
S'j\x00\x00\x00\x00\x00\x00\x00'
p126
tp127
Rp128
sS'objids'
p129
(lp130
g8
(g12
S'\x12\x00\x00\x00\x00\x00\x00\x00'
p131
tp132
Rp133
ag8
(g12
S'h\x00\x00\x00\x00\x00\x00\x00'
p134
tp135
Rp136
asa(dp137
S'action'
p138
S'join'
p139
sS'data_to_add'
p140
(lp141
sS'order'
p142
F1523996794.224657
sS'new_objid'
p143
g8
(g12
S'k\x00\x00\x00\x00\x00\x00\x00'
p144
tp145
Rp146
sS'objids'
p147
(lp148
g8
(g12
S'j\x00\x00\x00\x00\x00\x00\x00'
p149
tp150
Rp151
ag8
(g12
S'\x1f\x00\x00\x00\x00\x00\x00\x00'
p152
tp153
Rp154
ag8
(g12
S'\x1d\x00\x00\x00\x00\x00\x00\x00'
p155
tp156
Rp157
asa(dp158
S'action'
p159
S'join'
p160
sS'data_to_add'
p161
(lp162
sS'order'
p163
F1523996801.689185
sS'new_objid'
p164
g8
(g12
S'l\x00\x00\x00\x00\x00\x00\x00'
p165
tp166
Rp167
sS'objids'
p168
(lp169
g8
(g12
S'(\x00\x00\x00\x00\x00\x00\x00'
p170
tp171
Rp172
ag8
(g12
S'k\x00\x00\x00\x00\x00\x00\x00'
p173
tp174
Rp175
ag8
(g12
S'.\x00\x00\x00\x00\x00\x00\x00'
p176
tp177
Rp178
asa(dp179
S'action'
p180
S'join'
p181
sS'data_to_add'
p182
(lp183
sS'order'
p184
F1523996814.673173
sS'new_objid'
p185
g8
(g12
S'm\x00\x00\x00\x00\x00\x00\x00'
p186
tp187
Rp188
sS'objids'
p189
(lp190
g8
(g12
S'l\x00\x00\x00\x00\x00\x00\x00'
p191
tp192
Rp193
ag8
(g12
S'5\x00\x00\x00\x00\x00\x00\x00'
p194
tp195
Rp196
ag8
(g12
S'2\x00\x00\x00\x00\x00\x00\x00'
p197
tp198
Rp199
asa(dp200
S'action'
p201
S'join'
p202
sS'data_to_add'
p203
(lp204
sS'order'
p205
F1523996825.850431
sS'new_objid'
p206
g8
(g12
S'n\x00\x00\x00\x00\x00\x00\x00'
p207
tp208
Rp209
sS'objids'
p210
(lp211
g8
(g12
S'P\x00\x00\x00\x00\x00\x00\x00'
p212
tp213
Rp214
ag8
(g12
S'R\x00\x00\x00\x00\x00\x00\x00'
p215
tp216
Rp217
ag8
(g12
S'm\x00\x00\x00\x00\x00\x00\x00'
p218
tp219
Rp220
asa(dp221
S'action'
p222
S'join'
p223
sS'data_to_add'
p224
(lp225
sS'order'
p226
F1523996833.329065
sS'new_objid'
p227
g8
(g12
S'o\x00\x00\x00\x00\x00\x00\x00'
p228
tp229
Rp230
sS'objids'
p231
(lp232
g8
(g12
S'n\x00\x00\x00\x00\x00\x00\x00'
p233
tp234
Rp235
ag8
(g12
S'S\x00\x00\x00\x00\x00\x00\x00'
p236
tp237
Rp238
asa(dp239
S'action'
p240
S'join'
p241
sS'data_to_add'
p242
(lp243
sS'order'
p244
F1523996846.396895
sS'new_objid'
p245
g8
(g12
S'p\x00\x00\x00\x00\x00\x00\x00'
p246
tp247
Rp248
sS'objids'
p249
(lp250
g8
(g12
S'T\x00\x00\x00\x00\x00\x00\x00'
p251
tp252
Rp253
ag8
(g12
S'o\x00\x00\x00\x00\x00\x00\x00'
p254
tp255
Rp256
ag8
(g12
S'U\x00\x00\x00\x00\x00\x00\x00'
p257
tp258
Rp259
asa(dp260
S'action'
p261
S'delete'
p262
sS'order'
p263
F1523996852.78027
sS'objid'
p264
g8
(g12
S'X\x00\x00\x00\x00\x00\x00\x00'
p265
tp266
Rp267
sa(dp268
S'action'
p269
S'delete'
p270
sS'order'
p271
F1523996852.783328
sS'objid'
p272
g8
(g12
S'W\x00\x00\x00\x00\x00\x00\x00'
p273
tp274
Rp275
sa(dp276
S'action'
p277
S'delete'
p278
sS'order'
p279
F1523996852.786147
sS'objid'
p280
g8
(g12
S'V\x00\x00\x00\x00\x00\x00\x00'
p281
tp282
Rp283
sa(dp284
S'action'
p285
S'delete'
p286
sS'order'
p287
F1523996852.791357
sS'objid'
p288
g8
(g12
S'Q\x00\x00\x00\x00\x00\x00\x00'
p289
tp290
Rp291
sa(dp292
S'action'
p293
S'delete'
p294
sS'order'
p295
F1523996852.798517
sS'objid'
p296
g8
(g12
S'O\x00\x00\x00\x00\x00\x00\x00'
p297
tp298
Rp299
sa(dp300
S'action'
p301
S'delete'
p302
sS'order'
p303
F1523996852.804254
sS'objid'
p304
g8
(g12
S'N\x00\x00\x00\x00\x00\x00\x00'
p305
tp306
Rp307
sa(dp308
S'action'
p309
S'delete'
p310
sS'order'
p311
F1523996852.807298
sS'objid'
p312
g8
(g12
S'M\x00\x00\x00\x00\x00\x00\x00'
p313
tp314
Rp315
sa(dp316
S'action'
p317
S'delete'
p318
sS'order'
p319
F1523996852.810388
sS'objid'
p320
g8
(g12
S'L\x00\x00\x00\x00\x00\x00\x00'
p321
tp322
Rp323
sa(dp324
S'action'
p325
S'delete'
p326
sS'order'
p327
F1523996852.813533
sS'objid'
p328
g8
(g12
S'K\x00\x00\x00\x00\x00\x00\x00'
p329
tp330
Rp331
sa(dp332
S'action'
p333
S'delete'
p334
sS'order'
p335
F1523996852.816813
sS'objid'
p336
g8
(g12
S'J\x00\x00\x00\x00\x00\x00\x00'
p337
tp338
Rp339
sa(dp340
S'action'
p341
S'delete'
p342
sS'order'
p343
F1523996852.821253
sS'objid'
p344
g8
(g12
S'I\x00\x00\x00\x00\x00\x00\x00'
p345
tp346
Rp347
sa(dp348
S'action'
p349
S'delete'
p350
sS'order'
p351
F1523996852.829219
sS'objid'
p352
g8
(g12
S'H\x00\x00\x00\x00\x00\x00\x00'
p353
tp354
Rp355
sa(dp356
S'action'
p357
S'delete'
p358
sS'order'
p359
F1523996852.836721
sS'objid'
p360
g8
(g12
S'G\x00\x00\x00\x00\x00\x00\x00'
p361
tp362
Rp363
sa(dp364
S'action'
p365
S'delete'
p366
sS'order'
p367
F1523996852.840183
sS'objid'
p368
g8
(g12
S'F\x00\x00\x00\x00\x00\x00\x00'
p369
tp370
Rp371
sa(dp372
S'action'
p373
S'delete'
p374
sS'order'
p375
F1523996852.844555
sS'objid'
p376
g8
(g12
S'E\x00\x00\x00\x00\x00\x00\x00'
p377
tp378
Rp379
sa(dp380
S'action'
p381
S'delete'
p382
sS'order'
p383
F1523996852.852275
sS'objid'
p384
g8
(g12
S'D\x00\x00\x00\x00\x00\x00\x00'
p385
tp386
Rp387
sa(dp388
S'action'
p389
S'delete'
p390
sS'order'
p391
F1523996852.856402
sS'objid'
p392
g8
(g12
S'C\x00\x00\x00\x00\x00\x00\x00'
p393
tp394
Rp395
sa(dp396
S'action'
p397
S'delete'
p398
sS'order'
p399
F1523996852.860123
sS'objid'
p400
g8
(g12
S'B\x00\x00\x00\x00\x00\x00\x00'
p401
tp402
Rp403
sa(dp404
S'action'
p405
S'delete'
p406
sS'order'
p407
F1523996852.868885
sS'objid'
p408
g8
(g12
S'A\x00\x00\x00\x00\x00\x00\x00'
p409
tp410
Rp411
sa(dp412
S'action'
p413
S'delete'
p414
sS'order'
p415
F1523996852.87319
sS'objid'
p416
g8
(g12
S'@\x00\x00\x00\x00\x00\x00\x00'
p417
tp418
Rp419
sa(dp420
S'action'
p421
S'delete'
p422
sS'order'
p423
F1523996852.877019
sS'objid'
p424
g8
(g12
S'?\x00\x00\x00\x00\x00\x00\x00'
p425
tp426
Rp427
sa(dp428
S'action'
p429
S'delete'
p430
sS'order'
p431
F1523996852.880931
sS'objid'
p432
g8
(g12
S'>\x00\x00\x00\x00\x00\x00\x00'
p433
tp434
Rp435
sa(dp436
S'action'
p437
S'delete'
p438
sS'order'
p439
F1523996852.884896
sS'objid'
p440
g8
(g12
S'=\x00\x00\x00\x00\x00\x00\x00'
p441
tp442
Rp443
sa(dp444
S'action'
p445
S'delete'
p446
sS'order'
p447
F1523996852.888915
sS'objid'
p448
g8
(g12
S'<\x00\x00\x00\x00\x00\x00\x00'
p449
tp450
Rp451
sa(dp452
S'action'
p453
S'delete'
p454
sS'order'
p455
F1523996852.893003
sS'objid'
p456
g8
(g12
S';\x00\x00\x00\x00\x00\x00\x00'
p457
tp458
Rp459
sa(dp460
S'action'
p461
S'delete'
p462
sS'order'
p463
F1523996852.897124
sS'objid'
p464
g8
(g12
S':\x00\x00\x00\x00\x00\x00\x00'
p465
tp466
Rp467
sa(dp468
S'action'
p469
S'delete'
p470
sS'order'
p471
F1523996852.901305
sS'objid'
p472
g8
(g12
S'9\x00\x00\x00\x00\x00\x00\x00'
p473
tp474
Rp475
sa(dp476
S'action'
p477
S'delete'
p478
sS'order'
p479
F1523996852.905558
sS'objid'
p480
g8
(g12
S'8\x00\x00\x00\x00\x00\x00\x00'
p481
tp482
Rp483
sa(dp484
S'action'
p485
S'delete'
p486
sS'order'
p487
F1523996852.909888
sS'objid'
p488
g8
(g12
S'7\x00\x00\x00\x00\x00\x00\x00'
p489
tp490
Rp491
sa(dp492
S'action'
p493
S'delete'
p494
sS'order'
p495
F1523996852.914268
sS'objid'
p496
g8
(g12
S'6\x00\x00\x00\x00\x00\x00\x00'
p497
tp498
Rp499
sa(dp500
S'action'
p501
S'delete'
p502
sS'order'
p503
F1523996859.658238
sS'objid'
p504
g8
(g12
S'4\x00\x00\x00\x00\x00\x00\x00'
p505
tp506
Rp507
sa(dp508
S'action'
p509
S'delete'
p510
sS'order'
p511
F1523996859.666086
sS'objid'
p512
g8
(g12
S'3\x00\x00\x00\x00\x00\x00\x00'
p513
tp514
Rp515
sa(dp516
S'action'
p517
S'delete'
p518
sS'order'
p519
F1523996859.671272
sS'objid'
p520
g8
(g12
S'1\x00\x00\x00\x00\x00\x00\x00'
p521
tp522
Rp523
sa(dp524
S'action'
p525
S'delete'
p526
sS'order'
p527
F1523996859.675941
sS'objid'
p528
g8
(g12
S'0\x00\x00\x00\x00\x00\x00\x00'
p529
tp530
Rp531
sa(dp532
S'action'
p533
S'delete'
p534
sS'order'
p535
F1523996859.680621
sS'objid'
p536
g8
(g12
S'/\x00\x00\x00\x00\x00\x00\x00'
p537
tp538
Rp539
sa(dp540
S'action'
p541
S'delete'
p542
sS'order'
p543
F1523996859.685716
sS'objid'
p544
g8
(g12
S'-\x00\x00\x00\x00\x00\x00\x00'
p545
tp546
Rp547
sa(dp548
S'action'
p549
S'delete'
p550
sS'order'
p551
F1523996859.690651
sS'objid'
p552
g8
(g12
S',\x00\x00\x00\x00\x00\x00\x00'
p553
tp554
Rp555
sa(dp556
S'action'
p557
S'delete'
p558
sS'order'
p559
F1523996859.69551
sS'objid'
p560
g8
(g12
S'+\x00\x00\x00\x00\x00\x00\x00'
p561
tp562
Rp563
sa(dp564
S'action'
p565
S'delete'
p566
sS'order'
p567
F1523996859.700757
sS'objid'
p568
g8
(g12
S'*\x00\x00\x00\x00\x00\x00\x00'
p569
tp570
Rp571
sa(dp572
S'action'
p573
S'delete'
p574
sS'order'
p575
F1523996859.705805
sS'objid'
p576
g8
(g12
S')\x00\x00\x00\x00\x00\x00\x00'
p577
tp578
Rp579
sa(dp580
S'action'
p581
S'delete'
p582
sS'order'
p583
F1523996859.710815
sS'objid'
p584
g8
(g12
S"'\x00\x00\x00\x00\x00\x00\x00"
p585
tp586
Rp587
sa(dp588
S'action'
p589
S'delete'
p590
sS'order'
p591
F1523996859.71588
sS'objid'
p592
g8
(g12
S'&\x00\x00\x00\x00\x00\x00\x00'
p593
tp594
Rp595
sa(dp596
S'action'
p597
S'delete'
p598
sS'order'
p599
F1523996859.721018
sS'objid'
p600
g8
(g12
S'%\x00\x00\x00\x00\x00\x00\x00'
p601
tp602
Rp603
sa(dp604
S'action'
p605
S'delete'
p606
sS'order'
p607
F1523996859.726196
sS'objid'
p608
g8
(g12
S'$\x00\x00\x00\x00\x00\x00\x00'
p609
tp610
Rp611
sa(dp612
S'action'
p613
S'delete'
p614
sS'order'
p615
F1523996859.73151
sS'objid'
p616
g8
(g12
S'#\x00\x00\x00\x00\x00\x00\x00'
p617
tp618
Rp619
sa(dp620
S'action'
p621
S'delete'
p622
sS'order'
p623
F1523996859.736846
sS'objid'
p624
g8
(g12
S'"\x00\x00\x00\x00\x00\x00\x00'
p625
tp626
Rp627
sa(dp628
S'action'
p629
S'delete'
p630
sS'order'
p631
F1523996859.742266
sS'objid'
p632
g8
(g12
S'!\x00\x00\x00\x00\x00\x00\x00'
p633
tp634
Rp635
sa(dp636
S'action'
p637
S'delete'
p638
sS'order'
p639
F1523996859.748278
sS'objid'
p640
g8
(g12
S' \x00\x00\x00\x00\x00\x00\x00'
p641
tp642
Rp643
sa(dp644
S'action'
p645
S'delete'
p646
sS'order'
p647
F1523996859.753728
sS'objid'
p648
g8
(g12
S'\x1e\x00\x00\x00\x00\x00\x00\x00'
p649
tp650
Rp651
sa(dp652
S'action'
p653
S'delete'
p654
sS'order'
p655
F1523996859.759258
sS'objid'
p656
g8
(g12
S'\x1c\x00\x00\x00\x00\x00\x00\x00'
p657
tp658
Rp659
sa(dp660
S'action'
p661
S'delete'
p662
sS'order'
p663
F1523996859.764884
sS'objid'
p664
g8
(g12
S'\x1b\x00\x00\x00\x00\x00\x00\x00'
p665
tp666
Rp667
sa(dp668
S'action'
p669
S'delete'
p670
sS'order'
p671
F1523996859.770555
sS'objid'
p672
g8
(g12
S'\x1a\x00\x00\x00\x00\x00\x00\x00'
p673
tp674
Rp675
sa(dp676
S'action'
p677
S'delete'
p678
sS'order'
p679
F1523996859.776265
sS'objid'
p680
g8
(g12
S'\x19\x00\x00\x00\x00\x00\x00\x00'
p681
tp682
Rp683
sa(dp684
S'action'
p685
S'delete'
p686
sS'order'
p687
F1523996859.782027
sS'objid'
p688
g8
(g12
S'\x18\x00\x00\x00\x00\x00\x00\x00'
p689
tp690
Rp691
sa(dp692
S'action'
p693
S'delete'
p694
sS'order'
p695
F1523996859.78789
sS'objid'
p696
g8
(g12
S'\x17\x00\x00\x00\x00\x00\x00\x00'
p697
tp698
Rp699
sa(dp700
S'action'
p701
S'delete'
p702
sS'order'
p703
F1523996859.793778
sS'objid'
p704
g8
(g12
S'\x16\x00\x00\x00\x00\x00\x00\x00'
p705
tp706
Rp707
sa(dp708
S'action'
p709
S'delete'
p710
sS'order'
p711
F1523996859.799734
sS'objid'
p712
g8
(g12
S'\x15\x00\x00\x00\x00\x00\x00\x00'
p713
tp714
Rp715
sa(dp716
S'action'
p717
S'delete'
p718
sS'order'
p719
F1523996859.805723
sS'objid'
p720
g8
(g12
S'\x14\x00\x00\x00\x00\x00\x00\x00'
p721
tp722
Rp723
sa(dp724
S'action'
p725
S'delete'
p726
sS'order'
p727
F1523996859.811781
sS'objid'
p728
g8
(g12
S'\x13\x00\x00\x00\x00\x00\x00\x00'
p729
tp730
Rp731
sa.