(lp0
(dp1
S'action'
p2
S'join'
p3
sS'data_to_add'
p4
(lp5
sS'order'
p6
F1523907746.001276
sS'new_objid'
p7
cnumpy.core.multiarray
scalar
p8
(cnumpy
dtype
p9
(S'i8'
p10
I0
I1
tp11
Rp12
(I3
S'<'
p13
NNNI-1
I-1
I0
tp14
bS'\x1e\x00\x00\x00\x00\x00\x00\x00'
p15
tp16
Rp17
sS'objids'
p18
(lp19
g8
(g12
S'\x05\x00\x00\x00\x00\x00\x00\x00'
p20
tp21
Rp22
ag8
(g12
S'\x00\x00\x00\x00\x00\x00\x00\x00'
p23
tp24
Rp25
asa(dp26
S'action'
p27
S'delete'
p28
sS'order'
p29
F1523907759.536012
sS'objid'
p30
g8
(g12
S'\x13\x00\x00\x00\x00\x00\x00\x00'
p31
tp32
Rp33
sa(dp34
S'action'
p35
S'delete'
p36
sS'order'
p37
F1523907759.537121
sS'objid'
p38
g8
(g12
S'\x12\x00\x00\x00\x00\x00\x00\x00'
p39
tp40
Rp41
sa(dp42
S'action'
p43
S'delete'
p44
sS'order'
p45
F1523907759.538027
sS'objid'
p46
g8
(g12
S'\x11\x00\x00\x00\x00\x00\x00\x00'
p47
tp48
Rp49
sa(dp50
S'action'
p51
S'delete'
p52
sS'order'
p53
F1523907759.538977
sS'objid'
p54
g8
(g12
S'\x10\x00\x00\x00\x00\x00\x00\x00'
p55
tp56
Rp57
sa(dp58
S'action'
p59
S'delete'
p60
sS'order'
p61
F1523907759.539987
sS'objid'
p62
g8
(g12
S'\x0f\x00\x00\x00\x00\x00\x00\x00'
p63
tp64
Rp65
sa(dp66
S'action'
p67
S'delete'
p68
sS'order'
p69
F1523907759.541044
sS'objid'
p70
g8
(g12
S'\x0e\x00\x00\x00\x00\x00\x00\x00'
p71
tp72
Rp73
sa(dp74
S'action'
p75
S'delete'
p76
sS'order'
p77
F1523907759.542159
sS'objid'
p78
g8
(g12
S'\r\x00\x00\x00\x00\x00\x00\x00'
p79
tp80
Rp81
sa(dp82
S'action'
p83
S'delete'
p84
sS'order'
p85
F1523907759.543337
sS'objid'
p86
g8
(g12
S'\x0c\x00\x00\x00\x00\x00\x00\x00'
p87
tp88
Rp89
sa(dp90
S'action'
p91
S'delete'
p92
sS'order'
p93
F1523907759.544577
sS'objid'
p94
g8
(g12
S'\x0b\x00\x00\x00\x00\x00\x00\x00'
p95
tp96
Rp97
sa(dp98
S'action'
p99
S'delete'
p100
sS'order'
p101
F1523907759.545876
sS'objid'
p102
g8
(g12
S'\n\x00\x00\x00\x00\x00\x00\x00'
p103
tp104
Rp105
sa(dp106
S'action'
p107
S'delete'
p108
sS'order'
p109
F1523907759.547416
sS'objid'
p110
g8
(g12
S'\t\x00\x00\x00\x00\x00\x00\x00'
p111
tp112
Rp113
sa(dp114
S'action'
p115
S'delete'
p116
sS'order'
p117
F1523907759.548866
sS'objid'
p118
g8
(g12
S'\x08\x00\x00\x00\x00\x00\x00\x00'
p119
tp120
Rp121
sa(dp122
S'action'
p123
S'delete'
p124
sS'order'
p125
F1523907759.55036
sS'objid'
p126
g8
(g12
S'\x07\x00\x00\x00\x00\x00\x00\x00'
p127
tp128
Rp129
sa(dp130
S'action'
p131
S'delete'
p132
sS'order'
p133
F1523907759.551899
sS'objid'
p134
g8
(g12
S'\x06\x00\x00\x00\x00\x00\x00\x00'
p135
tp136
Rp137
sa(dp138
S'action'
p139
S'delete'
p140
sS'order'
p141
F1523907759.553491
sS'objid'
p142
g8
(g12
S'\x04\x00\x00\x00\x00\x00\x00\x00'
p143
tp144
Rp145
sa(dp146
S'action'
p147
S'delete'
p148
sS'order'
p149
F1523907759.555517
sS'objid'
p150
g8
(g12
S'\x03\x00\x00\x00\x00\x00\x00\x00'
p151
tp152
Rp153
sa(dp154
S'action'
p155
S'delete'
p156
sS'order'
p157
F1523907759.557221
sS'objid'
p158
g8
(g12
S'\x02\x00\x00\x00\x00\x00\x00\x00'
p159
tp160
Rp161
sa(dp162
S'action'
p163
S'delete'
p164
sS'order'
p165
F1523907759.558981
sS'objid'
p166
g8
(g12
S'\x01\x00\x00\x00\x00\x00\x00\x00'
p167
tp168
Rp169
sa.