(lp0
(dp1
S'action'
p2
S'join'
p3
sS'data_to_add'
p4
(lp5
sS'order'
p6
F1523908428.460077
sS'new_objid'
p7
cnumpy.core.multiarray
scalar
p8
(cnumpy
dtype
p9
(S'i8'
p10
I0
I1
tp11
Rp12
(I3
S'<'
p13
NNNI-1
I-1
I0
tp14
bS'"\x00\x00\x00\x00\x00\x00\x00'
p15
tp16
Rp17
sS'objids'
p18
(lp19
g8
(g12
S'\x00\x00\x00\x00\x00\x00\x00\x00'
p20
tp21
Rp22
ag8
(g12
S'\x05\x00\x00\x00\x00\x00\x00\x00'
p23
tp24
Rp25
asa(dp26
S'action'
p27
S'join'
p28
sS'data_to_add'
p29
(lp30
sS'order'
p31
F1523908441.601415
sS'new_objid'
p32
g8
(g12
S'#\x00\x00\x00\x00\x00\x00\x00'
p33
tp34
Rp35
sS'objids'
p36
(lp37
g8
(g12
S'"\x00\x00\x00\x00\x00\x00\x00'
p38
tp39
Rp40
ag8
(g12
S'\x14\x00\x00\x00\x00\x00\x00\x00'
p41
tp42
Rp43
asa(dp44
S'action'
p45
S'delete'
p46
sS'order'
p47
F1523908447.597903
sS'objid'
p48
g8
(g12
S'\x17\x00\x00\x00\x00\x00\x00\x00'
p49
tp50
Rp51
sa(dp52
S'action'
p53
S'delete'
p54
sS'order'
p55
F1523908447.600312
sS'objid'
p56
g8
(g12
S'\x16\x00\x00\x00\x00\x00\x00\x00'
p57
tp58
Rp59
sa(dp60
S'action'
p61
S'delete'
p62
sS'order'
p63
F1523908447.602743
sS'objid'
p64
g8
(g12
S'\x15\x00\x00\x00\x00\x00\x00\x00'
p65
tp66
Rp67
sa(dp68
S'action'
p69
S'delete'
p70
sS'order'
p71
F1523908447.604177
sS'objid'
p72
g8
(g12
S'\x13\x00\x00\x00\x00\x00\x00\x00'
p73
tp74
Rp75
sa(dp76
S'action'
p77
S'delete'
p78
sS'order'
p79
F1523908447.605634
sS'objid'
p80
g8
(g12
S'\x12\x00\x00\x00\x00\x00\x00\x00'
p81
tp82
Rp83
sa(dp84
S'action'
p85
S'delete'
p86
sS'order'
p87
F1523908447.60841
sS'objid'
p88
g8
(g12
S'\x11\x00\x00\x00\x00\x00\x00\x00'
p89
tp90
Rp91
sa(dp92
S'action'
p93
S'delete'
p94
sS'order'
p95
F1523908447.610224
sS'objid'
p96
g8
(g12
S'\x10\x00\x00\x00\x00\x00\x00\x00'
p97
tp98
Rp99
sa(dp100
S'action'
p101
S'delete'
p102
sS'order'
p103
F1523908447.611587
sS'objid'
p104
g8
(g12
S'\x0f\x00\x00\x00\x00\x00\x00\x00'
p105
tp106
Rp107
sa(dp108
S'action'
p109
S'delete'
p110
sS'order'
p111
F1523908447.613006
sS'objid'
p112
g8
(g12
S'\x0e\x00\x00\x00\x00\x00\x00\x00'
p113
tp114
Rp115
sa(dp116
S'action'
p117
S'delete'
p118
sS'order'
p119
F1523908447.614473
sS'objid'
p120
g8
(g12
S'\r\x00\x00\x00\x00\x00\x00\x00'
p121
tp122
Rp123
sa(dp124
S'action'
p125
S'delete'
p126
sS'order'
p127
F1523908447.61601
sS'objid'
p128
g8
(g12
S'\x0c\x00\x00\x00\x00\x00\x00\x00'
p129
tp130
Rp131
sa(dp132
S'action'
p133
S'delete'
p134
sS'order'
p135
F1523908447.617615
sS'objid'
p136
g8
(g12
S'\x0b\x00\x00\x00\x00\x00\x00\x00'
p137
tp138
Rp139
sa(dp140
S'action'
p141
S'delete'
p142
sS'order'
p143
F1523908447.619268
sS'objid'
p144
g8
(g12
S'\n\x00\x00\x00\x00\x00\x00\x00'
p145
tp146
Rp147
sa(dp148
S'action'
p149
S'delete'
p150
sS'order'
p151
F1523908447.62097
sS'objid'
p152
g8
(g12
S'\t\x00\x00\x00\x00\x00\x00\x00'
p153
tp154
Rp155
sa(dp156
S'action'
p157
S'delete'
p158
sS'order'
p159
F1523908447.622761
sS'objid'
p160
g8
(g12
S'\x08\x00\x00\x00\x00\x00\x00\x00'
p161
tp162
Rp163
sa(dp164
S'action'
p165
S'delete'
p166
sS'order'
p167
F1523908447.624594
sS'objid'
p168
g8
(g12
S'\x07\x00\x00\x00\x00\x00\x00\x00'
p169
tp170
Rp171
sa(dp172
S'action'
p173
S'delete'
p174
sS'order'
p175
F1523908447.626473
sS'objid'
p176
g8
(g12
S'\x06\x00\x00\x00\x00\x00\x00\x00'
p177
tp178
Rp179
sa(dp180
S'action'
p181
S'delete'
p182
sS'order'
p183
F1523908447.628509
sS'objid'
p184
g8
(g12
S'\x04\x00\x00\x00\x00\x00\x00\x00'
p185
tp186
Rp187
sa(dp188
S'action'
p189
S'delete'
p190
sS'order'
p191
F1523908447.630938
sS'objid'
p192
g8
(g12
S'\x03\x00\x00\x00\x00\x00\x00\x00'
p193
tp194
Rp195
sa(dp196
S'action'
p197
S'delete'
p198
sS'order'
p199
F1523908447.63316
sS'objid'
p200
g8
(g12
S'\x02\x00\x00\x00\x00\x00\x00\x00'
p201
tp202
Rp203
sa(dp204
S'action'
p205
S'delete'
p206
sS'order'
p207
F1523908447.635279
sS'objid'
p208
g8
(g12
S'\x01\x00\x00\x00\x00\x00\x00\x00'
p209
tp210
Rp211
sa.