(lp0
(dp1
S'action'
p2
S'join'
p3
sS'data_to_add'
p4
(lp5
sS'order'
p6
F1523928784.802992
sS'new_objid'
p7
cnumpy.core.multiarray
scalar
p8
(cnumpy
dtype
p9
(S'i8'
p10
I0
I1
tp11
Rp12
(I3
S'<'
p13
NNNI-1
I-1
I0
tp14
bS'\x11\x00\x00\x00\x00\x00\x00\x00'
p15
tp16
Rp17
sS'objids'
p18
(lp19
g8
(g12
S'\x00\x00\x00\x00\x00\x00\x00\x00'
p20
tp21
Rp22
ag8
(g12
S'\x05\x00\x00\x00\x00\x00\x00\x00'
p23
tp24
Rp25
asa(dp26
S'action'
p27
S'join'
p28
sS'data_to_add'
p29
(lp30
sS'order'
p31
F1523928787.439146
sS'new_objid'
p32
g8
(g12
S'\x12\x00\x00\x00\x00\x00\x00\x00'
p33
tp34
Rp35
sS'objids'
p36
(lp37
g8
(g12
S'\x06\x00\x00\x00\x00\x00\x00\x00'
p38
tp39
Rp40
ag8
(g12
S'\x11\x00\x00\x00\x00\x00\x00\x00'
p41
tp42
Rp43
asa(dp44
S'action'
p45
S'delete'
p46
sS'order'
p47
F1523928792.953855
sS'objid'
p48
g8
(g12
S'\x04\x00\x00\x00\x00\x00\x00\x00'
p49
tp50
Rp51
sa(dp52
S'action'
p53
S'delete'
p54
sS'order'
p55
F1523928792.955084
sS'objid'
p56
g8
(g12
S'\x03\x00\x00\x00\x00\x00\x00\x00'
p57
tp58
Rp59
sa(dp60
S'action'
p61
S'delete'
p62
sS'order'
p63
F1523928792.956637
sS'objid'
p64
g8
(g12
S'\x02\x00\x00\x00\x00\x00\x00\x00'
p65
tp66
Rp67
sa(dp68
S'action'
p69
S'delete'
p70
sS'order'
p71
F1523928792.958214
sS'objid'
p72
g8
(g12
S'\x01\x00\x00\x00\x00\x00\x00\x00'
p73
tp74
Rp75
sa.