(lp0
(dp1
S'action'
p2
S'join'
p3
sS'data_to_add'
p4
(lp5
sS'order'
p6
F1523897357.561953
sS'new_objid'
p7
cnumpy.core.multiarray
scalar
p8
(cnumpy
dtype
p9
(S'i8'
p10
I0
I1
tp11
Rp12
(I3
S'<'
p13
NNNI-1
I-1
I0
tp14
bS'4\x00\x00\x00\x00\x00\x00\x00'
p15
tp16
Rp17
sS'objids'
p18
(lp19
g8
(g12
S'\x03\x00\x00\x00\x00\x00\x00\x00'
p20
tp21
Rp22
ag8
(g12
S'\x02\x00\x00\x00\x00\x00\x00\x00'
p23
tp24
Rp25
asa(dp26
S'action'
p27
S'join'
p28
sS'data_to_add'
p29
(lp30
sS'order'
p31
F1523897373.870648
sS'new_objid'
p32
g8
(g12
S'6\x00\x00\x00\x00\x00\x00\x00'
p33
tp34
Rp35
sS'objids'
p36
(lp37
g8
(g12
S'\x05\x00\x00\x00\x00\x00\x00\x00'
p38
tp39
Rp40
ag8
(g12
S'\x06\x00\x00\x00\x00\x00\x00\x00'
p41
tp42
Rp43
ag8
(g12
S'4\x00\x00\x00\x00\x00\x00\x00'
p44
tp45
Rp46
asa(dp47
S'cut_frame_global'
p48
I1362
sS'cut_time_epoch'
p49
g8
(g9
(S'f8'
p50
I0
I1
tp51
Rp52
(I3
S'<'
p53
NNNI-1
I-1
I0
tp54
bS'\x0e^f\xaaY\xb4\xd6A'
p55
tp56
Rp57
sS'cut_frame_trajectory'
p58
g8
(g12
S'\x03\x00\x00\x00\x00\x00\x00\x00'
p59
tp60
Rp61
sS'objid'
p62
g8
(g12
S'\r\x00\x00\x00\x00\x00\x00\x00'
p63
tp64
Rp65
sS'action'
p66
S'cut'
p67
sS'order'
p68
F1523897416.443187
sS'new_objid'
p69
g8
(g12
S'9\x00\x00\x00\x00\x00\x00\x00'
p70
tp71
Rp72
sa(dp73
S'action'
p74
S'join'
p75
sS'data_to_add'
p76
(lp77
sS'order'
p78
F1523897423.70434
sS'new_objid'
p79
g8
(g12
S':\x00\x00\x00\x00\x00\x00\x00'
p80
tp81
Rp82
sS'objids'
p83
(lp84
g8
(g12
S'6\x00\x00\x00\x00\x00\x00\x00'
p85
tp86
Rp87
ag8
(g12
S'9\x00\x00\x00\x00\x00\x00\x00'
p88
tp89
Rp90
ag8
(g12
S'\x0e\x00\x00\x00\x00\x00\x00\x00'
p91
tp92
Rp93
asa(dp94
S'action'
p95
S'join'
p96
sS'data_to_add'
p97
(lp98
sS'order'
p99
F1523897447.92771
sS'new_objid'
p100
g8
(g12
S';\x00\x00\x00\x00\x00\x00\x00'
p101
tp102
Rp103
sS'objids'
p104
(lp105
g8
(g12
S':\x00\x00\x00\x00\x00\x00\x00'
p106
tp107
Rp108
ag8
(g12
S'#\x00\x00\x00\x00\x00\x00\x00'
p109
tp110
Rp111
ag8
(g12
S'%\x00\x00\x00\x00\x00\x00\x00'
p112
tp113
Rp114
asa(dp115
S'action'
p116
S'delete'
p117
sS'order'
p118
F1523897457.064492
sS'objid'
p119
g8
(g12
S')\x00\x00\x00\x00\x00\x00\x00'
p120
tp121
Rp122
sa(dp123
S'action'
p124
S'delete'
p125
sS'order'
p126
F1523897457.068011
sS'objid'
p127
g8
(g12
S'(\x00\x00\x00\x00\x00\x00\x00'
p128
tp129
Rp130
sa(dp131
S'action'
p132
S'delete'
p133
sS'order'
p134
F1523897457.071231
sS'objid'
p135
g8
(g12
S"'\x00\x00\x00\x00\x00\x00\x00"
p136
tp137
Rp138
sa(dp139
S'action'
p140
S'delete'
p141
sS'order'
p142
F1523897457.074519
sS'objid'
p143
g8
(g12
S'&\x00\x00\x00\x00\x00\x00\x00'
p144
tp145
Rp146
sa(dp147
S'action'
p148
S'delete'
p149
sS'order'
p150
F1523897457.078115
sS'objid'
p151
g8
(g12
S'$\x00\x00\x00\x00\x00\x00\x00'
p152
tp153
Rp154
sa(dp155
S'action'
p156
S'delete'
p157
sS'order'
p158
F1523897457.080488
sS'objid'
p159
g8
(g12
S'"\x00\x00\x00\x00\x00\x00\x00'
p160
tp161
Rp162
sa(dp163
S'action'
p164
S'delete'
p165
sS'order'
p166
F1523897457.082337
sS'objid'
p167
g8
(g12
S'!\x00\x00\x00\x00\x00\x00\x00'
p168
tp169
Rp170
sa(dp171
S'action'
p172
S'delete'
p173
sS'order'
p174
F1523897457.084361
sS'objid'
p175
g8
(g12
S' \x00\x00\x00\x00\x00\x00\x00'
p176
tp177
Rp178
sa(dp179
S'action'
p180
S'delete'
p181
sS'order'
p182
F1523897457.086288
sS'objid'
p183
g8
(g12
S'\x1f\x00\x00\x00\x00\x00\x00\x00'
p184
tp185
Rp186
sa(dp187
S'action'
p188
S'delete'
p189
sS'order'
p190
F1523897457.088288
sS'objid'
p191
g8
(g12
S'\x1e\x00\x00\x00\x00\x00\x00\x00'
p192
tp193
Rp194
sa(dp195
S'action'
p196
S'delete'
p197
sS'order'
p198
F1523897457.090329
sS'objid'
p199
g8
(g12
S'\x1d\x00\x00\x00\x00\x00\x00\x00'
p200
tp201
Rp202
sa(dp203
S'action'
p204
S'delete'
p205
sS'order'
p206
F1523897457.093241
sS'objid'
p207
g8
(g12
S'\x1c\x00\x00\x00\x00\x00\x00\x00'
p208
tp209
Rp210
sa(dp211
S'action'
p212
S'delete'
p213
sS'order'
p214
F1523897457.096644
sS'objid'
p215
g8
(g12
S'\x1b\x00\x00\x00\x00\x00\x00\x00'
p216
tp217
Rp218
sa(dp219
S'action'
p220
S'delete'
p221
sS'order'
p222
F1523897457.100483
sS'objid'
p223
g8
(g12
S'\x1a\x00\x00\x00\x00\x00\x00\x00'
p224
tp225
Rp226
sa(dp227
S'action'
p228
S'delete'
p229
sS'order'
p230
F1523897457.104483
sS'objid'
p231
g8
(g12
S'\x19\x00\x00\x00\x00\x00\x00\x00'
p232
tp233
Rp234
sa(dp235
S'action'
p236
S'delete'
p237
sS'order'
p238
F1523897457.108531
sS'objid'
p239
g8
(g12
S'\x18\x00\x00\x00\x00\x00\x00\x00'
p240
tp241
Rp242
sa(dp243
S'action'
p244
S'delete'
p245
sS'order'
p246
F1523897457.112727
sS'objid'
p247
g8
(g12
S'\x17\x00\x00\x00\x00\x00\x00\x00'
p248
tp249
Rp250
sa(dp251
S'action'
p252
S'delete'
p253
sS'order'
p254
F1523897457.116768
sS'objid'
p255
g8
(g12
S'\x16\x00\x00\x00\x00\x00\x00\x00'
p256
tp257
Rp258
sa(dp259
S'action'
p260
S'delete'
p261
sS'order'
p262
F1523897457.119335
sS'objid'
p263
g8
(g12
S'\x15\x00\x00\x00\x00\x00\x00\x00'
p264
tp265
Rp266
sa(dp267
S'action'
p268
S'delete'
p269
sS'order'
p270
F1523897457.121892
sS'objid'
p271
g8
(g12
S'\x14\x00\x00\x00\x00\x00\x00\x00'
p272
tp273
Rp274
sa(dp275
S'action'
p276
S'delete'
p277
sS'order'
p278
F1523897457.124526
sS'objid'
p279
g8
(g12
S'\x13\x00\x00\x00\x00\x00\x00\x00'
p280
tp281
Rp282
sa(dp283
S'action'
p284
S'delete'
p285
sS'order'
p286
F1523897457.127207
sS'objid'
p287
g8
(g12
S'\x12\x00\x00\x00\x00\x00\x00\x00'
p288
tp289
Rp290
sa(dp291
S'action'
p292
S'delete'
p293
sS'order'
p294
F1523897457.129939
sS'objid'
p295
g8
(g12
S'\x11\x00\x00\x00\x00\x00\x00\x00'
p296
tp297
Rp298
sa(dp299
S'action'
p300
S'delete'
p301
sS'order'
p302
F1523897457.132863
sS'objid'
p303
g8
(g12
S'\x10\x00\x00\x00\x00\x00\x00\x00'
p304
tp305
Rp306
sa(dp307
S'action'
p308
S'delete'
p309
sS'order'
p310
F1523897457.135738
sS'objid'
p311
g8
(g12
S'\x0f\x00\x00\x00\x00\x00\x00\x00'
p312
tp313
Rp314
sa(dp315
S'action'
p316
S'delete'
p317
sS'order'
p318
F1523897457.138643
sS'objid'
p319
g8
(g12
S'\r\x00\x00\x00\x00\x00\x00\x00'
p320
tp321
Rp322
sa(dp323
S'action'
p324
S'delete'
p325
sS'order'
p326
F1523897457.141619
sS'objid'
p327
g8
(g12
S'\x0c\x00\x00\x00\x00\x00\x00\x00'
p328
tp329
Rp330
sa(dp331
S'action'
p332
S'delete'
p333
sS'order'
p334
F1523897457.144652
sS'objid'
p335
g8
(g12
S'\x0b\x00\x00\x00\x00\x00\x00\x00'
p336
tp337
Rp338
sa(dp339
S'action'
p340
S'delete'
p341
sS'order'
p342
F1523897457.147768
sS'objid'
p343
g8
(g12
S'\n\x00\x00\x00\x00\x00\x00\x00'
p344
tp345
Rp346
sa(dp347
S'action'
p348
S'delete'
p349
sS'order'
p350
F1523897457.150915
sS'objid'
p351
g8
(g12
S'\t\x00\x00\x00\x00\x00\x00\x00'
p352
tp353
Rp354
sa(dp355
S'action'
p356
S'delete'
p357
sS'order'
p358
F1523897457.154131
sS'objid'
p359
g8
(g12
S'\x08\x00\x00\x00\x00\x00\x00\x00'
p360
tp361
Rp362
sa(dp363
S'action'
p364
S'delete'
p365
sS'order'
p366
F1523897457.157398
sS'objid'
p367
g8
(g12
S'\x07\x00\x00\x00\x00\x00\x00\x00'
p368
tp369
Rp370
sa(dp371
S'action'
p372
S'delete'
p373
sS'order'
p374
F1523897457.160737
sS'objid'
p375
g8
(g12
S'\x04\x00\x00\x00\x00\x00\x00\x00'
p376
tp377
Rp378
sa(dp379
S'action'
p380
S'delete'
p381
sS'order'
p382
F1523897457.164133
sS'objid'
p383
g8
(g12
S'\x01\x00\x00\x00\x00\x00\x00\x00'
p384
tp385
Rp386
sa(dp387
S'action'
p388
S'delete'
p389
sS'order'
p390
F1523897457.167565
sS'objid'
p391
g8
(g12
S'\x00\x00\x00\x00\x00\x00\x00\x00'
p392
tp393
Rp394
sa.