(lp0
(dp1
S'cut_frame_global'
p2
I12
sS'cut_time_epoch'
p3
cnumpy.core.multiarray
scalar
p4
(cnumpy
dtype
p5
(S'f8'
p6
I0
I1
tp7
Rp8
(I3
S'<'
p9
NNNI-1
I-1
I0
tp10
bS'\x07\x02_\xb2\xdd\xb5\xd6A'
p11
tp12
Rp13
sS'cut_frame_trajectory'
p14
g4
(g5
(S'i8'
p15
I0
I1
tp16
Rp17
(I3
S'<'
p18
NNNI-1
I-1
I0
tp19
bS'\n\x00\x00\x00\x00\x00\x00\x00'
p20
tp21
Rp22
sS'objid'
p23
g4
(g17
S'\x00\x00\x00\x00\x00\x00\x00\x00'
p24
tp25
Rp26
sS'action'
p27
S'cut'
p28
sS'order'
p29
F1524072656.906577
sS'new_objid'
p30
g4
(g17
S'9\x00\x00\x00\x00\x00\x00\x00'
p31
tp32
Rp33
sa(dp34
S'cut_frame_global'
p35
I13
sS'cut_time_epoch'
p36
g4
(g8
S'jie\xb2\xdd\xb5\xd6A'
p37
tp38
Rp39
sS'cut_frame_trajectory'
p40
g4
(g17
S'\x01\x00\x00\x00\x00\x00\x00\x00'
p41
tp42
Rp43
sS'objid'
p44
g4
(g17
S'9\x00\x00\x00\x00\x00\x00\x00'
p45
tp46
Rp47
sS'action'
p48
S'cut'
p49
sS'order'
p50
F1524072658.520965
sS'new_objid'
p51
g4
(g17
S':\x00\x00\x00\x00\x00\x00\x00'
p52
tp53
Rp54
sa(dp55
S'action'
p56
S'join'
p57
sS'data_to_add'
p58
(lp59
sS'order'
p60
F1524072668.064187
sS'new_objid'
p61
g4
(g17
S';\x00\x00\x00\x00\x00\x00\x00'
p62
tp63
Rp64
sS'objids'
p65
(lp66
g4
(g17
S'\x00\x00\x00\x00\x00\x00\x00\x00'
p67
tp68
Rp69
ag4
(g17
S'\x01\x00\x00\x00\x00\x00\x00\x00'
p70
tp71
Rp72
ag4
(g17
S':\x00\x00\x00\x00\x00\x00\x00'
p73
tp74
Rp75
asa(dp76
S'cut_frame_global'
p77
I20
sS'cut_time_epoch'
p78
g4
(g8
S'\x87\xd0\x8b\xb2\xdd\xb5\xd6A'
p79
tp80
Rp81
sS'cut_frame_trajectory'
p82
g4
(g17
S'\x06\x00\x00\x00\x00\x00\x00\x00'
p83
tp84
Rp85
sS'objid'
p86
g4
(g17
S'\x02\x00\x00\x00\x00\x00\x00\x00'
p87
tp88
Rp89
sS'action'
p90
S'cut'
p91
sS'order'
p92
F1524072678.123141
sS'new_objid'
p93
g4
(g17
S'<\x00\x00\x00\x00\x00\x00\x00'
p94
tp95
Rp96
sa(dp97
S'action'
p98
S'join'
p99
sS'data_to_add'
p100
(lp101
sS'order'
p102
F1524072684.192171
sS'new_objid'
p103
g4
(g17
S'=\x00\x00\x00\x00\x00\x00\x00'
p104
tp105
Rp106
sS'objids'
p107
(lp108
g4
(g17
S';\x00\x00\x00\x00\x00\x00\x00'
p109
tp110
Rp111
ag4
(g17
S'<\x00\x00\x00\x00\x00\x00\x00'
p112
tp113
Rp114
asa(dp115
S'cut_frame_global'
p116
I108
sS'cut_time_epoch'
p117
g4
(g8
S'\x82i\xc5\xb4\xdd\xb5\xd6A'
p118
tp119
Rp120
sS'cut_frame_trajectory'
p121
g4
(g17
S'\x01\x00\x00\x00\x00\x00\x00\x00'
p122
tp123
Rp124
sS'objid'
p125
g4
(g17
S'\x07\x00\x00\x00\x00\x00\x00\x00'
p126
tp127
Rp128
sS'action'
p129
S'cut'
p130
sS'order'
p131
F1524072713.723568
sS'new_objid'
p132
g4
(g17
S'>\x00\x00\x00\x00\x00\x00\x00'
p133
tp134
Rp135
sa(dp136
S'cut_frame_global'
p137
I108
sS'cut_time_epoch'
p138
g4
(g8
S'\x82i\xc5\xb4\xdd\xb5\xd6A'
p139
tp140
Rp141
sS'cut_frame_trajectory'
p142
g4
(g17
S'\x00\x00\x00\x00\x00\x00\x00\x00'
p143
tp144
Rp145
sS'objid'
p146
g4
(g17
S'>\x00\x00\x00\x00\x00\x00\x00'
p147
tp148
Rp149
sS'action'
p150
S'cut'
p151
sS'order'
p152
F1524072715.122909
sS'new_objid'
p153
g4
(g17
S'?\x00\x00\x00\x00\x00\x00\x00'
p154
tp155
Rp156
sa(dp157
S'cut_frame_global'
p158
I105
sS'cut_time_epoch'
p159
g4
(g8
S'\xa26\xb2\xb4\xdd\xb5\xd6A'
p160
tp161
Rp162
sS'cut_frame_trajectory'
p163
g4
(g17
S'g\x00\x00\x00\x00\x00\x00\x00'
p164
tp165
Rp166
sS'objid'
p167
g4
(g17
S'=\x00\x00\x00\x00\x00\x00\x00'
p168
tp169
Rp170
sS'action'
p171
S'cut'
p172
sS'order'
p173
F1524072717.587613
sS'new_objid'
p174
g4
(g17
S'@\x00\x00\x00\x00\x00\x00\x00'
p175
tp176
Rp177
sa(dp178
S'action'
p179
S'join'
p180
sS'data_to_add'
p181
(lp182
sS'order'
p183
F1524072722.83301
sS'new_objid'
p184
g4
(g17
S'A\x00\x00\x00\x00\x00\x00\x00'
p185
tp186
Rp187
sS'objids'
p188
(lp189
g4
(g17
S'=\x00\x00\x00\x00\x00\x00\x00'
p190
tp191
Rp192
ag4
(g17
S'?\x00\x00\x00\x00\x00\x00\x00'
p193
tp194
Rp195
asa(dp196
S'action'
p197
S'join'
p198
sS'data_to_add'
p199
(lp200
sS'order'
p201
F1524072739.177289
sS'new_objid'
p202
g4
(g17
S'B\x00\x00\x00\x00\x00\x00\x00'
p203
tp204
Rp205
sS'objids'
p206
(lp207
g4
(g17
S'\t\x00\x00\x00\x00\x00\x00\x00'
p208
tp209
Rp210
ag4
(g17
S'A\x00\x00\x00\x00\x00\x00\x00'
p211
tp212
Rp213
asa(dp214
S'action'
p215
S'join'
p216
sS'data_to_add'
p217
(lp218
sS'order'
p219
F1524073067.466918
sS'new_objid'
p220
g4
(g17
S'C\x00\x00\x00\x00\x00\x00\x00'
p221
tp222
Rp223
sS'objids'
p224
(lp225
g4
(g17
S'\r\x00\x00\x00\x00\x00\x00\x00'
p226
tp227
Rp228
ag4
(g17
S'\x0c\x00\x00\x00\x00\x00\x00\x00'
p229
tp230
Rp231
ag4
(g17
S'B\x00\x00\x00\x00\x00\x00\x00'
p232
tp233
Rp234
asa(dp235
S'action'
p236
S'join'
p237
sS'data_to_add'
p238
(lp239
sS'order'
p240
F1524073093.199992
sS'new_objid'
p241
g4
(g17
S'D\x00\x00\x00\x00\x00\x00\x00'
p242
tp243
Rp244
sS'objids'
p245
(lp246
g4
(g17
S'C\x00\x00\x00\x00\x00\x00\x00'
p247
tp248
Rp249
ag4
(g17
S'\x17\x00\x00\x00\x00\x00\x00\x00'
p250
tp251
Rp252
asa(dp253
S'action'
p254
S'join'
p255
sS'data_to_add'
p256
(lp257
sS'order'
p258
F1524073111.56857
sS'new_objid'
p259
g4
(g17
S'E\x00\x00\x00\x00\x00\x00\x00'
p260
tp261
Rp262
sS'objids'
p263
(lp264
g4
(g17
S'\x1b\x00\x00\x00\x00\x00\x00\x00'
p265
tp266
Rp267
ag4
(g17
S'\x1a\x00\x00\x00\x00\x00\x00\x00'
p268
tp269
Rp270
ag4
(g17
S'D\x00\x00\x00\x00\x00\x00\x00'
p271
tp272
Rp273
asa(dp274
S'action'
p275
S'join'
p276
sS'data_to_add'
p277
(lp278
sS'order'
p279
F1524073135.88081
sS'new_objid'
p280
g4
(g17
S'F\x00\x00\x00\x00\x00\x00\x00'
p281
tp282
Rp283
sS'objids'
p284
(lp285
g4
(g17
S'$\x00\x00\x00\x00\x00\x00\x00'
p286
tp287
Rp288
ag4
(g17
S'E\x00\x00\x00\x00\x00\x00\x00'
p289
tp290
Rp291
ag4
(g17
S'\x1f\x00\x00\x00\x00\x00\x00\x00'
p292
tp293
Rp294
asa(dp295
S'action'
p296
S'join'
p297
sS'data_to_add'
p298
(lp299
sS'order'
p300
F1524073153.477515
sS'new_objid'
p301
g4
(g17
S'G\x00\x00\x00\x00\x00\x00\x00'
p302
tp303
Rp304
sS'objids'
p305
(lp306
g4
(g17
S'%\x00\x00\x00\x00\x00\x00\x00'
p307
tp308
Rp309
ag4
(g17
S'F\x00\x00\x00\x00\x00\x00\x00'
p310
tp311
Rp312
asa(dp313
S'action'
p314
S'join'
p315
sS'data_to_add'
p316
(lp317
sS'order'
p318
F1524073174.945508
sS'new_objid'
p319
g4
(g17
S'H\x00\x00\x00\x00\x00\x00\x00'
p320
tp321
Rp322
sS'objids'
p323
(lp324
g4
(g17
S'+\x00\x00\x00\x00\x00\x00\x00'
p325
tp326
Rp327
ag4
(g17
S'G\x00\x00\x00\x00\x00\x00\x00'
p328
tp329
Rp330
ag4
(g17
S'*\x00\x00\x00\x00\x00\x00\x00'
p331
tp332
Rp333
ag4
(g17
S"'\x00\x00\x00\x00\x00\x00\x00"
p334
tp335
Rp336
asa(dp337
S'action'
p338
S'delete'
p339
sS'order'
p340
F1524073192.865479
sS'objid'
p341
g4
(g17
S'@\x00\x00\x00\x00\x00\x00\x00'
p342
tp343
Rp344
sa(dp345
S'action'
p346
S'delete'
p347
sS'order'
p348
F1524073192.871
sS'objid'
p349
g4
(g17
S'9\x00\x00\x00\x00\x00\x00\x00'
p350
tp351
Rp352
sa(dp353
S'action'
p354
S'delete'
p355
sS'order'
p356
F1524073192.876709
sS'objid'
p357
g4
(g17
S'-\x00\x00\x00\x00\x00\x00\x00'
p358
tp359
Rp360
sa(dp361
S'action'
p362
S'delete'
p363
sS'order'
p364
F1524073192.881896
sS'objid'
p365
g4
(g17
S',\x00\x00\x00\x00\x00\x00\x00'
p366
tp367
Rp368
sa(dp369
S'action'
p370
S'delete'
p371
sS'order'
p372
F1524073192.888986
sS'objid'
p373
g4
(g17
S')\x00\x00\x00\x00\x00\x00\x00'
p374
tp375
Rp376
sa(dp377
S'action'
p378
S'delete'
p379
sS'order'
p380
F1524073192.89558
sS'objid'
p381
g4
(g17
S'(\x00\x00\x00\x00\x00\x00\x00'
p382
tp383
Rp384
sa(dp385
S'action'
p386
S'delete'
p387
sS'order'
p388
F1524073192.899145
sS'objid'
p389
g4
(g17
S'&\x00\x00\x00\x00\x00\x00\x00'
p390
tp391
Rp392
sa(dp393
S'action'
p394
S'delete'
p395
sS'order'
p396
F1524073192.905577
sS'objid'
p397
g4
(g17
S'#\x00\x00\x00\x00\x00\x00\x00'
p398
tp399
Rp400
sa(dp401
S'action'
p402
S'delete'
p403
sS'order'
p404
F1524073192.912418
sS'objid'
p405
g4
(g17
S'"\x00\x00\x00\x00\x00\x00\x00'
p406
tp407
Rp408
sa(dp409
S'action'
p410
S'delete'
p411
sS'order'
p412
F1524073192.916328
sS'objid'
p413
g4
(g17
S'!\x00\x00\x00\x00\x00\x00\x00'
p414
tp415
Rp416
sa(dp417
S'action'
p418
S'delete'
p419
sS'order'
p420
F1524073192.922909
sS'objid'
p421
g4
(g17
S' \x00\x00\x00\x00\x00\x00\x00'
p422
tp423
Rp424
sa(dp425
S'action'
p426
S'delete'
p427
sS'order'
p428
F1524073192.929257
sS'objid'
p429
g4
(g17
S'\x1e\x00\x00\x00\x00\x00\x00\x00'
p430
tp431
Rp432
sa(dp433
S'action'
p434
S'delete'
p435
sS'order'
p436
F1524073192.933417
sS'objid'
p437
g4
(g17
S'\x1d\x00\x00\x00\x00\x00\x00\x00'
p438
tp439
Rp440
sa(dp441
S'action'
p442
S'delete'
p443
sS'order'
p444
F1524073192.937406
sS'objid'
p445
g4
(g17
S'\x1c\x00\x00\x00\x00\x00\x00\x00'
p446
tp447
Rp448
sa(dp449
S'action'
p450
S'delete'
p451
sS'order'
p452
F1524073192.941489
sS'objid'
p453
g4
(g17
S'\x19\x00\x00\x00\x00\x00\x00\x00'
p454
tp455
Rp456
sa(dp457
S'action'
p458
S'delete'
p459
sS'order'
p460
F1524073192.945886
sS'objid'
p461
g4
(g17
S'\x18\x00\x00\x00\x00\x00\x00\x00'
p462
tp463
Rp464
sa(dp465
S'action'
p466
S'delete'
p467
sS'order'
p468
F1524073192.950378
sS'objid'
p469
g4
(g17
S'\x16\x00\x00\x00\x00\x00\x00\x00'
p470
tp471
Rp472
sa(dp473
S'action'
p474
S'delete'
p475
sS'order'
p476
F1524073192.954747
sS'objid'
p477
g4
(g17
S'\x15\x00\x00\x00\x00\x00\x00\x00'
p478
tp479
Rp480
sa(dp481
S'action'
p482
S'delete'
p483
sS'order'
p484
F1524073192.959035
sS'objid'
p485
g4
(g17
S'\x14\x00\x00\x00\x00\x00\x00\x00'
p486
tp487
Rp488
sa(dp489
S'action'
p490
S'delete'
p491
sS'order'
p492
F1524073192.963462
sS'objid'
p493
g4
(g17
S'\x13\x00\x00\x00\x00\x00\x00\x00'
p494
tp495
Rp496
sa(dp497
S'action'
p498
S'delete'
p499
sS'order'
p500
F1524073192.969224
sS'objid'
p501
g4
(g17
S'\x12\x00\x00\x00\x00\x00\x00\x00'
p502
tp503
Rp504
sa(dp505
S'action'
p506
S'delete'
p507
sS'order'
p508
F1524073192.976734
sS'objid'
p509
g4
(g17
S'\x11\x00\x00\x00\x00\x00\x00\x00'
p510
tp511
Rp512
sa(dp513
S'action'
p514
S'delete'
p515
sS'order'
p516
F1524073192.982939
sS'objid'
p517
g4
(g17
S'\x10\x00\x00\x00\x00\x00\x00\x00'
p518
tp519
Rp520
sa(dp521
S'action'
p522
S'delete'
p523
sS'order'
p524
F1524073192.992392
sS'objid'
p525
g4
(g17
S'\x0f\x00\x00\x00\x00\x00\x00\x00'
p526
tp527
Rp528
sa(dp529
S'action'
p530
S'delete'
p531
sS'order'
p532
F1524073192.998358
sS'objid'
p533
g4
(g17
S'\x0e\x00\x00\x00\x00\x00\x00\x00'
p534
tp535
Rp536
sa(dp537
S'action'
p538
S'delete'
p539
sS'order'
p540
F1524073193.006457
sS'objid'
p541
g4
(g17
S'\x0b\x00\x00\x00\x00\x00\x00\x00'
p542
tp543
Rp544
sa(dp545
S'action'
p546
S'delete'
p547
sS'order'
p548
F1524073193.013565
sS'objid'
p549
g4
(g17
S'\n\x00\x00\x00\x00\x00\x00\x00'
p550
tp551
Rp552
sa(dp553
S'action'
p554
S'delete'
p555
sS'order'
p556
F1524073193.018491
sS'objid'
p557
g4
(g17
S'\x08\x00\x00\x00\x00\x00\x00\x00'
p558
tp559
Rp560
sa(dp561
S'action'
p562
S'delete'
p563
sS'order'
p564
F1524073193.023373
sS'objid'
p565
g4
(g17
S'\x07\x00\x00\x00\x00\x00\x00\x00'
p566
tp567
Rp568
sa(dp569
S'action'
p570
S'delete'
p571
sS'order'
p572
F1524073193.028672
sS'objid'
p573
g4
(g17
S'\x06\x00\x00\x00\x00\x00\x00\x00'
p574
tp575
Rp576
sa(dp577
S'action'
p578
S'delete'
p579
sS'order'
p580
F1524073193.033718
sS'objid'
p581
g4
(g17
S'\x05\x00\x00\x00\x00\x00\x00\x00'
p582
tp583
Rp584
sa(dp585
S'action'
p586
S'delete'
p587
sS'order'
p588
F1524073193.03875
sS'objid'
p589
g4
(g17
S'\x04\x00\x00\x00\x00\x00\x00\x00'
p590
tp591
Rp592
sa(dp593
S'action'
p594
S'delete'
p595
sS'order'
p596
F1524073193.043949
sS'objid'
p597
g4
(g17
S'\x03\x00\x00\x00\x00\x00\x00\x00'
p598
tp599
Rp600
sa(dp601
S'action'
p602
S'delete'
p603
sS'order'
p604
F1524073193.049179
sS'objid'
p605
g4
(g17
S'\x02\x00\x00\x00\x00\x00\x00\x00'
p606
tp607
Rp608
sa.