(lp0
(dp1
S'action'
p2
S'join'
p3
sS'data_to_add'
p4
(lp5
sS'order'
p6
F1523927772.063645
sS'new_objid'
p7
cnumpy.core.multiarray
scalar
p8
(cnumpy
dtype
p9
(S'i8'
p10
I0
I1
tp11
Rp12
(I3
S'<'
p13
NNNI-1
I-1
I0
tp14
bS'`\x00\x00\x00\x00\x00\x00\x00'
p15
tp16
Rp17
sS'objids'
p18
(lp19
g8
(g12
S'\x00\x00\x00\x00\x00\x00\x00\x00'
p20
tp21
Rp22
ag8
(g12
S'\x01\x00\x00\x00\x00\x00\x00\x00'
p23
tp24
Rp25
asa(dp26
g2
g3
sg4
(lp27
sg6
F1523927774.692266
sg7
g8
(g12
S'a\x00\x00\x00\x00\x00\x00\x00'
p28
tp29
Rp30
sg18
(lp31
g8
(g12
S'\x02\x00\x00\x00\x00\x00\x00\x00'
p32
tp33
Rp34
ag8
(g12
S'`\x00\x00\x00\x00\x00\x00\x00'
p35
tp36
Rp37
asa(dp38
S'action'
p39
S'join'
p40
sS'data_to_add'
p41
(lp42
sS'order'
p43
F1523927788.884443
sS'new_objid'
p44
g8
(g12
S'c\x00\x00\x00\x00\x00\x00\x00'
p45
tp46
Rp47
sS'objids'
p48
(lp49
g8
(g12
S'a\x00\x00\x00\x00\x00\x00\x00'
p50
tp51
Rp52
ag8
(g12
S'\x05\x00\x00\x00\x00\x00\x00\x00'
p53
tp54
Rp55
ag8
(g12
S'\x0b\x00\x00\x00\x00\x00\x00\x00'
p56
tp57
Rp58
asa(dp59
g39
g40
sg41
(lp60
sg43
F1523927797.357076
sg44
g8
(g12
S'd\x00\x00\x00\x00\x00\x00\x00'
p61
tp62
Rp63
sg48
(lp64
g8
(g12
S'\x1c\x00\x00\x00\x00\x00\x00\x00'
p65
tp66
Rp67
ag8
(g12
S'c\x00\x00\x00\x00\x00\x00\x00'
p68
tp69
Rp70
asa(dp71
g39
g40
sg41
(lp72
sg43
F1523927810.708916
sg44
g8
(g12
S'e\x00\x00\x00\x00\x00\x00\x00'
p73
tp74
Rp75
sg48
(lp76
g8
(g12
S'd\x00\x00\x00\x00\x00\x00\x00'
p77
tp78
Rp79
ag8
(g12
S'@\x00\x00\x00\x00\x00\x00\x00'
p80
tp81
Rp82
ag8
(g12
S'9\x00\x00\x00\x00\x00\x00\x00'
p83
tp84
Rp85
ag8
(g12
S'7\x00\x00\x00\x00\x00\x00\x00'
p86
tp87
Rp88
asa(dp89
S'cut_frame_global'
p90
I1686
sS'cut_time_epoch'
p91
g8
(g9
(S'f8'
p92
I0
I1
tp93
Rp94
(I3
S'<'
p95
NNNI-1
I-1
I0
tp96
bS'\x94\x1a{*\xa4\xb4\xd6A'
p97
tp98
Rp99
sS'cut_frame_trajectory'
p100
g8
(g12
S'\x03\x00\x00\x00\x00\x00\x00\x00'
p101
tp102
Rp103
sS'objid'
p104
g8
(g12
S'O\x00\x00\x00\x00\x00\x00\x00'
p105
tp106
Rp107
sS'action'
p108
S'cut'
p109
sS'order'
p110
F1523927857.040391
sS'new_objid'
p111
g8
(g12
S'h\x00\x00\x00\x00\x00\x00\x00'
p112
tp113
Rp114
sa(dp115
S'cut_frame_global'
p116
I1634
sS'cut_time_epoch'
p117
g8
(g94
S'\x02M.)\xa4\xb4\xd6A'
p118
tp119
Rp120
sS'cut_frame_trajectory'
p121
g8
(g12
S'\x17\x00\x00\x00\x00\x00\x00\x00'
p122
tp123
Rp124
sS'objid'
p125
g8
(g12
S'K\x00\x00\x00\x00\x00\x00\x00'
p126
tp127
Rp128
sS'action'
p129
S'cut'
p130
sS'order'
p131
F1523928122.012184
sS'new_objid'
p132
g8
(g12
S'j\x00\x00\x00\x00\x00\x00\x00'
p133
tp134
Rp135
sa(dp136
S'action'
p137
S'join'
p138
sS'data_to_add'
p139
(lp140
sS'order'
p141
F1523928131.002911
sS'new_objid'
p142
g8
(g12
S'k\x00\x00\x00\x00\x00\x00\x00'
p143
tp144
Rp145
sS'objids'
p146
(lp147
g8
(g12
S'j\x00\x00\x00\x00\x00\x00\x00'
p148
tp149
Rp150
ag8
(g12
S'e\x00\x00\x00\x00\x00\x00\x00'
p151
tp152
Rp153
asa(dp154
S'action'
p155
S'join'
p156
sS'data_to_add'
p157
(lp158
sS'order'
p159
F1523928154.497995
sS'new_objid'
p160
g8
(g12
S'l\x00\x00\x00\x00\x00\x00\x00'
p161
tp162
Rp163
sS'objids'
p164
(lp165
g8
(g12
S'h\x00\x00\x00\x00\x00\x00\x00'
p166
tp167
Rp168
ag8
(g12
S'k\x00\x00\x00\x00\x00\x00\x00'
p169
tp170
Rp171
asa(dp172
S'action'
p173
S'join'
p174
sS'data_to_add'
p175
(lp176
sS'order'
p177
F1523928163.37998
sS'new_objid'
p178
g8
(g12
S'm\x00\x00\x00\x00\x00\x00\x00'
p179
tp180
Rp181
sS'objids'
p182
(lp183
g8
(g12
S'l\x00\x00\x00\x00\x00\x00\x00'
p184
tp185
Rp186
ag8
(g12
S'T\x00\x00\x00\x00\x00\x00\x00'
p187
tp188
Rp189
asa(dp190
S'action'
p191
S'delete'
p192
sS'order'
p193
F1523928190.172983
sS'objid'
p194
g8
(g12
S'U\x00\x00\x00\x00\x00\x00\x00'
p195
tp196
Rp197
sa(dp198
S'action'
p199
S'delete'
p200
sS'order'
p201
F1523928190.17558
sS'objid'
p202
g8
(g12
S'S\x00\x00\x00\x00\x00\x00\x00'
p203
tp204
Rp205
sa(dp206
S'action'
p207
S'delete'
p208
sS'order'
p209
F1523928190.178446
sS'objid'
p210
g8
(g12
S'R\x00\x00\x00\x00\x00\x00\x00'
p211
tp212
Rp213
sa(dp214
S'action'
p215
S'delete'
p216
sS'order'
p217
F1523928190.181877
sS'objid'
p218
g8
(g12
S'Q\x00\x00\x00\x00\x00\x00\x00'
p219
tp220
Rp221
sa(dp222
S'action'
p223
S'delete'
p224
sS'order'
p225
F1523928190.185399
sS'objid'
p226
g8
(g12
S'P\x00\x00\x00\x00\x00\x00\x00'
p227
tp228
Rp229
sa(dp230
S'action'
p231
S'delete'
p232
sS'order'
p233
F1523928190.188342
sS'objid'
p234
g8
(g12
S'O\x00\x00\x00\x00\x00\x00\x00'
p235
tp236
Rp237
sa(dp238
S'action'
p239
S'delete'
p240
sS'order'
p241
F1523928190.190841
sS'objid'
p242
g8
(g12
S'N\x00\x00\x00\x00\x00\x00\x00'
p243
tp244
Rp245
sa(dp246
S'action'
p247
S'delete'
p248
sS'order'
p249
F1523928190.193404
sS'objid'
p250
g8
(g12
S'M\x00\x00\x00\x00\x00\x00\x00'
p251
tp252
Rp253
sa(dp254
S'action'
p255
S'delete'
p256
sS'order'
p257
F1523928190.196038
sS'objid'
p258
g8
(g12
S'L\x00\x00\x00\x00\x00\x00\x00'
p259
tp260
Rp261
sa(dp262
S'action'
p263
S'delete'
p264
sS'order'
p265
F1523928190.198701
sS'objid'
p266
g8
(g12
S'K\x00\x00\x00\x00\x00\x00\x00'
p267
tp268
Rp269
sa(dp270
S'action'
p271
S'delete'
p272
sS'order'
p273
F1523928190.201496
sS'objid'
p274
g8
(g12
S'J\x00\x00\x00\x00\x00\x00\x00'
p275
tp276
Rp277
sa(dp278
S'action'
p279
S'delete'
p280
sS'order'
p281
F1523928190.204353
sS'objid'
p282
g8
(g12
S'I\x00\x00\x00\x00\x00\x00\x00'
p283
tp284
Rp285
sa(dp286
S'action'
p287
S'delete'
p288
sS'order'
p289
F1523928190.207196
sS'objid'
p290
g8
(g12
S'H\x00\x00\x00\x00\x00\x00\x00'
p291
tp292
Rp293
sa(dp294
S'action'
p295
S'delete'
p296
sS'order'
p297
F1523928190.21012
sS'objid'
p298
g8
(g12
S'G\x00\x00\x00\x00\x00\x00\x00'
p299
tp300
Rp301
sa(dp302
S'action'
p303
S'delete'
p304
sS'order'
p305
F1523928190.213134
sS'objid'
p306
g8
(g12
S'F\x00\x00\x00\x00\x00\x00\x00'
p307
tp308
Rp309
sa(dp310
S'action'
p311
S'delete'
p312
sS'order'
p313
F1523928190.216161
sS'objid'
p314
g8
(g12
S'E\x00\x00\x00\x00\x00\x00\x00'
p315
tp316
Rp317
sa(dp318
S'action'
p319
S'delete'
p320
sS'order'
p321
F1523928190.219238
sS'objid'
p322
g8
(g12
S'D\x00\x00\x00\x00\x00\x00\x00'
p323
tp324
Rp325
sa(dp326
S'action'
p327
S'delete'
p328
sS'order'
p329
F1523928190.2224
sS'objid'
p330
g8
(g12
S'C\x00\x00\x00\x00\x00\x00\x00'
p331
tp332
Rp333
sa(dp334
S'action'
p335
S'delete'
p336
sS'order'
p337
F1523928190.225621
sS'objid'
p338
g8
(g12
S'B\x00\x00\x00\x00\x00\x00\x00'
p339
tp340
Rp341
sa(dp342
S'action'
p343
S'delete'
p344
sS'order'
p345
F1523928190.228926
sS'objid'
p346
g8
(g12
S'A\x00\x00\x00\x00\x00\x00\x00'
p347
tp348
Rp349
sa(dp350
S'action'
p351
S'delete'
p352
sS'order'
p353
F1523928190.23226
sS'objid'
p354
g8
(g12
S'?\x00\x00\x00\x00\x00\x00\x00'
p355
tp356
Rp357
sa(dp358
S'action'
p359
S'delete'
p360
sS'order'
p361
F1523928190.235655
sS'objid'
p362
g8
(g12
S'>\x00\x00\x00\x00\x00\x00\x00'
p363
tp364
Rp365
sa(dp366
S'action'
p367
S'delete'
p368
sS'order'
p369
F1523928190.239118
sS'objid'
p370
g8
(g12
S'=\x00\x00\x00\x00\x00\x00\x00'
p371
tp372
Rp373
sa(dp374
S'action'
p375
S'delete'
p376
sS'order'
p377
F1523928190.242642
sS'objid'
p378
g8
(g12
S'<\x00\x00\x00\x00\x00\x00\x00'
p379
tp380
Rp381
sa(dp382
S'action'
p383
S'delete'
p384
sS'order'
p385
F1523928190.246259
sS'objid'
p386
g8
(g12
S';\x00\x00\x00\x00\x00\x00\x00'
p387
tp388
Rp389
sa(dp390
S'action'
p391
S'delete'
p392
sS'order'
p393
F1523928190.249887
sS'objid'
p394
g8
(g12
S':\x00\x00\x00\x00\x00\x00\x00'
p395
tp396
Rp397
sa(dp398
S'action'
p399
S'delete'
p400
sS'order'
p401
F1523928190.253606
sS'objid'
p402
g8
(g12
S'8\x00\x00\x00\x00\x00\x00\x00'
p403
tp404
Rp405
sa(dp406
S'action'
p407
S'delete'
p408
sS'order'
p409
F1523928190.257464
sS'objid'
p410
g8
(g12
S'6\x00\x00\x00\x00\x00\x00\x00'
p411
tp412
Rp413
sa(dp414
S'action'
p415
S'delete'
p416
sS'order'
p417
F1523928190.262056
sS'objid'
p418
g8
(g12
S'5\x00\x00\x00\x00\x00\x00\x00'
p419
tp420
Rp421
sa(dp422
S'action'
p423
S'delete'
p424
sS'order'
p425
F1523928190.266491
sS'objid'
p426
g8
(g12
S'4\x00\x00\x00\x00\x00\x00\x00'
p427
tp428
Rp429
sa(dp430
S'action'
p431
S'delete'
p432
sS'order'
p433
F1523928190.27057
sS'objid'
p434
g8
(g12
S'3\x00\x00\x00\x00\x00\x00\x00'
p435
tp436
Rp437
sa(dp438
S'action'
p439
S'delete'
p440
sS'order'
p441
F1523928190.274599
sS'objid'
p442
g8
(g12
S'2\x00\x00\x00\x00\x00\x00\x00'
p443
tp444
Rp445
sa(dp446
S'action'
p447
S'delete'
p448
sS'order'
p449
F1523928190.278688
sS'objid'
p450
g8
(g12
S'1\x00\x00\x00\x00\x00\x00\x00'
p451
tp452
Rp453
sa(dp454
S'action'
p455
S'delete'
p456
sS'order'
p457
F1523928190.282802
sS'objid'
p458
g8
(g12
S'0\x00\x00\x00\x00\x00\x00\x00'
p459
tp460
Rp461
sa(dp462
S'action'
p463
S'delete'
p464
sS'order'
p465
F1523928190.286999
sS'objid'
p466
g8
(g12
S'/\x00\x00\x00\x00\x00\x00\x00'
p467
tp468
Rp469
sa(dp470
S'action'
p471
S'delete'
p472
sS'order'
p473
F1523928190.291241
sS'objid'
p474
g8
(g12
S'.\x00\x00\x00\x00\x00\x00\x00'
p475
tp476
Rp477
sa(dp478
S'action'
p479
S'delete'
p480
sS'order'
p481
F1523928190.295506
sS'objid'
p482
g8
(g12
S'-\x00\x00\x00\x00\x00\x00\x00'
p483
tp484
Rp485
sa(dp486
S'action'
p487
S'delete'
p488
sS'order'
p489
F1523928190.299883
sS'objid'
p490
g8
(g12
S',\x00\x00\x00\x00\x00\x00\x00'
p491
tp492
Rp493
sa(dp494
S'action'
p495
S'delete'
p496
sS'order'
p497
F1523928190.304284
sS'objid'
p498
g8
(g12
S'+\x00\x00\x00\x00\x00\x00\x00'
p499
tp500
Rp501
sa(dp502
S'action'
p503
S'delete'
p504
sS'order'
p505
F1523928190.308775
sS'objid'
p506
g8
(g12
S'*\x00\x00\x00\x00\x00\x00\x00'
p507
tp508
Rp509
sa(dp510
S'action'
p511
S'delete'
p512
sS'order'
p513
F1523928190.313277
sS'objid'
p514
g8
(g12
S')\x00\x00\x00\x00\x00\x00\x00'
p515
tp516
Rp517
sa(dp518
S'action'
p519
S'delete'
p520
sS'order'
p521
F1523928190.317862
sS'objid'
p522
g8
(g12
S'(\x00\x00\x00\x00\x00\x00\x00'
p523
tp524
Rp525
sa(dp526
S'action'
p527
S'delete'
p528
sS'order'
p529
F1523928190.322485
sS'objid'
p530
g8
(g12
S"'\x00\x00\x00\x00\x00\x00\x00"
p531
tp532
Rp533
sa(dp534
S'action'
p535
S'delete'
p536
sS'order'
p537
F1523928190.327207
sS'objid'
p538
g8
(g12
S'&\x00\x00\x00\x00\x00\x00\x00'
p539
tp540
Rp541
sa(dp542
S'action'
p543
S'delete'
p544
sS'order'
p545
F1523928190.331979
sS'objid'
p546
g8
(g12
S'%\x00\x00\x00\x00\x00\x00\x00'
p547
tp548
Rp549
sa(dp550
S'action'
p551
S'delete'
p552
sS'order'
p553
F1523928190.336776
sS'objid'
p554
g8
(g12
S'$\x00\x00\x00\x00\x00\x00\x00'
p555
tp556
Rp557
sa(dp558
S'action'
p559
S'delete'
p560
sS'order'
p561
F1523928190.341655
sS'objid'
p562
g8
(g12
S'#\x00\x00\x00\x00\x00\x00\x00'
p563
tp564
Rp565
sa(dp566
S'action'
p567
S'delete'
p568
sS'order'
p569
F1523928190.346585
sS'objid'
p570
g8
(g12
S'"\x00\x00\x00\x00\x00\x00\x00'
p571
tp572
Rp573
sa(dp574
S'action'
p575
S'delete'
p576
sS'order'
p577
F1523928190.351608
sS'objid'
p578
g8
(g12
S'!\x00\x00\x00\x00\x00\x00\x00'
p579
tp580
Rp581
sa(dp582
S'action'
p583
S'delete'
p584
sS'order'
p585
F1523928190.356673
sS'objid'
p586
g8
(g12
S' \x00\x00\x00\x00\x00\x00\x00'
p587
tp588
Rp589
sa(dp590
S'action'
p591
S'delete'
p592
sS'order'
p593
F1523928190.362574
sS'objid'
p594
g8
(g12
S'\x1f\x00\x00\x00\x00\x00\x00\x00'
p595
tp596
Rp597
sa(dp598
S'action'
p599
S'delete'
p600
sS'order'
p601
F1523928190.368388
sS'objid'
p602
g8
(g12
S'\x1e\x00\x00\x00\x00\x00\x00\x00'
p603
tp604
Rp605
sa(dp606
S'action'
p607
S'delete'
p608
sS'order'
p609
F1523928190.373841
sS'objid'
p610
g8
(g12
S'\x1d\x00\x00\x00\x00\x00\x00\x00'
p611
tp612
Rp613
sa(dp614
S'action'
p615
S'delete'
p616
sS'order'
p617
F1523928190.379217
sS'objid'
p618
g8
(g12
S'\x1b\x00\x00\x00\x00\x00\x00\x00'
p619
tp620
Rp621
sa(dp622
S'action'
p623
S'delete'
p624
sS'order'
p625
F1523928190.384563
sS'objid'
p626
g8
(g12
S'\x1a\x00\x00\x00\x00\x00\x00\x00'
p627
tp628
Rp629
sa(dp630
S'action'
p631
S'delete'
p632
sS'order'
p633
F1523928190.389978
sS'objid'
p634
g8
(g12
S'\x19\x00\x00\x00\x00\x00\x00\x00'
p635
tp636
Rp637
sa(dp638
S'action'
p639
S'delete'
p640
sS'order'
p641
F1523928190.395468
sS'objid'
p642
g8
(g12
S'\x18\x00\x00\x00\x00\x00\x00\x00'
p643
tp644
Rp645
sa(dp646
S'action'
p647
S'delete'
p648
sS'order'
p649
F1523928190.400985
sS'objid'
p650
g8
(g12
S'\x17\x00\x00\x00\x00\x00\x00\x00'
p651
tp652
Rp653
sa(dp654
S'action'
p655
S'delete'
p656
sS'order'
p657
F1523928190.406606
sS'objid'
p658
g8
(g12
S'\x16\x00\x00\x00\x00\x00\x00\x00'
p659
tp660
Rp661
sa(dp662
S'action'
p663
S'delete'
p664
sS'order'
p665
F1523928190.412283
sS'objid'
p666
g8
(g12
S'\x15\x00\x00\x00\x00\x00\x00\x00'
p667
tp668
Rp669
sa(dp670
S'action'
p671
S'delete'
p672
sS'order'
p673
F1523928190.417969
sS'objid'
p674
g8
(g12
S'\x14\x00\x00\x00\x00\x00\x00\x00'
p675
tp676
Rp677
sa(dp678
S'action'
p679
S'delete'
p680
sS'order'
p681
F1523928190.42374
sS'objid'
p682
g8
(g12
S'\x13\x00\x00\x00\x00\x00\x00\x00'
p683
tp684
Rp685
sa(dp686
S'action'
p687
S'delete'
p688
sS'order'
p689
F1523928190.429577
sS'objid'
p690
g8
(g12
S'\x12\x00\x00\x00\x00\x00\x00\x00'
p691
tp692
Rp693
sa(dp694
S'action'
p695
S'delete'
p696
sS'order'
p697
F1523928190.435493
sS'objid'
p698
g8
(g12
S'\x11\x00\x00\x00\x00\x00\x00\x00'
p699
tp700
Rp701
sa(dp702
S'action'
p703
S'delete'
p704
sS'order'
p705
F1523928190.441427
sS'objid'
p706
g8
(g12
S'\x10\x00\x00\x00\x00\x00\x00\x00'
p707
tp708
Rp709
sa(dp710
S'action'
p711
S'delete'
p712
sS'order'
p713
F1523928190.447454
sS'objid'
p714
g8
(g12
S'\x0f\x00\x00\x00\x00\x00\x00\x00'
p715
tp716
Rp717
sa(dp718
S'action'
p719
S'delete'
p720
sS'order'
p721
F1523928190.453544
sS'objid'
p722
g8
(g12
S'\x0e\x00\x00\x00\x00\x00\x00\x00'
p723
tp724
Rp725
sa(dp726
S'action'
p727
S'delete'
p728
sS'order'
p729
F1523928190.459631
sS'objid'
p730
g8
(g12
S'\r\x00\x00\x00\x00\x00\x00\x00'
p731
tp732
Rp733
sa(dp734
S'action'
p735
S'delete'
p736
sS'order'
p737
F1523928190.465815
sS'objid'
p738
g8
(g12
S'\x0c\x00\x00\x00\x00\x00\x00\x00'
p739
tp740
Rp741
sa(dp742
S'action'
p743
S'delete'
p744
sS'order'
p745
F1523928190.472086
sS'objid'
p746
g8
(g12
S'\n\x00\x00\x00\x00\x00\x00\x00'
p747
tp748
Rp749
sa(dp750
S'action'
p751
S'delete'
p752
sS'order'
p753
F1523928190.478394
sS'objid'
p754
g8
(g12
S'\t\x00\x00\x00\x00\x00\x00\x00'
p755
tp756
Rp757
sa(dp758
S'action'
p759
S'delete'
p760
sS'order'
p761
F1523928190.484743
sS'objid'
p762
g8
(g12
S'\x08\x00\x00\x00\x00\x00\x00\x00'
p763
tp764
Rp765
sa(dp766
S'action'
p767
S'delete'
p768
sS'order'
p769
F1523928190.491126
sS'objid'
p770
g8
(g12
S'\x07\x00\x00\x00\x00\x00\x00\x00'
p771
tp772
Rp773
sa(dp774
S'action'
p775
S'delete'
p776
sS'order'
p777
F1523928190.497581
sS'objid'
p778
g8
(g12
S'\x06\x00\x00\x00\x00\x00\x00\x00'
p779
tp780
Rp781
sa(dp782
S'action'
p783
S'delete'
p784
sS'order'
p785
F1523928190.504098
sS'objid'
p786
g8
(g12
S'\x04\x00\x00\x00\x00\x00\x00\x00'
p787
tp788
Rp789
sa(dp790
S'action'
p791
S'delete'
p792
sS'order'
p793
F1523928190.510634
sS'objid'
p794
g8
(g12
S'\x03\x00\x00\x00\x00\x00\x00\x00'
p795
tp796
Rp797
sa.