(lp0
(dp1
S'action'
p2
S'join'
p3
sS'data_to_add'
p4
(lp5
sS'order'
p6
F1523982943.442016
sS'new_objid'
p7
cnumpy.core.multiarray
scalar
p8
(cnumpy
dtype
p9
(S'i8'
p10
I0
I1
tp11
Rp12
(I3
S'<'
p13
NNNI-1
I-1
I0
tp14
bS'#\x00\x00\x00\x00\x00\x00\x00'
p15
tp16
Rp17
sS'objids'
p18
(lp19
g8
(g12
S'\x03\x00\x00\x00\x00\x00\x00\x00'
p20
tp21
Rp22
ag8
(g12
S'\x02\x00\x00\x00\x00\x00\x00\x00'
p23
tp24
Rp25
ag8
(g12
S'\x00\x00\x00\x00\x00\x00\x00\x00'
p26
tp27
Rp28
asa(dp29
S'action'
p30
S'join'
p31
sS'data_to_add'
p32
(lp33
sS'order'
p34
F1523982947.965244
sS'new_objid'
p35
g8
(g12
S'$\x00\x00\x00\x00\x00\x00\x00'
p36
tp37
Rp38
sS'objids'
p39
(lp40
g8
(g12
S'#\x00\x00\x00\x00\x00\x00\x00'
p41
tp42
Rp43
ag8
(g12
S'\x07\x00\x00\x00\x00\x00\x00\x00'
p44
tp45
Rp46
asa(dp47
S'action'
p48
S'join'
p49
sS'data_to_add'
p50
(lp51
sS'order'
p52
F1523982952.490209
sS'new_objid'
p53
g8
(g12
S'%\x00\x00\x00\x00\x00\x00\x00'
p54
tp55
Rp56
sS'objids'
p57
(lp58
g8
(g12
S'\n\x00\x00\x00\x00\x00\x00\x00'
p59
tp60
Rp61
ag8
(g12
S'$\x00\x00\x00\x00\x00\x00\x00'
p62
tp63
Rp64
asa(dp65
S'action'
p66
S'join'
p67
sS'data_to_add'
p68
(lp69
sS'order'
p70
F1523982957.626912
sS'new_objid'
p71
g8
(g12
S'&\x00\x00\x00\x00\x00\x00\x00'
p72
tp73
Rp74
sS'objids'
p75
(lp76
g8
(g12
S'%\x00\x00\x00\x00\x00\x00\x00'
p77
tp78
Rp79
ag8
(g12
S'\x13\x00\x00\x00\x00\x00\x00\x00'
p80
tp81
Rp82
ag8
(g12
S'\x16\x00\x00\x00\x00\x00\x00\x00'
p83
tp84
Rp85
asa(dp86
S'action'
p87
S'delete'
p88
sS'order'
p89
F1523982964.301756
sS'objid'
p90
g8
(g12
S'\x17\x00\x00\x00\x00\x00\x00\x00'
p91
tp92
Rp93
sa(dp94
S'action'
p95
S'delete'
p96
sS'order'
p97
F1523982964.303405
sS'objid'
p98
g8
(g12
S'\x15\x00\x00\x00\x00\x00\x00\x00'
p99
tp100
Rp101
sa(dp102
S'action'
p103
S'delete'
p104
sS'order'
p105
F1523982964.304872
sS'objid'
p106
g8
(g12
S'\x14\x00\x00\x00\x00\x00\x00\x00'
p107
tp108
Rp109
sa(dp110
S'action'
p111
S'delete'
p112
sS'order'
p113
F1523982964.306357
sS'objid'
p114
g8
(g12
S'\x12\x00\x00\x00\x00\x00\x00\x00'
p115
tp116
Rp117
sa(dp118
S'action'
p119
S'delete'
p120
sS'order'
p121
F1523982964.307918
sS'objid'
p122
g8
(g12
S'\x11\x00\x00\x00\x00\x00\x00\x00'
p123
tp124
Rp125
sa(dp126
S'action'
p127
S'delete'
p128
sS'order'
p129
F1523982964.309542
sS'objid'
p130
g8
(g12
S'\x10\x00\x00\x00\x00\x00\x00\x00'
p131
tp132
Rp133
sa(dp134
S'action'
p135
S'delete'
p136
sS'order'
p137
F1523982964.311672
sS'objid'
p138
g8
(g12
S'\x0f\x00\x00\x00\x00\x00\x00\x00'
p139
tp140
Rp141
sa(dp142
S'action'
p143
S'delete'
p144
sS'order'
p145
F1523982964.313364
sS'objid'
p146
g8
(g12
S'\x0e\x00\x00\x00\x00\x00\x00\x00'
p147
tp148
Rp149
sa(dp150
S'action'
p151
S'delete'
p152
sS'order'
p153
F1523982964.315064
sS'objid'
p154
g8
(g12
S'\r\x00\x00\x00\x00\x00\x00\x00'
p155
tp156
Rp157
sa(dp158
S'action'
p159
S'delete'
p160
sS'order'
p161
F1523982964.316832
sS'objid'
p162
g8
(g12
S'\x0c\x00\x00\x00\x00\x00\x00\x00'
p163
tp164
Rp165
sa(dp166
S'action'
p167
S'delete'
p168
sS'order'
p169
F1523982964.318634
sS'objid'
p170
g8
(g12
S'\x0b\x00\x00\x00\x00\x00\x00\x00'
p171
tp172
Rp173
sa(dp174
S'action'
p175
S'delete'
p176
sS'order'
p177
F1523982964.320513
sS'objid'
p178
g8
(g12
S'\t\x00\x00\x00\x00\x00\x00\x00'
p179
tp180
Rp181
sa(dp182
S'action'
p183
S'delete'
p184
sS'order'
p185
F1523982964.322441
sS'objid'
p186
g8
(g12
S'\x08\x00\x00\x00\x00\x00\x00\x00'
p187
tp188
Rp189
sa(dp190
S'action'
p191
S'delete'
p192
sS'order'
p193
F1523982964.324437
sS'objid'
p194
g8
(g12
S'\x06\x00\x00\x00\x00\x00\x00\x00'
p195
tp196
Rp197
sa(dp198
S'action'
p199
S'delete'
p200
sS'order'
p201
F1523982964.326478
sS'objid'
p202
g8
(g12
S'\x05\x00\x00\x00\x00\x00\x00\x00'
p203
tp204
Rp205
sa(dp206
S'action'
p207
S'delete'
p208
sS'order'
p209
F1523982964.328716
sS'objid'
p210
g8
(g12
S'\x04\x00\x00\x00\x00\x00\x00\x00'
p211
tp212
Rp213
sa(dp214
S'action'
p215
S'delete'
p216
sS'order'
p217
F1523982964.332409
sS'objid'
p218
g8
(g12
S'\x01\x00\x00\x00\x00\x00\x00\x00'
p219
tp220
Rp221
sa.