(lp0
(dp1
S'cut_frame_global'
p2
I266
sS'cut_time_epoch'
p3
cnumpy.core.multiarray
scalar
p4
(cnumpy
dtype
p5
(S'f8'
p6
I0
I1
tp7
Rp8
(I3
S'<'
p9
NNNI-1
I-1
I0
tp10
bS'\r\x87\xd4\xa9w\xb4\xd6A'
p11
tp12
Rp13
sS'cut_frame_trajectory'
p14
g4
(g5
(S'i8'
p15
I0
I1
tp16
Rp17
(I3
S'<'
p18
NNNI-1
I-1
I0
tp19
bS'\xf8\x00\x00\x00\x00\x00\x00\x00'
p20
tp21
Rp22
sS'objid'
p23
g4
(g17
S'\x01\x00\x00\x00\x00\x00\x00\x00'
p24
tp25
Rp26
sS'action'
p27
S'cut'
p28
sS'order'
p29
F1523908958.917536
sS'new_objid'
p30
g4
(g17
S',\x00\x00\x00\x00\x00\x00\x00'
p31
tp32
Rp33
sa(dp34
g27
S'join'
p35
sS'data_to_add'
p36
(lp37
sg29
F1523908964.502005
sg30
g4
(g17
S'-\x00\x00\x00\x00\x00\x00\x00'
p38
tp39
Rp40
sS'objids'
p41
(lp42
g4
(g17
S'\x00\x00\x00\x00\x00\x00\x00\x00'
p43
tp44
Rp45
ag4
(g17
S',\x00\x00\x00\x00\x00\x00\x00'
p46
tp47
Rp48
asa(dp49
S'cut_frame_global'
p50
I1102
sS'cut_time_epoch'
p51
g4
(g8
S'l\xed\xba\xbew\xb4\xd6A'
p52
tp53
Rp54
sS'cut_frame_trajectory'
p55
g4
(g17
S'\x13\x00\x00\x00\x00\x00\x00\x00'
p56
tp57
Rp58
sS'objid'
p59
g4
(g17
S'\r\x00\x00\x00\x00\x00\x00\x00'
p60
tp61
Rp62
sS'action'
p63
S'cut'
p64
sS'order'
p65
F1523908985.885517
sS'new_objid'
p66
g4
(g17
S'/\x00\x00\x00\x00\x00\x00\x00'
p67
tp68
Rp69
sa(dp70
S'action'
p71
S'join'
p72
sS'data_to_add'
p73
(lp74
sS'order'
p75
F1523908991.172039
sS'new_objid'
p76
g4
(g17
S'0\x00\x00\x00\x00\x00\x00\x00'
p77
tp78
Rp79
sS'objids'
p80
(lp81
g4
(g17
S'/\x00\x00\x00\x00\x00\x00\x00'
p82
tp83
Rp84
ag4
(g17
S'-\x00\x00\x00\x00\x00\x00\x00'
p85
tp86
Rp87
asa(dp88
S'cut_frame_global'
p89
I1292
sS'cut_time_epoch'
p90
g4
(g8
S'z\xedz\xc3w\xb4\xd6A'
p91
tp92
Rp93
sS'cut_frame_trajectory'
p94
g4
(g17
S'\xfa\x04\x00\x00\x00\x00\x00\x00'
p95
tp96
Rp97
sS'objid'
p98
g4
(g17
S'0\x00\x00\x00\x00\x00\x00\x00'
p99
tp100
Rp101
sS'action'
p102
S'cut'
p103
sS'order'
p104
F1523908998.758132
sS'new_objid'
p105
g4
(g17
S'1\x00\x00\x00\x00\x00\x00\x00'
p106
tp107
Rp108
sa(dp109
S'action'
p110
S'join'
p111
sS'data_to_add'
p112
(lp113
sS'order'
p114
F1523909006.979726
sS'new_objid'
p115
g4
(g17
S'2\x00\x00\x00\x00\x00\x00\x00'
p116
tp117
Rp118
sS'objids'
p119
(lp120
g4
(g17
S'0\x00\x00\x00\x00\x00\x00\x00'
p121
tp122
Rp123
ag4
(g17
S'\x12\x00\x00\x00\x00\x00\x00\x00'
p124
tp125
Rp126
asa(dp127
S'cut_frame_global'
p128
I1464
sS'cut_time_epoch'
p129
g4
(g8
S'9\xba\xc7\xc7w\xb4\xd6A'
p130
tp131
Rp132
sS'cut_frame_trajectory'
p133
g4
(g17
S'\xa6\x05\x00\x00\x00\x00\x00\x00'
p134
tp135
Rp136
sS'objid'
p137
g4
(g17
S'2\x00\x00\x00\x00\x00\x00\x00'
p138
tp139
Rp140
sS'action'
p141
S'cut'
p142
sS'order'
p143
F1523909014.222407
sS'new_objid'
p144
g4
(g17
S'3\x00\x00\x00\x00\x00\x00\x00'
p145
tp146
Rp147
sa(dp148
S'action'
p149
S'join'
p150
sS'data_to_add'
p151
(lp152
sS'order'
p153
F1523909020.356345
sS'new_objid'
p154
g4
(g17
S'4\x00\x00\x00\x00\x00\x00\x00'
p155
tp156
Rp157
sS'objids'
p158
(lp159
g4
(g17
S'\x17\x00\x00\x00\x00\x00\x00\x00'
p160
tp161
Rp162
ag4
(g17
S'2\x00\x00\x00\x00\x00\x00\x00'
p163
tp164
Rp165
asa(dp166
S'action'
p167
S'join'
p168
sS'data_to_add'
p169
(lp170
sS'order'
p171
F1523909028.668925
sS'new_objid'
p172
g4
(g17
S'5\x00\x00\x00\x00\x00\x00\x00'
p173
tp174
Rp175
sS'objids'
p176
(lp177
g4
(g17
S'\x1b\x00\x00\x00\x00\x00\x00\x00'
p178
tp179
Rp180
ag4
(g17
S'4\x00\x00\x00\x00\x00\x00\x00'
p181
tp182
Rp183
asa(dp184
S'cut_frame_global'
p185
I1642
sS'cut_time_epoch'
p186
g4
(g8
S'V\xed:\xccw\xb4\xd6A'
p187
tp188
Rp189
sS'cut_frame_trajectory'
p190
g4
(g17
S'X\x06\x00\x00\x00\x00\x00\x00'
p191
tp192
Rp193
sS'objid'
p194
g4
(g17
S'5\x00\x00\x00\x00\x00\x00\x00'
p195
tp196
Rp197
sS'action'
p198
S'cut'
p199
sS'order'
p200
F1523909039.359025
sS'new_objid'
p201
g4
(g17
S'6\x00\x00\x00\x00\x00\x00\x00'
p202
tp203
Rp204
sa(dp205
S'cut_frame_global'
p206
I1642
sS'cut_time_epoch'
p207
g4
(g8
S'V\xed:\xccw\xb4\xd6A'
p208
tp209
Rp210
sS'cut_frame_trajectory'
p211
g4
(g17
S'\x00\x00\x00\x00\x00\x00\x00\x00'
p212
tp213
Rp214
sS'objid'
p215
g4
(g17
S'6\x00\x00\x00\x00\x00\x00\x00'
p216
tp217
Rp218
sS'action'
p219
S'cut'
p220
sS'order'
p221
F1523909040.793742
sS'new_objid'
p222
g4
(g17
S'7\x00\x00\x00\x00\x00\x00\x00'
p223
tp224
Rp225
sa(dp226
S'cut_frame_global'
p227
I1642
sS'cut_time_epoch'
p228
g4
(g8
S'V\xed:\xccw\xb4\xd6A'
p229
tp230
Rp231
sS'cut_frame_trajectory'
p232
g4
(g17
S'\x00\x00\x00\x00\x00\x00\x00\x00'
p233
tp234
Rp235
sS'objid'
p236
g4
(g17
S'7\x00\x00\x00\x00\x00\x00\x00'
p237
tp238
Rp239
sS'action'
p240
S'cut'
p241
sS'order'
p242
F1523909041.480183
sS'new_objid'
p243
g4
(g17
S'8\x00\x00\x00\x00\x00\x00\x00'
p244
tp245
Rp246
sa(dp247
S'cut_frame_global'
p248
I1642
sS'cut_time_epoch'
p249
g4
(g8
S'V\xed:\xccw\xb4\xd6A'
p250
tp251
Rp252
sS'cut_frame_trajectory'
p253
g4
(g17
S'\x00\x00\x00\x00\x00\x00\x00\x00'
p254
tp255
Rp256
sS'objid'
p257
g4
(g17
S'8\x00\x00\x00\x00\x00\x00\x00'
p258
tp259
Rp260
sS'action'
p261
S'cut'
p262
sS'order'
p263
F1523909042.210012
sS'new_objid'
p264
g4
(g17
S'9\x00\x00\x00\x00\x00\x00\x00'
p265
tp266
Rp267
sa(dp268
S'cut_frame_global'
p269
I1756
sS'cut_time_epoch'
p270
g4
(g8
S'\x07\x87\x14\xcfw\xb4\xd6A'
p271
tp272
Rp273
sS'cut_frame_trajectory'
p274
g4
(g17
S'r\x00\x00\x00\x00\x00\x00\x00'
p275
tp276
Rp277
sS'objid'
p278
g4
(g17
S'9\x00\x00\x00\x00\x00\x00\x00'
p279
tp280
Rp281
sS'action'
p282
S'cut'
p283
sS'order'
p284
F1523909043.982436
sS'new_objid'
p285
g4
(g17
S':\x00\x00\x00\x00\x00\x00\x00'
p286
tp287
Rp288
sa(dp289
S'action'
p290
S'join'
p291
sS'data_to_add'
p292
(lp293
sS'order'
p294
F1523909049.357428
sS'new_objid'
p295
g4
(g17
S';\x00\x00\x00\x00\x00\x00\x00'
p296
tp297
Rp298
sS'objids'
p299
(lp300
g4
(g17
S'9\x00\x00\x00\x00\x00\x00\x00'
p301
tp302
Rp303
ag4
(g17
S'!\x00\x00\x00\x00\x00\x00\x00'
p304
tp305
Rp306
asa(dp307
S'action'
p308
S'join'
p309
sS'data_to_add'
p310
(lp311
sS'order'
p312
F1523909068.297695
sS'new_objid'
p313
g4
(g17
S'<\x00\x00\x00\x00\x00\x00\x00'
p314
tp315
Rp316
sS'objids'
p317
(lp318
g4
(g17
S';\x00\x00\x00\x00\x00\x00\x00'
p319
tp320
Rp321
ag4
(g17
S'5\x00\x00\x00\x00\x00\x00\x00'
p322
tp323
Rp324
asa(dp325
S'action'
p326
S'delete'
p327
sS'order'
p328
F1523909076.301037
sS'objid'
p329
g4
(g17
S':\x00\x00\x00\x00\x00\x00\x00'
p330
tp331
Rp332
sa(dp333
S'action'
p334
S'delete'
p335
sS'order'
p336
F1523909076.306584
sS'objid'
p337
g4
(g17
S'3\x00\x00\x00\x00\x00\x00\x00'
p338
tp339
Rp340
sa(dp341
S'action'
p342
S'delete'
p343
sS'order'
p344
F1523909076.312651
sS'objid'
p345
g4
(g17
S'1\x00\x00\x00\x00\x00\x00\x00'
p346
tp347
Rp348
sa(dp349
S'action'
p350
S'delete'
p351
sS'order'
p352
F1523909076.317206
sS'objid'
p353
g4
(g17
S' \x00\x00\x00\x00\x00\x00\x00'
p354
tp355
Rp356
sa(dp357
S'action'
p358
S'delete'
p359
sS'order'
p360
F1523909076.320897
sS'objid'
p361
g4
(g17
S'\x1f\x00\x00\x00\x00\x00\x00\x00'
p362
tp363
Rp364
sa(dp365
S'action'
p366
S'delete'
p367
sS'order'
p368
F1523909076.324695
sS'objid'
p369
g4
(g17
S'\x1e\x00\x00\x00\x00\x00\x00\x00'
p370
tp371
Rp372
sa(dp373
S'action'
p374
S'delete'
p375
sS'order'
p376
F1523909076.328239
sS'objid'
p377
g4
(g17
S'\x1d\x00\x00\x00\x00\x00\x00\x00'
p378
tp379
Rp380
sa(dp381
S'action'
p382
S'delete'
p383
sS'order'
p384
F1523909076.331745
sS'objid'
p385
g4
(g17
S'\x1c\x00\x00\x00\x00\x00\x00\x00'
p386
tp387
Rp388
sa(dp389
S'action'
p390
S'delete'
p391
sS'order'
p392
F1523909076.335328
sS'objid'
p393
g4
(g17
S'\x1a\x00\x00\x00\x00\x00\x00\x00'
p394
tp395
Rp396
sa(dp397
S'action'
p398
S'delete'
p399
sS'order'
p400
F1523909076.338937
sS'objid'
p401
g4
(g17
S'\x19\x00\x00\x00\x00\x00\x00\x00'
p402
tp403
Rp404
sa(dp405
S'action'
p406
S'delete'
p407
sS'order'
p408
F1523909076.342594
sS'objid'
p409
g4
(g17
S'\x18\x00\x00\x00\x00\x00\x00\x00'
p410
tp411
Rp412
sa(dp413
S'action'
p414
S'delete'
p415
sS'order'
p416
F1523909076.346315
sS'objid'
p417
g4
(g17
S'\x16\x00\x00\x00\x00\x00\x00\x00'
p418
tp419
Rp420
sa(dp421
S'action'
p422
S'delete'
p423
sS'order'
p424
F1523909076.35009
sS'objid'
p425
g4
(g17
S'\x15\x00\x00\x00\x00\x00\x00\x00'
p426
tp427
Rp428
sa(dp429
S'action'
p430
S'delete'
p431
sS'order'
p432
F1523909076.353902
sS'objid'
p433
g4
(g17
S'\x14\x00\x00\x00\x00\x00\x00\x00'
p434
tp435
Rp436
sa(dp437
S'action'
p438
S'delete'
p439
sS'order'
p440
F1523909076.357805
sS'objid'
p441
g4
(g17
S'\x13\x00\x00\x00\x00\x00\x00\x00'
p442
tp443
Rp444
sa(dp445
S'action'
p446
S'delete'
p447
sS'order'
p448
F1523909076.361748
sS'objid'
p449
g4
(g17
S'\x11\x00\x00\x00\x00\x00\x00\x00'
p450
tp451
Rp452
sa(dp453
S'action'
p454
S'delete'
p455
sS'order'
p456
F1523909076.365754
sS'objid'
p457
g4
(g17
S'\x10\x00\x00\x00\x00\x00\x00\x00'
p458
tp459
Rp460
sa(dp461
S'action'
p462
S'delete'
p463
sS'order'
p464
F1523909076.369824
sS'objid'
p465
g4
(g17
S'\x0f\x00\x00\x00\x00\x00\x00\x00'
p466
tp467
Rp468
sa(dp469
S'action'
p470
S'delete'
p471
sS'order'
p472
F1523909076.373938
sS'objid'
p473
g4
(g17
S'\x0e\x00\x00\x00\x00\x00\x00\x00'
p474
tp475
Rp476
sa(dp477
S'action'
p478
S'delete'
p479
sS'order'
p480
F1523909076.378095
sS'objid'
p481
g4
(g17
S'\r\x00\x00\x00\x00\x00\x00\x00'
p482
tp483
Rp484
sa(dp485
S'action'
p486
S'delete'
p487
sS'order'
p488
F1523909076.382316
sS'objid'
p489
g4
(g17
S'\x0c\x00\x00\x00\x00\x00\x00\x00'
p490
tp491
Rp492
sa(dp493
S'action'
p494
S'delete'
p495
sS'order'
p496
F1523909076.386589
sS'objid'
p497
g4
(g17
S'\x0b\x00\x00\x00\x00\x00\x00\x00'
p498
tp499
Rp500
sa(dp501
S'action'
p502
S'delete'
p503
sS'order'
p504
F1523909076.390914
sS'objid'
p505
g4
(g17
S'\n\x00\x00\x00\x00\x00\x00\x00'
p506
tp507
Rp508
sa(dp509
S'action'
p510
S'delete'
p511
sS'order'
p512
F1523909076.395298
sS'objid'
p513
g4
(g17
S'\t\x00\x00\x00\x00\x00\x00\x00'
p514
tp515
Rp516
sa(dp517
S'action'
p518
S'delete'
p519
sS'order'
p520
F1523909076.399752
sS'objid'
p521
g4
(g17
S'\x08\x00\x00\x00\x00\x00\x00\x00'
p522
tp523
Rp524
sa(dp525
S'action'
p526
S'delete'
p527
sS'order'
p528
F1523909076.404243
sS'objid'
p529
g4
(g17
S'\x07\x00\x00\x00\x00\x00\x00\x00'
p530
tp531
Rp532
sa(dp533
S'action'
p534
S'delete'
p535
sS'order'
p536
F1523909076.408799
sS'objid'
p537
g4
(g17
S'\x06\x00\x00\x00\x00\x00\x00\x00'
p538
tp539
Rp540
sa(dp541
S'action'
p542
S'delete'
p543
sS'order'
p544
F1523909076.415194
sS'objid'
p545
g4
(g17
S'\x05\x00\x00\x00\x00\x00\x00\x00'
p546
tp547
Rp548
sa(dp549
S'action'
p550
S'delete'
p551
sS'order'
p552
F1523909076.420508
sS'objid'
p553
g4
(g17
S'\x04\x00\x00\x00\x00\x00\x00\x00'
p554
tp555
Rp556
sa(dp557
S'action'
p558
S'delete'
p559
sS'order'
p560
F1523909076.426101
sS'objid'
p561
g4
(g17
S'\x03\x00\x00\x00\x00\x00\x00\x00'
p562
tp563
Rp564
sa(dp565
S'action'
p566
S'delete'
p567
sS'order'
p568
F1523909076.431098
sS'objid'
p569
g4
(g17
S'\x02\x00\x00\x00\x00\x00\x00\x00'
p570
tp571
Rp572
sa(dp573
S'action'
p574
S'delete'
p575
sS'order'
p576
F1523909076.435991
sS'objid'
p577
g4
(g17
S'\x01\x00\x00\x00\x00\x00\x00\x00'
p578
tp579
Rp580
sa.