(lp0
(dp1
S'action'
p2
S'join'
p3
sS'data_to_add'
p4
(lp5
sS'order'
p6
F1523982989.878194
sS'new_objid'
p7
cnumpy.core.multiarray
scalar
p8
(cnumpy
dtype
p9
(S'i8'
p10
I0
I1
tp11
Rp12
(I3
S'<'
p13
NNNI-1
I-1
I0
tp14
bS'\x18\x01\x00\x00\x00\x00\x00\x00'
p15
tp16
Rp17
sS'objids'
p18
(lp19
g8
(g12
S'\x00\x00\x00\x00\x00\x00\x00\x00'
p20
tp21
Rp22
ag8
(g12
S'\x01\x00\x00\x00\x00\x00\x00\x00'
p23
tp24
Rp25
ag8
(g12
S'\x02\x00\x00\x00\x00\x00\x00\x00'
p26
tp27
Rp28
asa(dp29
g2
g3
sg4
(lp30
sg6
F1523983013.635922
sg7
g8
(g12
S'\x19\x01\x00\x00\x00\x00\x00\x00'
p31
tp32
Rp33
sg18
(lp34
g8
(g12
S'I\x00\x00\x00\x00\x00\x00\x00'
p35
tp36
Rp37
ag8
(g12
S'D\x00\x00\x00\x00\x00\x00\x00'
p38
tp39
Rp40
ag8
(g12
S'\x18\x01\x00\x00\x00\x00\x00\x00'
p41
tp42
Rp43
asa(dp44
S'cut_frame_global'
p45
I1201
sS'cut_time_epoch'
p46
g8
(g9
(S'f8'
p47
I0
I1
tp48
Rp49
(I3
S'<'
p50
NNNI-1
I-1
I0
tp51
bS'\xcd\x1cZ\x83\xab\xb4\xd6A'
p52
tp53
Rp54
sS'cut_frame_trajectory'
p55
g8
(g12
S'\x1c\x00\x00\x00\x00\x00\x00\x00'
p56
tp57
Rp58
sS'objid'
p59
g8
(g12
S'X\x00\x00\x00\x00\x00\x00\x00'
p60
tp61
Rp62
sS'action'
p63
S'cut'
p64
sS'order'
p65
F1523983044.543478
sS'new_objid'
p66
g8
(g12
S'\x1b\x01\x00\x00\x00\x00\x00\x00'
p67
tp68
Rp69
sa(dp70
S'cut_frame_global'
p71
I1201
sS'cut_time_epoch'
p72
g8
(g49
S'\xcd\x1cZ\x83\xab\xb4\xd6A'
p73
tp74
Rp75
sS'cut_frame_trajectory'
p76
g8
(g12
S'\x00\x00\x00\x00\x00\x00\x00\x00'
p77
tp78
Rp79
sS'objid'
p80
g8
(g12
S'\x1b\x01\x00\x00\x00\x00\x00\x00'
p81
tp82
Rp83
sS'action'
p84
S'cut'
p85
sS'order'
p86
F1523983046.413408
sS'new_objid'
p87
g8
(g12
S'\x1c\x01\x00\x00\x00\x00\x00\x00'
p88
tp89
Rp90
sa(dp91
S'cut_frame_global'
p92
I1200
sS'cut_time_epoch'
p93
g8
(g49
S'G\xb6S\x83\xab\xb4\xd6A'
p94
tp95
Rp96
sS'cut_frame_trajectory'
p97
g8
(g12
S'\x1b\x00\x00\x00\x00\x00\x00\x00'
p98
tp99
Rp100
sS'objid'
p101
g8
(g12
S'X\x00\x00\x00\x00\x00\x00\x00'
p102
tp103
Rp104
sS'action'
p105
S'cut'
p106
sS'order'
p107
F1523983049.744945
sS'new_objid'
p108
g8
(g12
S'\x1d\x01\x00\x00\x00\x00\x00\x00'
p109
tp110
Rp111
sa(dp112
S'cut_frame_global'
p113
I1199
sS'cut_time_epoch'
p114
g8
(g49
S'\xf2OM\x83\xab\xb4\xd6A'
p115
tp116
Rp117
sS'cut_frame_trajectory'
p118
g8
(g12
S'\x1a\x00\x00\x00\x00\x00\x00\x00'
p119
tp120
Rp121
sS'objid'
p122
g8
(g12
S'X\x00\x00\x00\x00\x00\x00\x00'
p123
tp124
Rp125
sS'action'
p126
S'cut'
p127
sS'order'
p128
F1523983050.31096
sS'new_objid'
p129
g8
(g12
S'\x1e\x01\x00\x00\x00\x00\x00\x00'
p130
tp131
Rp132
sa(dp133
S'cut_frame_global'
p134
I1185
sS'cut_time_epoch'
p135
g8
(g49
S'"\xb7\xf3\x82\xab\xb4\xd6A'
p136
tp137
Rp138
sS'cut_frame_trajectory'
p139
g8
(g12
S'\x0c\x00\x00\x00\x00\x00\x00\x00'
p140
tp141
Rp142
sS'objid'
p143
g8
(g12
S'X\x00\x00\x00\x00\x00\x00\x00'
p144
tp145
Rp146
sS'action'
p147
S'cut'
p148
sS'order'
p149
F1523983051.997912
sS'new_objid'
p150
g8
(g12
S'\x1f\x01\x00\x00\x00\x00\x00\x00'
p151
tp152
Rp153
sa(dp154
S'action'
p155
S'join'
p156
sS'data_to_add'
p157
(lp158
sS'order'
p159
F1523983061.436258
sS'new_objid'
p160
g8
(g12
S' \x01\x00\x00\x00\x00\x00\x00'
p161
tp162
Rp163
sS'objids'
p164
(lp165
g8
(g12
S'\x1f\x01\x00\x00\x00\x00\x00\x00'
p166
tp167
Rp168
ag8
(g12
S'\x19\x01\x00\x00\x00\x00\x00\x00'
p169
tp170
Rp171
ag8
(g12
S']\x00\x00\x00\x00\x00\x00\x00'
p172
tp173
Rp174
ag8
(g12
S'Y\x00\x00\x00\x00\x00\x00\x00'
p175
tp176
Rp177
asa(dp178
S'cut_frame_global'
p179
I964
sS'cut_time_epoch'
p180
g8
(g49
S'\xedOm}\xab\xb4\xd6A'
p181
tp182
Rp183
sS'cut_frame_trajectory'
p184
g8
(g12
S'\xc2\x03\x00\x00\x00\x00\x00\x00'
p185
tp186
Rp187
sS'objid'
p188
g8
(g12
S' \x01\x00\x00\x00\x00\x00\x00'
p189
tp190
Rp191
sS'action'
p192
S'cut'
p193
sS'order'
p194
F1523983081.352492
sS'new_objid'
p195
g8
(g12
S'!\x01\x00\x00\x00\x00\x00\x00'
p196
tp197
Rp198
sa(dp199
S'cut_frame_global'
p200
I964
sS'cut_time_epoch'
p201
g8
(g49
S'\xedOm}\xab\xb4\xd6A'
p202
tp203
Rp204
sS'cut_frame_trajectory'
p205
g8
(g12
S'\x00\x00\x00\x00\x00\x00\x00\x00'
p206
tp207
Rp208
sS'objid'
p209
g8
(g12
S'!\x01\x00\x00\x00\x00\x00\x00'
p210
tp211
Rp212
sS'action'
p213
S'cut'
p214
sS'order'
p215
F1523983081.912362
sS'new_objid'
p216
g8
(g12
S'"\x01\x00\x00\x00\x00\x00\x00'
p217
tp218
Rp219
sa(dp220
S'cut_frame_global'
p221
I1361
sS'cut_time_epoch'
p222
g8
(g49
S'x\x1dZ\x87\xab\xb4\xd6A'
p223
tp224
Rp225
sS'cut_frame_trajectory'
p226
g8
(g12
S'\x8d\x01\x00\x00\x00\x00\x00\x00'
p227
tp228
Rp229
sS'objid'
p230
g8
(g12
S'"\x01\x00\x00\x00\x00\x00\x00'
p231
tp232
Rp233
sS'action'
p234
S'cut'
p235
sS'order'
p236
F1523983083.703829
sS'new_objid'
p237
g8
(g12
S'#\x01\x00\x00\x00\x00\x00\x00'
p238
tp239
Rp240
sa(dp241
S'cut_frame_global'
p242
I1361
sS'cut_time_epoch'
p243
g8
(g49
S'x\x1dZ\x87\xab\xb4\xd6A'
p244
tp245
Rp246
sS'cut_frame_trajectory'
p247
g8
(g12
S'\x00\x00\x00\x00\x00\x00\x00\x00'
p248
tp249
Rp250
sS'objid'
p251
g8
(g12
S'#\x01\x00\x00\x00\x00\x00\x00'
p252
tp253
Rp254
sS'action'
p255
S'cut'
p256
sS'order'
p257
F1523983084.713975
sS'new_objid'
p258
g8
(g12
S'$\x01\x00\x00\x00\x00\x00\x00'
p259
tp260
Rp261
sa(dp262
S'cut_frame_global'
p263
I1381
sS'cut_time_epoch'
p264
g8
(g49
S'\x8d\x1d\xda\x87\xab\xb4\xd6A'
p265
tp266
Rp267
sS'cut_frame_trajectory'
p268
g8
(g12
S'\x14\x00\x00\x00\x00\x00\x00\x00'
p269
tp270
Rp271
sS'objid'
p272
g8
(g12
S'$\x01\x00\x00\x00\x00\x00\x00'
p273
tp274
Rp275
sS'action'
p276
S'cut'
p277
sS'order'
p278
F1523983088.399305
sS'new_objid'
p279
g8
(g12
S'%\x01\x00\x00\x00\x00\x00\x00'
p280
tp281
Rp282
sa(dp283
S'cut_frame_global'
p284
I1381
sS'cut_time_epoch'
p285
g8
(g49
S'\x8d\x1d\xda\x87\xab\xb4\xd6A'
p286
tp287
Rp288
sS'cut_frame_trajectory'
p289
g8
(g12
S'\x00\x00\x00\x00\x00\x00\x00\x00'
p290
tp291
Rp292
sS'objid'
p293
g8
(g12
S'%\x01\x00\x00\x00\x00\x00\x00'
p294
tp295
Rp296
sS'action'
p297
S'cut'
p298
sS'order'
p299
F1523983088.830705
sS'new_objid'
p300
g8
(g12
S'&\x01\x00\x00\x00\x00\x00\x00'
p301
tp302
Rp303
sa(dp304
S'action'
p305
S'join'
p306
sS'data_to_add'
p307
(lp308
sS'order'
p309
F1523983100.005654
sS'new_objid'
p310
g8
(g12
S"'\x01\x00\x00\x00\x00\x00\x00"
p311
tp312
Rp313
sS'objids'
p314
(lp315
g8
(g12
S'$\x01\x00\x00\x00\x00\x00\x00'
p316
tp317
Rp318
ag8
(g12
S'y\x00\x00\x00\x00\x00\x00\x00'
p319
tp320
Rp321
ag8
(g12
S'"\x01\x00\x00\x00\x00\x00\x00'
p322
tp323
Rp324
asa(dp325
S'action'
p326
S'join'
p327
sS'data_to_add'
p328
(lp329
sS'order'
p330
F1523983111.781111
sS'new_objid'
p331
g8
(g12
S'(\x01\x00\x00\x00\x00\x00\x00'
p332
tp333
Rp334
sS'objids'
p335
(lp336
g8
(g12
S"'\x01\x00\x00\x00\x00\x00\x00"
p337
tp338
Rp339
ag8
(g12
S'\x8c\x00\x00\x00\x00\x00\x00\x00'
p340
tp341
Rp342
ag8
(g12
S'\x8a\x00\x00\x00\x00\x00\x00\x00'
p343
tp344
Rp345
asa(dp346
S'action'
p347
S'join'
p348
sS'data_to_add'
p349
(lp350
sS'order'
p351
F1523983122.597935
sS'new_objid'
p352
g8
(g12
S')\x01\x00\x00\x00\x00\x00\x00'
p353
tp354
Rp355
sS'objids'
p356
(lp357
g8
(g12
S'\xad\x00\x00\x00\x00\x00\x00\x00'
p358
tp359
Rp360
ag8
(g12
S'(\x01\x00\x00\x00\x00\x00\x00'
p361
tp362
Rp363
asa(dp364
S'action'
p365
S'join'
p366
sS'data_to_add'
p367
(lp368
sS'order'
p369
F1523983143.110024
sS'new_objid'
p370
g8
(g12
S'*\x01\x00\x00\x00\x00\x00\x00'
p371
tp372
Rp373
sS'objids'
p374
(lp375
g8
(g12
S')\x01\x00\x00\x00\x00\x00\x00'
p376
tp377
Rp378
ag8
(g12
S'\xca\x00\x00\x00\x00\x00\x00\x00'
p379
tp380
Rp381
asa(dp382
S'action'
p383
S'join'
p384
sS'data_to_add'
p385
(lp386
sS'order'
p387
F1523983167.526466
sS'new_objid'
p388
g8
(g12
S'+\x01\x00\x00\x00\x00\x00\x00'
p389
tp390
Rp391
sS'objids'
p392
(lp393
g8
(g12
S'*\x01\x00\x00\x00\x00\x00\x00'
p394
tp395
Rp396
ag8
(g12
S'\x03\x01\x00\x00\x00\x00\x00\x00'
p397
tp398
Rp399
ag8
(g12
S'\xff\x00\x00\x00\x00\x00\x00\x00'
p400
tp401
Rp402
asa(dp403
S'action'
p404
S'delete'
p405
sS'order'
p406
F1523983188.745916
sS'objid'
p407
g8
(g12
S'\r\x01\x00\x00\x00\x00\x00\x00'
p408
tp409
Rp410
sa(dp411
S'action'
p412
S'delete'
p413
sS'order'
p414
F1523983188.750266
sS'objid'
p415
g8
(g12
S'\x0c\x01\x00\x00\x00\x00\x00\x00'
p416
tp417
Rp418
sa(dp419
S'action'
p420
S'delete'
p421
sS'order'
p422
F1523983188.7544
sS'objid'
p423
g8
(g12
S'\x0b\x01\x00\x00\x00\x00\x00\x00'
p424
tp425
Rp426
sa(dp427
S'action'
p428
S'delete'
p429
sS'order'
p430
F1523983188.758733
sS'objid'
p431
g8
(g12
S'\n\x01\x00\x00\x00\x00\x00\x00'
p432
tp433
Rp434
sa(dp435
S'action'
p436
S'delete'
p437
sS'order'
p438
F1523983188.762888
sS'objid'
p439
g8
(g12
S'\t\x01\x00\x00\x00\x00\x00\x00'
p440
tp441
Rp442
sa(dp443
S'action'
p444
S'delete'
p445
sS'order'
p446
F1523983188.767131
sS'objid'
p447
g8
(g12
S'\x08\x01\x00\x00\x00\x00\x00\x00'
p448
tp449
Rp450
sa(dp451
S'action'
p452
S'delete'
p453
sS'order'
p454
F1523983188.77139
sS'objid'
p455
g8
(g12
S'\x07\x01\x00\x00\x00\x00\x00\x00'
p456
tp457
Rp458
sa(dp459
S'action'
p460
S'delete'
p461
sS'order'
p462
F1523983188.775886
sS'objid'
p463
g8
(g12
S'\x06\x01\x00\x00\x00\x00\x00\x00'
p464
tp465
Rp466
sa(dp467
S'action'
p468
S'delete'
p469
sS'order'
p470
F1523983188.780263
sS'objid'
p471
g8
(g12
S'\x05\x01\x00\x00\x00\x00\x00\x00'
p472
tp473
Rp474
sa(dp475
S'action'
p476
S'delete'
p477
sS'order'
p478
F1523983188.784784
sS'objid'
p479
g8
(g12
S'\x04\x01\x00\x00\x00\x00\x00\x00'
p480
tp481
Rp482
sa(dp483
S'action'
p484
S'delete'
p485
sS'order'
p486
F1523983188.789287
sS'objid'
p487
g8
(g12
S'\x02\x01\x00\x00\x00\x00\x00\x00'
p488
tp489
Rp490
sa(dp491
S'action'
p492
S'delete'
p493
sS'order'
p494
F1523983188.793829
sS'objid'
p495
g8
(g12
S'\x01\x01\x00\x00\x00\x00\x00\x00'
p496
tp497
Rp498
sa(dp499
S'action'
p500
S'delete'
p501
sS'order'
p502
F1523983188.798448
sS'objid'
p503
g8
(g12
S'\x00\x01\x00\x00\x00\x00\x00\x00'
p504
tp505
Rp506
sa(dp507
S'action'
p508
S'delete'
p509
sS'order'
p510
F1523983188.803125
sS'objid'
p511
g8
(g12
S'\xfe\x00\x00\x00\x00\x00\x00\x00'
p512
tp513
Rp514
sa(dp515
S'action'
p516
S'delete'
p517
sS'order'
p518
F1523983188.807889
sS'objid'
p519
g8
(g12
S'\xfd\x00\x00\x00\x00\x00\x00\x00'
p520
tp521
Rp522
sa(dp523
S'action'
p524
S'delete'
p525
sS'order'
p526
F1523983188.812711
sS'objid'
p527
g8
(g12
S'\xfc\x00\x00\x00\x00\x00\x00\x00'
p528
tp529
Rp530
sa(dp531
S'action'
p532
S'delete'
p533
sS'order'
p534
F1523983188.817661
sS'objid'
p535
g8
(g12
S'\xfb\x00\x00\x00\x00\x00\x00\x00'
p536
tp537
Rp538
sa(dp539
S'action'
p540
S'delete'
p541
sS'order'
p542
F1523983188.822605
sS'objid'
p543
g8
(g12
S'\xfa\x00\x00\x00\x00\x00\x00\x00'
p544
tp545
Rp546
sa(dp547
S'action'
p548
S'delete'
p549
sS'order'
p550
F1523983188.827589
sS'objid'
p551
g8
(g12
S'\xf9\x00\x00\x00\x00\x00\x00\x00'
p552
tp553
Rp554
sa(dp555
S'action'
p556
S'delete'
p557
sS'order'
p558
F1523983188.832629
sS'objid'
p559
g8
(g12
S'\xf8\x00\x00\x00\x00\x00\x00\x00'
p560
tp561
Rp562
sa(dp563
S'action'
p564
S'delete'
p565
sS'order'
p566
F1523983188.837719
sS'objid'
p567
g8
(g12
S'\xf7\x00\x00\x00\x00\x00\x00\x00'
p568
tp569
Rp570
sa(dp571
S'action'
p572
S'delete'
p573
sS'order'
p574
F1523983188.842889
sS'objid'
p575
g8
(g12
S'\xf6\x00\x00\x00\x00\x00\x00\x00'
p576
tp577
Rp578
sa(dp579
S'action'
p580
S'delete'
p581
sS'order'
p582
F1523983188.848114
sS'objid'
p583
g8
(g12
S'\xf5\x00\x00\x00\x00\x00\x00\x00'
p584
tp585
Rp586
sa(dp587
S'action'
p588
S'delete'
p589
sS'order'
p590
F1523983188.853375
sS'objid'
p591
g8
(g12
S'\xf4\x00\x00\x00\x00\x00\x00\x00'
p592
tp593
Rp594
sa(dp595
S'action'
p596
S'delete'
p597
sS'order'
p598
F1523983188.858713
sS'objid'
p599
g8
(g12
S'\xf3\x00\x00\x00\x00\x00\x00\x00'
p600
tp601
Rp602
sa(dp603
S'action'
p604
S'delete'
p605
sS'order'
p606
F1523983188.864122
sS'objid'
p607
g8
(g12
S'\xf2\x00\x00\x00\x00\x00\x00\x00'
p608
tp609
Rp610
sa(dp611
S'action'
p612
S'delete'
p613
sS'order'
p614
F1523983188.869585
sS'objid'
p615
g8
(g12
S'\xf1\x00\x00\x00\x00\x00\x00\x00'
p616
tp617
Rp618
sa(dp619
S'action'
p620
S'delete'
p621
sS'order'
p622
F1523983188.875106
sS'objid'
p623
g8
(g12
S'\xf0\x00\x00\x00\x00\x00\x00\x00'
p624
tp625
Rp626
sa(dp627
S'action'
p628
S'delete'
p629
sS'order'
p630
F1523983188.880675
sS'objid'
p631
g8
(g12
S'\xef\x00\x00\x00\x00\x00\x00\x00'
p632
tp633
Rp634
sa(dp635
S'action'
p636
S'delete'
p637
sS'order'
p638
F1523983188.886301
sS'objid'
p639
g8
(g12
S'\xee\x00\x00\x00\x00\x00\x00\x00'
p640
tp641
Rp642
sa(dp643
S'action'
p644
S'delete'
p645
sS'order'
p646
F1523983188.891987
sS'objid'
p647
g8
(g12
S'\xed\x00\x00\x00\x00\x00\x00\x00'
p648
tp649
Rp650
sa(dp651
S'action'
p652
S'delete'
p653
sS'order'
p654
F1523983188.897738
sS'objid'
p655
g8
(g12
S'\xec\x00\x00\x00\x00\x00\x00\x00'
p656
tp657
Rp658
sa(dp659
S'action'
p660
S'delete'
p661
sS'order'
p662
F1523983188.903552
sS'objid'
p663
g8
(g12
S'\xeb\x00\x00\x00\x00\x00\x00\x00'
p664
tp665
Rp666
sa(dp667
S'action'
p668
S'delete'
p669
sS'order'
p670
F1523983188.909485
sS'objid'
p671
g8
(g12
S'\xea\x00\x00\x00\x00\x00\x00\x00'
p672
tp673
Rp674
sa(dp675
S'action'
p676
S'delete'
p677
sS'order'
p678
F1523983188.915556
sS'objid'
p679
g8
(g12
S'\xe9\x00\x00\x00\x00\x00\x00\x00'
p680
tp681
Rp682
sa(dp683
S'action'
p684
S'delete'
p685
sS'order'
p686
F1523983188.921741
sS'objid'
p687
g8
(g12
S'\xe8\x00\x00\x00\x00\x00\x00\x00'
p688
tp689
Rp690
sa(dp691
S'action'
p692
S'delete'
p693
sS'order'
p694
F1523983188.927843
sS'objid'
p695
g8
(g12
S'\xe7\x00\x00\x00\x00\x00\x00\x00'
p696
tp697
Rp698
sa(dp699
S'action'
p700
S'delete'
p701
sS'order'
p702
F1523983188.933984
sS'objid'
p703
g8
(g12
S'\xe6\x00\x00\x00\x00\x00\x00\x00'
p704
tp705
Rp706
sa(dp707
S'action'
p708
S'delete'
p709
sS'order'
p710
F1523983188.94019
sS'objid'
p711
g8
(g12
S'\xe5\x00\x00\x00\x00\x00\x00\x00'
p712
tp713
Rp714
sa(dp715
S'action'
p716
S'delete'
p717
sS'order'
p718
F1523983188.946502
sS'objid'
p719
g8
(g12
S'\xe4\x00\x00\x00\x00\x00\x00\x00'
p720
tp721
Rp722
sa(dp723
S'action'
p724
S'delete'
p725
sS'order'
p726
F1523983188.952838
sS'objid'
p727
g8
(g12
S'\xe3\x00\x00\x00\x00\x00\x00\x00'
p728
tp729
Rp730
sa(dp731
S'action'
p732
S'delete'
p733
sS'order'
p734
F1523983188.959233
sS'objid'
p735
g8
(g12
S'\xe2\x00\x00\x00\x00\x00\x00\x00'
p736
tp737
Rp738
sa(dp739
S'action'
p740
S'delete'
p741
sS'order'
p742
F1523983188.965637
sS'objid'
p743
g8
(g12
S'\xe1\x00\x00\x00\x00\x00\x00\x00'
p744
tp745
Rp746
sa(dp747
S'action'
p748
S'delete'
p749
sS'order'
p750
F1523983188.972162
sS'objid'
p751
g8
(g12
S'\xe0\x00\x00\x00\x00\x00\x00\x00'
p752
tp753
Rp754
sa(dp755
S'action'
p756
S'delete'
p757
sS'order'
p758
F1523983188.97872
sS'objid'
p759
g8
(g12
S'\xdf\x00\x00\x00\x00\x00\x00\x00'
p760
tp761
Rp762
sa(dp763
S'action'
p764
S'delete'
p765
sS'order'
p766
F1523983188.985368
sS'objid'
p767
g8
(g12
S'\xde\x00\x00\x00\x00\x00\x00\x00'
p768
tp769
Rp770
sa(dp771
S'action'
p772
S'delete'
p773
sS'order'
p774
F1523983188.992068
sS'objid'
p775
g8
(g12
S'\xdd\x00\x00\x00\x00\x00\x00\x00'
p776
tp777
Rp778
sa(dp779
S'action'
p780
S'delete'
p781
sS'order'
p782
F1523983188.998813
sS'objid'
p783
g8
(g12
S'\xdc\x00\x00\x00\x00\x00\x00\x00'
p784
tp785
Rp786
sa(dp787
S'action'
p788
S'delete'
p789
sS'order'
p790
F1523983189.005585
sS'objid'
p791
g8
(g12
S'\xdb\x00\x00\x00\x00\x00\x00\x00'
p792
tp793
Rp794
sa(dp795
S'action'
p796
S'delete'
p797
sS'order'
p798
F1523983189.012488
sS'objid'
p799
g8
(g12
S'\xda\x00\x00\x00\x00\x00\x00\x00'
p800
tp801
Rp802
sa(dp803
S'action'
p804
S'delete'
p805
sS'order'
p806
F1523983189.019465
sS'objid'
p807
g8
(g12
S'\xd9\x00\x00\x00\x00\x00\x00\x00'
p808
tp809
Rp810
sa(dp811
S'action'
p812
S'delete'
p813
sS'order'
p814
F1523983189.026504
sS'objid'
p815
g8
(g12
S'\xd8\x00\x00\x00\x00\x00\x00\x00'
p816
tp817
Rp818
sa(dp819
S'action'
p820
S'delete'
p821
sS'order'
p822
F1523983189.033543
sS'objid'
p823
g8
(g12
S'\xd7\x00\x00\x00\x00\x00\x00\x00'
p824
tp825
Rp826
sa(dp827
S'action'
p828
S'delete'
p829
sS'order'
p830
F1523983189.040635
sS'objid'
p831
g8
(g12
S'\xd6\x00\x00\x00\x00\x00\x00\x00'
p832
tp833
Rp834
sa(dp835
S'action'
p836
S'delete'
p837
sS'order'
p838
F1523983189.047839
sS'objid'
p839
g8
(g12
S'\xd5\x00\x00\x00\x00\x00\x00\x00'
p840
tp841
Rp842
sa(dp843
S'action'
p844
S'delete'
p845
sS'order'
p846
F1523983189.055077
sS'objid'
p847
g8
(g12
S'\xd4\x00\x00\x00\x00\x00\x00\x00'
p848
tp849
Rp850
sa(dp851
S'action'
p852
S'delete'
p853
sS'order'
p854
F1523983189.06236
sS'objid'
p855
g8
(g12
S'\xd3\x00\x00\x00\x00\x00\x00\x00'
p856
tp857
Rp858
sa(dp859
S'action'
p860
S'delete'
p861
sS'order'
p862
F1523983189.069719
sS'objid'
p863
g8
(g12
S'\xd2\x00\x00\x00\x00\x00\x00\x00'
p864
tp865
Rp866
sa(dp867
S'action'
p868
S'delete'
p869
sS'order'
p870
F1523983189.077125
sS'objid'
p871
g8
(g12
S'\xd1\x00\x00\x00\x00\x00\x00\x00'
p872
tp873
Rp874
sa(dp875
S'action'
p876
S'delete'
p877
sS'order'
p878
F1523983189.084588
sS'objid'
p879
g8
(g12
S'\xd0\x00\x00\x00\x00\x00\x00\x00'
p880
tp881
Rp882
sa(dp883
S'action'
p884
S'delete'
p885
sS'order'
p886
F1523983189.092114
sS'objid'
p887
g8
(g12
S'\xcf\x00\x00\x00\x00\x00\x00\x00'
p888
tp889
Rp890
sa(dp891
S'action'
p892
S'delete'
p893
sS'order'
p894
F1523983189.099727
sS'objid'
p895
g8
(g12
S'\xce\x00\x00\x00\x00\x00\x00\x00'
p896
tp897
Rp898
sa(dp899
S'action'
p900
S'delete'
p901
sS'order'
p902
F1523983189.107375
sS'objid'
p903
g8
(g12
S'\xcd\x00\x00\x00\x00\x00\x00\x00'
p904
tp905
Rp906
sa(dp907
S'action'
p908
S'delete'
p909
sS'order'
p910
F1523983189.115237
sS'objid'
p911
g8
(g12
S'\xcc\x00\x00\x00\x00\x00\x00\x00'
p912
tp913
Rp914
sa(dp915
S'action'
p916
S'delete'
p917
sS'order'
p918
F1523983189.12306
sS'objid'
p919
g8
(g12
S'\xcb\x00\x00\x00\x00\x00\x00\x00'
p920
tp921
Rp922
sa(dp923
S'action'
p924
S'delete'
p925
sS'order'
p926
F1523983189.130908
sS'objid'
p927
g8
(g12
S'\xc9\x00\x00\x00\x00\x00\x00\x00'
p928
tp929
Rp930
sa(dp931
S'action'
p932
S'delete'
p933
sS'order'
p934
F1523983189.13883
sS'objid'
p935
g8
(g12
S'\xc8\x00\x00\x00\x00\x00\x00\x00'
p936
tp937
Rp938
sa(dp939
S'action'
p940
S'delete'
p941
sS'order'
p942
F1523983189.1468
sS'objid'
p943
g8
(g12
S'\xc7\x00\x00\x00\x00\x00\x00\x00'
p944
tp945
Rp946
sa(dp947
S'action'
p948
S'delete'
p949
sS'order'
p950
F1523983189.154819
sS'objid'
p951
g8
(g12
S'\xc6\x00\x00\x00\x00\x00\x00\x00'
p952
tp953
Rp954
sa(dp955
S'action'
p956
S'delete'
p957
sS'order'
p958
F1523983189.162874
sS'objid'
p959
g8
(g12
S'\xc5\x00\x00\x00\x00\x00\x00\x00'
p960
tp961
Rp962
sa(dp963
S'action'
p964
S'delete'
p965
sS'order'
p966
F1523983189.171001
sS'objid'
p967
g8
(g12
S'\xc4\x00\x00\x00\x00\x00\x00\x00'
p968
tp969
Rp970
sa(dp971
S'action'
p972
S'delete'
p973
sS'order'
p974
F1523983189.179237
sS'objid'
p975
g8
(g12
S'\xc3\x00\x00\x00\x00\x00\x00\x00'
p976
tp977
Rp978
sa(dp979
S'action'
p980
S'delete'
p981
sS'order'
p982
F1523983189.187468
sS'objid'
p983
g8
(g12
S'\xc2\x00\x00\x00\x00\x00\x00\x00'
p984
tp985
Rp986
sa(dp987
S'action'
p988
S'delete'
p989
sS'order'
p990
F1523983189.195781
sS'objid'
p991
g8
(g12
S'\xc1\x00\x00\x00\x00\x00\x00\x00'
p992
tp993
Rp994
sa(dp995
S'action'
p996
S'delete'
p997
sS'order'
p998
F1523983189.204153
sS'objid'
p999
g8
(g12
S'\xc0\x00\x00\x00\x00\x00\x00\x00'
p1000
tp1001
Rp1002
sa(dp1003
S'action'
p1004
S'delete'
p1005
sS'order'
p1006
F1523983189.212584
sS'objid'
p1007
g8
(g12
S'\xbf\x00\x00\x00\x00\x00\x00\x00'
p1008
tp1009
Rp1010
sa(dp1011
S'action'
p1012
S'delete'
p1013
sS'order'
p1014
F1523983189.221123
sS'objid'
p1015
g8
(g12
S'\xbe\x00\x00\x00\x00\x00\x00\x00'
p1016
tp1017
Rp1018
sa(dp1019
S'action'
p1020
S'delete'
p1021
sS'order'
p1022
F1523983189.229779
sS'objid'
p1023
g8
(g12
S'\xbd\x00\x00\x00\x00\x00\x00\x00'
p1024
tp1025
Rp1026
sa(dp1027
S'action'
p1028
S'delete'
p1029
sS'order'
p1030
F1523983189.23838
sS'objid'
p1031
g8
(g12
S'\xbc\x00\x00\x00\x00\x00\x00\x00'
p1032
tp1033
Rp1034
sa(dp1035
S'action'
p1036
S'delete'
p1037
sS'order'
p1038
F1523983189.247102
sS'objid'
p1039
g8
(g12
S'\xbb\x00\x00\x00\x00\x00\x00\x00'
p1040
tp1041
Rp1042
sa(dp1043
S'action'
p1044
S'delete'
p1045
sS'order'
p1046
F1523983189.25584
sS'objid'
p1047
g8
(g12
S'\xba\x00\x00\x00\x00\x00\x00\x00'
p1048
tp1049
Rp1050
sa(dp1051
S'action'
p1052
S'delete'
p1053
sS'order'
p1054
F1523983189.264632
sS'objid'
p1055
g8
(g12
S'\xb9\x00\x00\x00\x00\x00\x00\x00'
p1056
tp1057
Rp1058
sa(dp1059
S'action'
p1060
S'delete'
p1061
sS'order'
p1062
F1523983189.273494
sS'objid'
p1063
g8
(g12
S'\xb6\x00\x00\x00\x00\x00\x00\x00'
p1064
tp1065
Rp1066
sa(dp1067
S'action'
p1068
S'delete'
p1069
sS'order'
p1070
F1523983208.813876
sS'objid'
p1071
g8
(g12
S'&\x01\x00\x00\x00\x00\x00\x00'
p1072
tp1073
Rp1074
sa(dp1075
S'action'
p1076
S'delete'
p1077
sS'order'
p1078
F1523983208.829169
sS'objid'
p1079
g8
(g12
S'\xb8\x00\x00\x00\x00\x00\x00\x00'
p1080
tp1081
Rp1082
sa(dp1083
S'action'
p1084
S'delete'
p1085
sS'order'
p1086
F1523983208.838315
sS'objid'
p1087
g8
(g12
S'\xb7\x00\x00\x00\x00\x00\x00\x00'
p1088
tp1089
Rp1090
sa(dp1091
S'action'
p1092
S'delete'
p1093
sS'order'
p1094
F1523983208.847606
sS'objid'
p1095
g8
(g12
S'\xb5\x00\x00\x00\x00\x00\x00\x00'
p1096
tp1097
Rp1098
sa(dp1099
S'action'
p1100
S'delete'
p1101
sS'order'
p1102
F1523983208.85676
sS'objid'
p1103
g8
(g12
S'\xb4\x00\x00\x00\x00\x00\x00\x00'
p1104
tp1105
Rp1106
sa(dp1107
S'action'
p1108
S'delete'
p1109
sS'order'
p1110
F1523983208.865923
sS'objid'
p1111
g8
(g12
S'\xb3\x00\x00\x00\x00\x00\x00\x00'
p1112
tp1113
Rp1114
sa(dp1115
S'action'
p1116
S'delete'
p1117
sS'order'
p1118
F1523983208.875227
sS'objid'
p1119
g8
(g12
S'\xb2\x00\x00\x00\x00\x00\x00\x00'
p1120
tp1121
Rp1122
sa(dp1123
S'action'
p1124
S'delete'
p1125
sS'order'
p1126
F1523983208.884491
sS'objid'
p1127
g8
(g12
S'\xb1\x00\x00\x00\x00\x00\x00\x00'
p1128
tp1129
Rp1130
sa(dp1131
S'action'
p1132
S'delete'
p1133
sS'order'
p1134
F1523983208.893838
sS'objid'
p1135
g8
(g12
S'\xb0\x00\x00\x00\x00\x00\x00\x00'
p1136
tp1137
Rp1138
sa(dp1139
S'action'
p1140
S'delete'
p1141
sS'order'
p1142
F1523983208.904233
sS'objid'
p1143
g8
(g12
S'\xaf\x00\x00\x00\x00\x00\x00\x00'
p1144
tp1145
Rp1146
sa(dp1147
S'action'
p1148
S'delete'
p1149
sS'order'
p1150
F1523983208.914453
sS'objid'
p1151
g8
(g12
S'\xae\x00\x00\x00\x00\x00\x00\x00'
p1152
tp1153
Rp1154
sa(dp1155
S'action'
p1156
S'delete'
p1157
sS'order'
p1158
F1523983208.924085
sS'objid'
p1159
g8
(g12
S'\xac\x00\x00\x00\x00\x00\x00\x00'
p1160
tp1161
Rp1162
sa(dp1163
S'action'
p1164
S'delete'
p1165
sS'order'
p1166
F1523983208.933667
sS'objid'
p1167
g8
(g12
S'\xab\x00\x00\x00\x00\x00\x00\x00'
p1168
tp1169
Rp1170
sa(dp1171
S'action'
p1172
S'delete'
p1173
sS'order'
p1174
F1523983208.943329
sS'objid'
p1175
g8
(g12
S'\xaa\x00\x00\x00\x00\x00\x00\x00'
p1176
tp1177
Rp1178
sa(dp1179
S'action'
p1180
S'delete'
p1181
sS'order'
p1182
F1523983208.953046
sS'objid'
p1183
g8
(g12
S'\xa9\x00\x00\x00\x00\x00\x00\x00'
p1184
tp1185
Rp1186
sa(dp1187
S'action'
p1188
S'delete'
p1189
sS'order'
p1190
F1523983208.962846
sS'objid'
p1191
g8
(g12
S'\xa8\x00\x00\x00\x00\x00\x00\x00'
p1192
tp1193
Rp1194
sa(dp1195
S'action'
p1196
S'delete'
p1197
sS'order'
p1198
F1523983208.972689
sS'objid'
p1199
g8
(g12
S'\xa7\x00\x00\x00\x00\x00\x00\x00'
p1200
tp1201
Rp1202
sa(dp1203
S'action'
p1204
S'delete'
p1205
sS'order'
p1206
F1523983208.98258
sS'objid'
p1207
g8
(g12
S'\xa6\x00\x00\x00\x00\x00\x00\x00'
p1208
tp1209
Rp1210
sa(dp1211
S'action'
p1212
S'delete'
p1213
sS'order'
p1214
F1523983208.992523
sS'objid'
p1215
g8
(g12
S'\xa5\x00\x00\x00\x00\x00\x00\x00'
p1216
tp1217
Rp1218
sa(dp1219
S'action'
p1220
S'delete'
p1221
sS'order'
p1222
F1523983209.003083
sS'objid'
p1223
g8
(g12
S'\xa4\x00\x00\x00\x00\x00\x00\x00'
p1224
tp1225
Rp1226
sa(dp1227
S'action'
p1228
S'delete'
p1229
sS'order'
p1230
F1523983209.014218
sS'objid'
p1231
g8
(g12
S'\xa3\x00\x00\x00\x00\x00\x00\x00'
p1232
tp1233
Rp1234
sa(dp1235
S'action'
p1236
S'delete'
p1237
sS'order'
p1238
F1523983209.024456
sS'objid'
p1239
g8
(g12
S'\xa2\x00\x00\x00\x00\x00\x00\x00'
p1240
tp1241
Rp1242
sa(dp1243
S'action'
p1244
S'delete'
p1245
sS'order'
p1246
F1523983209.03467
sS'objid'
p1247
g8
(g12
S'\xa1\x00\x00\x00\x00\x00\x00\x00'
p1248
tp1249
Rp1250
sa(dp1251
S'action'
p1252
S'delete'
p1253
sS'order'
p1254
F1523983209.044977
sS'objid'
p1255
g8
(g12
S'\xa0\x00\x00\x00\x00\x00\x00\x00'
p1256
tp1257
Rp1258
sa(dp1259
S'action'
p1260
S'delete'
p1261
sS'order'
p1262
F1523983209.055333
sS'objid'
p1263
g8
(g12
S'\x9f\x00\x00\x00\x00\x00\x00\x00'
p1264
tp1265
Rp1266
sa(dp1267
S'action'
p1268
S'delete'
p1269
sS'order'
p1270
F1523983209.065691
sS'objid'
p1271
g8
(g12
S'\x9e\x00\x00\x00\x00\x00\x00\x00'
p1272
tp1273
Rp1274
sa(dp1275
S'action'
p1276
S'delete'
p1277
sS'order'
p1278
F1523983209.076139
sS'objid'
p1279
g8
(g12
S'\x9d\x00\x00\x00\x00\x00\x00\x00'
p1280
tp1281
Rp1282
sa(dp1283
S'action'
p1284
S'delete'
p1285
sS'order'
p1286
F1523983209.086603
sS'objid'
p1287
g8
(g12
S'\x9c\x00\x00\x00\x00\x00\x00\x00'
p1288
tp1289
Rp1290
sa(dp1291
S'action'
p1292
S'delete'
p1293
sS'order'
p1294
F1523983209.09716
sS'objid'
p1295
g8
(g12
S'\x9b\x00\x00\x00\x00\x00\x00\x00'
p1296
tp1297
Rp1298
sa(dp1299
S'action'
p1300
S'delete'
p1301
sS'order'
p1302
F1523983209.110066
sS'objid'
p1303
g8
(g12
S'\x9a\x00\x00\x00\x00\x00\x00\x00'
p1304
tp1305
Rp1306
sa(dp1307
S'action'
p1308
S'delete'
p1309
sS'order'
p1310
F1523983209.121941
sS'objid'
p1311
g8
(g12
S'\x99\x00\x00\x00\x00\x00\x00\x00'
p1312
tp1313
Rp1314
sa(dp1315
S'action'
p1316
S'delete'
p1317
sS'order'
p1318
F1523983209.132766
sS'objid'
p1319
g8
(g12
S'\x98\x00\x00\x00\x00\x00\x00\x00'
p1320
tp1321
Rp1322
sa(dp1323
S'action'
p1324
S'delete'
p1325
sS'order'
p1326
F1523983209.143572
sS'objid'
p1327
g8
(g12
S'\x97\x00\x00\x00\x00\x00\x00\x00'
p1328
tp1329
Rp1330
sa(dp1331
S'action'
p1332
S'delete'
p1333
sS'order'
p1334
F1523983209.15441
sS'objid'
p1335
g8
(g12
S'\x96\x00\x00\x00\x00\x00\x00\x00'
p1336
tp1337
Rp1338
sa(dp1339
S'action'
p1340
S'delete'
p1341
sS'order'
p1342
F1523983209.165336
sS'objid'
p1343
g8
(g12
S'\x95\x00\x00\x00\x00\x00\x00\x00'
p1344
tp1345
Rp1346
sa(dp1347
S'action'
p1348
S'delete'
p1349
sS'order'
p1350
F1523983209.176347
sS'objid'
p1351
g8
(g12
S'\x94\x00\x00\x00\x00\x00\x00\x00'
p1352
tp1353
Rp1354
sa(dp1355
S'action'
p1356
S'delete'
p1357
sS'order'
p1358
F1523983209.18738
sS'objid'
p1359
g8
(g12
S'\x93\x00\x00\x00\x00\x00\x00\x00'
p1360
tp1361
Rp1362
sa(dp1363
S'action'
p1364
S'delete'
p1365
sS'order'
p1366
F1523983209.198435
sS'objid'
p1367
g8
(g12
S'\x92\x00\x00\x00\x00\x00\x00\x00'
p1368
tp1369
Rp1370
sa(dp1371
S'action'
p1372
S'delete'
p1373
sS'order'
p1374
F1523983209.211014
sS'objid'
p1375
g8
(g12
S'\x91\x00\x00\x00\x00\x00\x00\x00'
p1376
tp1377
Rp1378
sa(dp1379
S'action'
p1380
S'delete'
p1381
sS'order'
p1382
F1523983209.2226
sS'objid'
p1383
g8
(g12
S'\x90\x00\x00\x00\x00\x00\x00\x00'
p1384
tp1385
Rp1386
sa(dp1387
S'action'
p1388
S'delete'
p1389
sS'order'
p1390
F1523983209.234022
sS'objid'
p1391
g8
(g12
S'\x8f\x00\x00\x00\x00\x00\x00\x00'
p1392
tp1393
Rp1394
sa(dp1395
S'action'
p1396
S'delete'
p1397
sS'order'
p1398
F1523983209.245417
sS'objid'
p1399
g8
(g12
S'\x8e\x00\x00\x00\x00\x00\x00\x00'
p1400
tp1401
Rp1402
sa(dp1403
S'action'
p1404
S'delete'
p1405
sS'order'
p1406
F1523983209.256877
sS'objid'
p1407
g8
(g12
S'\x8d\x00\x00\x00\x00\x00\x00\x00'
p1408
tp1409
Rp1410
sa(dp1411
S'action'
p1412
S'delete'
p1413
sS'order'
p1414
F1523983209.268427
sS'objid'
p1415
g8
(g12
S'\x8b\x00\x00\x00\x00\x00\x00\x00'
p1416
tp1417
Rp1418
sa(dp1419
S'action'
p1420
S'delete'
p1421
sS'order'
p1422
F1523983209.280031
sS'objid'
p1423
g8
(g12
S'\x89\x00\x00\x00\x00\x00\x00\x00'
p1424
tp1425
Rp1426
sa(dp1427
S'action'
p1428
S'delete'
p1429
sS'order'
p1430
F1523983209.291667
sS'objid'
p1431
g8
(g12
S'\x88\x00\x00\x00\x00\x00\x00\x00'
p1432
tp1433
Rp1434
sa(dp1435
S'action'
p1436
S'delete'
p1437
sS'order'
p1438
F1523983209.303372
sS'objid'
p1439
g8
(g12
S'\x87\x00\x00\x00\x00\x00\x00\x00'
p1440
tp1441
Rp1442
sa(dp1443
S'action'
p1444
S'delete'
p1445
sS'order'
p1446
F1523983209.316763
sS'objid'
p1447
g8
(g12
S'\x86\x00\x00\x00\x00\x00\x00\x00'
p1448
tp1449
Rp1450
sa(dp1451
S'action'
p1452
S'delete'
p1453
sS'order'
p1454
F1523983209.328699
sS'objid'
p1455
g8
(g12
S'\x85\x00\x00\x00\x00\x00\x00\x00'
p1456
tp1457
Rp1458
sa(dp1459
S'action'
p1460
S'delete'
p1461
sS'order'
p1462
F1523983209.34058
sS'objid'
p1463
g8
(g12
S'\x84\x00\x00\x00\x00\x00\x00\x00'
p1464
tp1465
Rp1466
sa(dp1467
S'action'
p1468
S'delete'
p1469
sS'order'
p1470
F1523983209.35249
sS'objid'
p1471
g8
(g12
S'\x83\x00\x00\x00\x00\x00\x00\x00'
p1472
tp1473
Rp1474
sa(dp1475
S'action'
p1476
S'delete'
p1477
sS'order'
p1478
F1523983209.364466
sS'objid'
p1479
g8
(g12
S'\x82\x00\x00\x00\x00\x00\x00\x00'
p1480
tp1481
Rp1482
sa(dp1483
S'action'
p1484
S'delete'
p1485
sS'order'
p1486
F1523983209.376534
sS'objid'
p1487
g8
(g12
S'\x81\x00\x00\x00\x00\x00\x00\x00'
p1488
tp1489
Rp1490
sa(dp1491
S'action'
p1492
S'delete'
p1493
sS'order'
p1494
F1523983209.388636
sS'objid'
p1495
g8
(g12
S'\x80\x00\x00\x00\x00\x00\x00\x00'
p1496
tp1497
Rp1498
sa(dp1499
S'action'
p1500
S'delete'
p1501
sS'order'
p1502
F1523983209.400846
sS'objid'
p1503
g8
(g12
S'\x7f\x00\x00\x00\x00\x00\x00\x00'
p1504
tp1505
Rp1506
sa(dp1507
S'action'
p1508
S'delete'
p1509
sS'order'
p1510
F1523983209.414425
sS'objid'
p1511
g8
(g12
S'~\x00\x00\x00\x00\x00\x00\x00'
p1512
tp1513
Rp1514
sa(dp1515
S'action'
p1516
S'delete'
p1517
sS'order'
p1518
F1523983209.426916
sS'objid'
p1519
g8
(g12
S'}\x00\x00\x00\x00\x00\x00\x00'
p1520
tp1521
Rp1522
sa(dp1523
S'action'
p1524
S'delete'
p1525
sS'order'
p1526
F1523983209.439332
sS'objid'
p1527
g8
(g12
S'|\x00\x00\x00\x00\x00\x00\x00'
p1528
tp1529
Rp1530
sa(dp1531
S'action'
p1532
S'delete'
p1533
sS'order'
p1534
F1523983209.451821
sS'objid'
p1535
g8
(g12
S'{\x00\x00\x00\x00\x00\x00\x00'
p1536
tp1537
Rp1538
sa(dp1539
S'action'
p1540
S'delete'
p1541
sS'order'
p1542
F1523983209.464279
sS'objid'
p1543
g8
(g12
S'z\x00\x00\x00\x00\x00\x00\x00'
p1544
tp1545
Rp1546
sa(dp1547
S'action'
p1548
S'delete'
p1549
sS'order'
p1550
F1523983209.47677
sS'objid'
p1551
g8
(g12
S'x\x00\x00\x00\x00\x00\x00\x00'
p1552
tp1553
Rp1554
sa(dp1555
S'action'
p1556
S'delete'
p1557
sS'order'
p1558
F1523983209.489379
sS'objid'
p1559
g8
(g12
S'w\x00\x00\x00\x00\x00\x00\x00'
p1560
tp1561
Rp1562
sa(dp1563
S'action'
p1564
S'delete'
p1565
sS'order'
p1566
F1523983209.502024
sS'objid'
p1567
g8
(g12
S'v\x00\x00\x00\x00\x00\x00\x00'
p1568
tp1569
Rp1570
sa(dp1571
S'action'
p1572
S'delete'
p1573
sS'order'
p1574
F1523983209.516297
sS'objid'
p1575
g8
(g12
S'u\x00\x00\x00\x00\x00\x00\x00'
p1576
tp1577
Rp1578
sa(dp1579
S'action'
p1580
S'delete'
p1581
sS'order'
p1582
F1523983209.529245
sS'objid'
p1583
g8
(g12
S't\x00\x00\x00\x00\x00\x00\x00'
p1584
tp1585
Rp1586
sa(dp1587
S'action'
p1588
S'delete'
p1589
sS'order'
p1590
F1523983209.542129
sS'objid'
p1591
g8
(g12
S's\x00\x00\x00\x00\x00\x00\x00'
p1592
tp1593
Rp1594
sa(dp1595
S'action'
p1596
S'delete'
p1597
sS'order'
p1598
F1523983209.555041
sS'objid'
p1599
g8
(g12
S'r\x00\x00\x00\x00\x00\x00\x00'
p1600
tp1601
Rp1602
sa(dp1603
S'action'
p1604
S'delete'
p1605
sS'order'
p1606
F1523983209.56797
sS'objid'
p1607
g8
(g12
S'q\x00\x00\x00\x00\x00\x00\x00'
p1608
tp1609
Rp1610
sa(dp1611
S'action'
p1612
S'delete'
p1613
sS'order'
p1614
F1523983209.58097
sS'objid'
p1615
g8
(g12
S'p\x00\x00\x00\x00\x00\x00\x00'
p1616
tp1617
Rp1618
sa(dp1619
S'action'
p1620
S'delete'
p1621
sS'order'
p1622
F1523983209.594037
sS'objid'
p1623
g8
(g12
S'o\x00\x00\x00\x00\x00\x00\x00'
p1624
tp1625
Rp1626
sa(dp1627
S'action'
p1628
S'delete'
p1629
sS'order'
p1630
F1523983209.607187
sS'objid'
p1631
g8
(g12
S'n\x00\x00\x00\x00\x00\x00\x00'
p1632
tp1633
Rp1634
sa(dp1635
S'action'
p1636
S'delete'
p1637
sS'order'
p1638
F1523983209.622032
sS'objid'
p1639
g8
(g12
S'm\x00\x00\x00\x00\x00\x00\x00'
p1640
tp1641
Rp1642
sa(dp1643
S'action'
p1644
S'delete'
p1645
sS'order'
p1646
F1523983209.635334
sS'objid'
p1647
g8
(g12
S'l\x00\x00\x00\x00\x00\x00\x00'
p1648
tp1649
Rp1650
sa(dp1651
S'action'
p1652
S'delete'
p1653
sS'order'
p1654
F1523983209.648666
sS'objid'
p1655
g8
(g12
S'k\x00\x00\x00\x00\x00\x00\x00'
p1656
tp1657
Rp1658
sa(dp1659
S'action'
p1660
S'delete'
p1661
sS'order'
p1662
F1523983219.055172
sS'objid'
p1663
g8
(g12
S'\x1e\x01\x00\x00\x00\x00\x00\x00'
p1664
tp1665
Rp1666
sa(dp1667
S'action'
p1668
S'delete'
p1669
sS'order'
p1670
F1523983219.071806
sS'objid'
p1671
g8
(g12
S'\x1d\x01\x00\x00\x00\x00\x00\x00'
p1672
tp1673
Rp1674
sa(dp1675
S'action'
p1676
S'delete'
p1677
sS'order'
p1678
F1523983219.085595
sS'objid'
p1679
g8
(g12
S'\x1c\x01\x00\x00\x00\x00\x00\x00'
p1680
tp1681
Rp1682
sa(dp1683
S'action'
p1684
S'delete'
p1685
sS'order'
p1686
F1523983219.099493
sS'objid'
p1687
g8
(g12
S'j\x00\x00\x00\x00\x00\x00\x00'
p1688
tp1689
Rp1690
sa(dp1691
S'action'
p1692
S'delete'
p1693
sS'order'
p1694
F1523983219.113461
sS'objid'
p1695
g8
(g12
S'i\x00\x00\x00\x00\x00\x00\x00'
p1696
tp1697
Rp1698
sa(dp1699
S'action'
p1700
S'delete'
p1701
sS'order'
p1702
F1523983219.127222
sS'objid'
p1703
g8
(g12
S'h\x00\x00\x00\x00\x00\x00\x00'
p1704
tp1705
Rp1706
sa(dp1707
S'action'
p1708
S'delete'
p1709
sS'order'
p1710
F1523983219.141021
sS'objid'
p1711
g8
(g12
S'g\x00\x00\x00\x00\x00\x00\x00'
p1712
tp1713
Rp1714
sa(dp1715
S'action'
p1716
S'delete'
p1717
sS'order'
p1718
F1523983219.154893
sS'objid'
p1719
g8
(g12
S'f\x00\x00\x00\x00\x00\x00\x00'
p1720
tp1721
Rp1722
sa(dp1723
S'action'
p1724
S'delete'
p1725
sS'order'
p1726
F1523983219.168809
sS'objid'
p1727
g8
(g12
S'e\x00\x00\x00\x00\x00\x00\x00'
p1728
tp1729
Rp1730
sa(dp1731
S'action'
p1732
S'delete'
p1733
sS'order'
p1734
F1523983219.182797
sS'objid'
p1735
g8
(g12
S'd\x00\x00\x00\x00\x00\x00\x00'
p1736
tp1737
Rp1738
sa(dp1739
S'action'
p1740
S'delete'
p1741
sS'order'
p1742
F1523983219.196905
sS'objid'
p1743
g8
(g12
S'c\x00\x00\x00\x00\x00\x00\x00'
p1744
tp1745
Rp1746
sa(dp1747
S'action'
p1748
S'delete'
p1749
sS'order'
p1750
F1523983219.211231
sS'objid'
p1751
g8
(g12
S'b\x00\x00\x00\x00\x00\x00\x00'
p1752
tp1753
Rp1754
sa(dp1755
S'action'
p1756
S'delete'
p1757
sS'order'
p1758
F1523983219.225489
sS'objid'
p1759
g8
(g12
S'a\x00\x00\x00\x00\x00\x00\x00'
p1760
tp1761
Rp1762
sa(dp1763
S'action'
p1764
S'delete'
p1765
sS'order'
p1766
F1523983219.239698
sS'objid'
p1767
g8
(g12
S'`\x00\x00\x00\x00\x00\x00\x00'
p1768
tp1769
Rp1770
sa(dp1771
S'action'
p1772
S'delete'
p1773
sS'order'
p1774
F1523983219.253989
sS'objid'
p1775
g8
(g12
S'_\x00\x00\x00\x00\x00\x00\x00'
p1776
tp1777
Rp1778
sa(dp1779
S'action'
p1780
S'delete'
p1781
sS'order'
p1782
F1523983219.268628
sS'objid'
p1783
g8
(g12
S'^\x00\x00\x00\x00\x00\x00\x00'
p1784
tp1785
Rp1786
sa(dp1787
S'action'
p1788
S'delete'
p1789
sS'order'
p1790
F1523983219.282999
sS'objid'
p1791
g8
(g12
S'\\\x00\x00\x00\x00\x00\x00\x00'
p1792
tp1793
Rp1794
sa(dp1795
S'action'
p1796
S'delete'
p1797
sS'order'
p1798
F1523983219.297535
sS'objid'
p1799
g8
(g12
S'[\x00\x00\x00\x00\x00\x00\x00'
p1800
tp1801
Rp1802
sa(dp1803
S'action'
p1804
S'delete'
p1805
sS'order'
p1806
F1523983219.312306
sS'objid'
p1807
g8
(g12
S'Z\x00\x00\x00\x00\x00\x00\x00'
p1808
tp1809
Rp1810
sa(dp1811
S'action'
p1812
S'delete'
p1813
sS'order'
p1814
F1523983219.326936
sS'objid'
p1815
g8
(g12
S'X\x00\x00\x00\x00\x00\x00\x00'
p1816
tp1817
Rp1818
sa(dp1819
S'action'
p1820
S'delete'
p1821
sS'order'
p1822
F1523983219.341591
sS'objid'
p1823
g8
(g12
S'W\x00\x00\x00\x00\x00\x00\x00'
p1824
tp1825
Rp1826
sa(dp1827
S'action'
p1828
S'delete'
p1829
sS'order'
p1830
F1523983219.356407
sS'objid'
p1831
g8
(g12
S'V\x00\x00\x00\x00\x00\x00\x00'
p1832
tp1833
Rp1834
sa(dp1835
S'action'
p1836
S'delete'
p1837
sS'order'
p1838
F1523983219.371159
sS'objid'
p1839
g8
(g12
S'U\x00\x00\x00\x00\x00\x00\x00'
p1840
tp1841
Rp1842
sa(dp1843
S'action'
p1844
S'delete'
p1845
sS'order'
p1846
F1523983219.385958
sS'objid'
p1847
g8
(g12
S'T\x00\x00\x00\x00\x00\x00\x00'
p1848
tp1849
Rp1850
sa(dp1851
S'action'
p1852
S'delete'
p1853
sS'order'
p1854
F1523983219.400958
sS'objid'
p1855
g8
(g12
S'S\x00\x00\x00\x00\x00\x00\x00'
p1856
tp1857
Rp1858
sa(dp1859
S'action'
p1860
S'delete'
p1861
sS'order'
p1862
F1523983219.416067
sS'objid'
p1863
g8
(g12
S'R\x00\x00\x00\x00\x00\x00\x00'
p1864
tp1865
Rp1866
sa(dp1867
S'action'
p1868
S'delete'
p1869
sS'order'
p1870
F1523983219.431054
sS'objid'
p1871
g8
(g12
S'Q\x00\x00\x00\x00\x00\x00\x00'
p1872
tp1873
Rp1874
sa(dp1875
S'action'
p1876
S'delete'
p1877
sS'order'
p1878
F1523983219.446079
sS'objid'
p1879
g8
(g12
S'P\x00\x00\x00\x00\x00\x00\x00'
p1880
tp1881
Rp1882
sa(dp1883
S'action'
p1884
S'delete'
p1885
sS'order'
p1886
F1523983219.461222
sS'objid'
p1887
g8
(g12
S'O\x00\x00\x00\x00\x00\x00\x00'
p1888
tp1889
Rp1890
sa(dp1891
S'action'
p1892
S'delete'
p1893
sS'order'
p1894
F1523983219.476451
sS'objid'
p1895
g8
(g12
S'L\x00\x00\x00\x00\x00\x00\x00'
p1896
tp1897
Rp1898
sa(dp1899
S'action'
p1900
S'join'
p1901
sS'data_to_add'
p1902
(lp1903
sS'order'
p1904
F1523983234.823655
sS'new_objid'
p1905
g8
(g12
S',\x01\x00\x00\x00\x00\x00\x00'
p1906
tp1907
Rp1908
sS'objids'
p1909
(lp1910
g8
(g12
S' \x01\x00\x00\x00\x00\x00\x00'
p1911
tp1912
Rp1913
ag8
(g12
S'+\x01\x00\x00\x00\x00\x00\x00'
p1914
tp1915
Rp1916
asa(dp1917
S'action'
p1918
S'delete'
p1919
sS'order'
p1920
F1523983267.552569
sS'objid'
p1921
g8
(g12
S'N\x00\x00\x00\x00\x00\x00\x00'
p1922
tp1923
Rp1924
sa(dp1925
S'action'
p1926
S'delete'
p1927
sS'order'
p1928
F1523983267.576821
sS'objid'
p1929
g8
(g12
S'M\x00\x00\x00\x00\x00\x00\x00'
p1930
tp1931
Rp1932
sa(dp1933
S'action'
p1934
S'delete'
p1935
sS'order'
p1936
F1523983267.599708
sS'objid'
p1937
g8
(g12
S'K\x00\x00\x00\x00\x00\x00\x00'
p1938
tp1939
Rp1940
sa(dp1941
S'action'
p1942
S'delete'
p1943
sS'order'
p1944
F1523983267.615487
sS'objid'
p1945
g8
(g12
S'J\x00\x00\x00\x00\x00\x00\x00'
p1946
tp1947
Rp1948
sa(dp1949
S'action'
p1950
S'delete'
p1951
sS'order'
p1952
F1523983267.631202
sS'objid'
p1953
g8
(g12
S'H\x00\x00\x00\x00\x00\x00\x00'
p1954
tp1955
Rp1956
sa(dp1957
S'action'
p1958
S'delete'
p1959
sS'order'
p1960
F1523983267.647932
sS'objid'
p1961
g8
(g12
S'G\x00\x00\x00\x00\x00\x00\x00'
p1962
tp1963
Rp1964
sa(dp1965
S'action'
p1966
S'delete'
p1967
sS'order'
p1968
F1523983267.663668
sS'objid'
p1969
g8
(g12
S'F\x00\x00\x00\x00\x00\x00\x00'
p1970
tp1971
Rp1972
sa(dp1973
S'action'
p1974
S'delete'
p1975
sS'order'
p1976
F1523983267.679552
sS'objid'
p1977
g8
(g12
S'E\x00\x00\x00\x00\x00\x00\x00'
p1978
tp1979
Rp1980
sa(dp1981
S'action'
p1982
S'delete'
p1983
sS'order'
p1984
F1523983267.696566
sS'objid'
p1985
g8
(g12
S'C\x00\x00\x00\x00\x00\x00\x00'
p1986
tp1987
Rp1988
sa(dp1989
S'action'
p1990
S'delete'
p1991
sS'order'
p1992
F1523983267.712511
sS'objid'
p1993
g8
(g12
S'B\x00\x00\x00\x00\x00\x00\x00'
p1994
tp1995
Rp1996
sa(dp1997
S'action'
p1998
S'delete'
p1999
sS'order'
p2000
F1523983267.728475
sS'objid'
p2001
g8
(g12
S'A\x00\x00\x00\x00\x00\x00\x00'
p2002
tp2003
Rp2004
sa(dp2005
S'action'
p2006
S'delete'
p2007
sS'order'
p2008
F1523983267.745453
sS'objid'
p2009
g8
(g12
S'@\x00\x00\x00\x00\x00\x00\x00'
p2010
tp2011
Rp2012
sa(dp2013
S'action'
p2014
S'delete'
p2015
sS'order'
p2016
F1523983267.761569
sS'objid'
p2017
g8
(g12
S'?\x00\x00\x00\x00\x00\x00\x00'
p2018
tp2019
Rp2020
sa(dp2021
S'action'
p2022
S'delete'
p2023
sS'order'
p2024
F1523983267.77785
sS'objid'
p2025
g8
(g12
S'>\x00\x00\x00\x00\x00\x00\x00'
p2026
tp2027
Rp2028
sa(dp2029
S'action'
p2030
S'delete'
p2031
sS'order'
p2032
F1523983267.795289
sS'objid'
p2033
g8
(g12
S'=\x00\x00\x00\x00\x00\x00\x00'
p2034
tp2035
Rp2036
sa(dp2037
S'action'
p2038
S'delete'
p2039
sS'order'
p2040
F1523983267.811749
sS'objid'
p2041
g8
(g12
S'<\x00\x00\x00\x00\x00\x00\x00'
p2042
tp2043
Rp2044
sa(dp2045
S'action'
p2046
S'delete'
p2047
sS'order'
p2048
F1523983267.828052
sS'objid'
p2049
g8
(g12
S';\x00\x00\x00\x00\x00\x00\x00'
p2050
tp2051
Rp2052
sa(dp2053
S'action'
p2054
S'delete'
p2055
sS'order'
p2056
F1523983267.845426
sS'objid'
p2057
g8
(g12
S':\x00\x00\x00\x00\x00\x00\x00'
p2058
tp2059
Rp2060
sa(dp2061
S'action'
p2062
S'delete'
p2063
sS'order'
p2064
F1523983267.861867
sS'objid'
p2065
g8
(g12
S'9\x00\x00\x00\x00\x00\x00\x00'
p2066
tp2067
Rp2068
sa(dp2069
S'action'
p2070
S'delete'
p2071
sS'order'
p2072
F1523983267.878434
sS'objid'
p2073
g8
(g12
S'8\x00\x00\x00\x00\x00\x00\x00'
p2074
tp2075
Rp2076
sa(dp2077
S'action'
p2078
S'delete'
p2079
sS'order'
p2080
F1523983267.896137
sS'objid'
p2081
g8
(g12
S'7\x00\x00\x00\x00\x00\x00\x00'
p2082
tp2083
Rp2084
sa(dp2085
S'action'
p2086
S'delete'
p2087
sS'order'
p2088
F1523983267.912983
sS'objid'
p2089
g8
(g12
S'6\x00\x00\x00\x00\x00\x00\x00'
p2090
tp2091
Rp2092
sa(dp2093
S'action'
p2094
S'delete'
p2095
sS'order'
p2096
F1523983267.929652
sS'objid'
p2097
g8
(g12
S'5\x00\x00\x00\x00\x00\x00\x00'
p2098
tp2099
Rp2100
sa(dp2101
S'action'
p2102
S'delete'
p2103
sS'order'
p2104
F1523983267.947449
sS'objid'
p2105
g8
(g12
S'4\x00\x00\x00\x00\x00\x00\x00'
p2106
tp2107
Rp2108
sa(dp2109
S'action'
p2110
S'delete'
p2111
sS'order'
p2112
F1523983267.964295
sS'objid'
p2113
g8
(g12
S'3\x00\x00\x00\x00\x00\x00\x00'
p2114
tp2115
Rp2116
sa(dp2117
S'action'
p2118
S'delete'
p2119
sS'order'
p2120
F1523983267.982152
sS'objid'
p2121
g8
(g12
S'2\x00\x00\x00\x00\x00\x00\x00'
p2122
tp2123
Rp2124
sa(dp2125
S'action'
p2126
S'delete'
p2127
sS'order'
p2128
F1523983267.999245
sS'objid'
p2129
g8
(g12
S'1\x00\x00\x00\x00\x00\x00\x00'
p2130
tp2131
Rp2132
sa(dp2133
S'action'
p2134
S'delete'
p2135
sS'order'
p2136
F1523983268.016414
sS'objid'
p2137
g8
(g12
S'0\x00\x00\x00\x00\x00\x00\x00'
p2138
tp2139
Rp2140
sa(dp2141
S'action'
p2142
S'delete'
p2143
sS'order'
p2144
F1523983268.034425
sS'objid'
p2145
g8
(g12
S'/\x00\x00\x00\x00\x00\x00\x00'
p2146
tp2147
Rp2148
sa(dp2149
S'action'
p2150
S'delete'
p2151
sS'order'
p2152
F1523983268.051637
sS'objid'
p2153
g8
(g12
S'.\x00\x00\x00\x00\x00\x00\x00'
p2154
tp2155
Rp2156
sa(dp2157
S'action'
p2158
S'delete'
p2159
sS'order'
p2160
F1523983268.068839
sS'objid'
p2161
g8
(g12
S'-\x00\x00\x00\x00\x00\x00\x00'
p2162
tp2163
Rp2164
sa(dp2165
S'action'
p2166
S'delete'
p2167
sS'order'
p2168
F1523983268.089307
sS'objid'
p2169
g8
(g12
S',\x00\x00\x00\x00\x00\x00\x00'
p2170
tp2171
Rp2172
sa(dp2173
S'action'
p2174
S'delete'
p2175
sS'order'
p2176
F1523983268.106763
sS'objid'
p2177
g8
(g12
S'+\x00\x00\x00\x00\x00\x00\x00'
p2178
tp2179
Rp2180
sa(dp2181
S'action'
p2182
S'delete'
p2183
sS'order'
p2184
F1523983268.125053
sS'objid'
p2185
g8
(g12
S'*\x00\x00\x00\x00\x00\x00\x00'
p2186
tp2187
Rp2188
sa(dp2189
S'action'
p2190
S'delete'
p2191
sS'order'
p2192
F1523983268.142397
sS'objid'
p2193
g8
(g12
S')\x00\x00\x00\x00\x00\x00\x00'
p2194
tp2195
Rp2196
sa(dp2197
S'action'
p2198
S'delete'
p2199
sS'order'
p2200
F1523983268.160132
sS'objid'
p2201
g8
(g12
S'(\x00\x00\x00\x00\x00\x00\x00'
p2202
tp2203
Rp2204
sa(dp2205
S'action'
p2206
S'delete'
p2207
sS'order'
p2208
F1523983268.178539
sS'objid'
p2209
g8
(g12
S"'\x00\x00\x00\x00\x00\x00\x00"
p2210
tp2211
Rp2212
sa(dp2213
S'action'
p2214
S'delete'
p2215
sS'order'
p2216
F1523983268.196427
sS'objid'
p2217
g8
(g12
S'&\x00\x00\x00\x00\x00\x00\x00'
p2218
tp2219
Rp2220
sa(dp2221
S'action'
p2222
S'delete'
p2223
sS'order'
p2224
F1523983268.214411
sS'objid'
p2225
g8
(g12
S'%\x00\x00\x00\x00\x00\x00\x00'
p2226
tp2227
Rp2228
sa(dp2229
S'action'
p2230
S'delete'
p2231
sS'order'
p2232
F1523983268.233336
sS'objid'
p2233
g8
(g12
S'$\x00\x00\x00\x00\x00\x00\x00'
p2234
tp2235
Rp2236
sa(dp2237
S'action'
p2238
S'delete'
p2239
sS'order'
p2240
F1523983268.251283
sS'objid'
p2241
g8
(g12
S'#\x00\x00\x00\x00\x00\x00\x00'
p2242
tp2243
Rp2244
sa(dp2245
S'action'
p2246
S'delete'
p2247
sS'order'
p2248
F1523983268.270199
sS'objid'
p2249
g8
(g12
S'"\x00\x00\x00\x00\x00\x00\x00'
p2250
tp2251
Rp2252
sa(dp2253
S'action'
p2254
S'delete'
p2255
sS'order'
p2256
F1523983268.28837
sS'objid'
p2257
g8
(g12
S'!\x00\x00\x00\x00\x00\x00\x00'
p2258
tp2259
Rp2260
sa(dp2261
S'action'
p2262
S'delete'
p2263
sS'order'
p2264
F1523983268.306706
sS'objid'
p2265
g8
(g12
S' \x00\x00\x00\x00\x00\x00\x00'
p2266
tp2267
Rp2268
sa(dp2269
S'action'
p2270
S'delete'
p2271
sS'order'
p2272
F1523983268.325891
sS'objid'
p2273
g8
(g12
S'\x1f\x00\x00\x00\x00\x00\x00\x00'
p2274
tp2275
Rp2276
sa(dp2277
S'action'
p2278
S'delete'
p2279
sS'order'
p2280
F1523983268.344409
sS'objid'
p2281
g8
(g12
S'\x1e\x00\x00\x00\x00\x00\x00\x00'
p2282
tp2283
Rp2284
sa(dp2285
S'action'
p2286
S'delete'
p2287
sS'order'
p2288
F1523983268.362784
sS'objid'
p2289
g8
(g12
S'\x1d\x00\x00\x00\x00\x00\x00\x00'
p2290
tp2291
Rp2292
sa(dp2293
S'action'
p2294
S'delete'
p2295
sS'order'
p2296
F1523983268.382108
sS'objid'
p2297
g8
(g12
S'\x1c\x00\x00\x00\x00\x00\x00\x00'
p2298
tp2299
Rp2300
sa(dp2301
S'action'
p2302
S'delete'
p2303
sS'order'
p2304
F1523983268.400725
sS'objid'
p2305
g8
(g12
S'\x1b\x00\x00\x00\x00\x00\x00\x00'
p2306
tp2307
Rp2308
sa(dp2309
S'action'
p2310
S'delete'
p2311
sS'order'
p2312
F1523983268.422839
sS'objid'
p2313
g8
(g12
S'\x1a\x00\x00\x00\x00\x00\x00\x00'
p2314
tp2315
Rp2316
sa(dp2317
S'action'
p2318
S'delete'
p2319
sS'order'
p2320
F1523983268.441464
sS'objid'
p2321
g8
(g12
S'\x19\x00\x00\x00\x00\x00\x00\x00'
p2322
tp2323
Rp2324
sa(dp2325
S'action'
p2326
S'delete'
p2327
sS'order'
p2328
F1523983268.46018
sS'objid'
p2329
g8
(g12
S'\x18\x00\x00\x00\x00\x00\x00\x00'
p2330
tp2331
Rp2332
sa(dp2333
S'action'
p2334
S'delete'
p2335
sS'order'
p2336
F1523983268.478902
sS'objid'
p2337
g8
(g12
S'\x17\x00\x00\x00\x00\x00\x00\x00'
p2338
tp2339
Rp2340
sa(dp2341
S'action'
p2342
S'delete'
p2343
sS'order'
p2344
F1523983278.528518
sS'objid'
p2345
g8
(g12
S'\x16\x00\x00\x00\x00\x00\x00\x00'
p2346
tp2347
Rp2348
sa(dp2349
S'action'
p2350
S'delete'
p2351
sS'order'
p2352
F1523983278.556169
sS'objid'
p2353
g8
(g12
S'\x15\x00\x00\x00\x00\x00\x00\x00'
p2354
tp2355
Rp2356
sa(dp2357
S'action'
p2358
S'delete'
p2359
sS'order'
p2360
F1523983278.575317
sS'objid'
p2361
g8
(g12
S'\x14\x00\x00\x00\x00\x00\x00\x00'
p2362
tp2363
Rp2364
sa(dp2365
S'action'
p2366
S'delete'
p2367
sS'order'
p2368
F1523983278.594639
sS'objid'
p2369
g8
(g12
S'\x13\x00\x00\x00\x00\x00\x00\x00'
p2370
tp2371
Rp2372
sa(dp2373
S'action'
p2374
S'delete'
p2375
sS'order'
p2376
F1523983278.61369
sS'objid'
p2377
g8
(g12
S'\x12\x00\x00\x00\x00\x00\x00\x00'
p2378
tp2379
Rp2380
sa(dp2381
S'action'
p2382
S'delete'
p2383
sS'order'
p2384
F1523983278.632722
sS'objid'
p2385
g8
(g12
S'\x11\x00\x00\x00\x00\x00\x00\x00'
p2386
tp2387
Rp2388
sa(dp2389
S'action'
p2390
S'delete'
p2391
sS'order'
p2392
F1523983278.651822
sS'objid'
p2393
g8
(g12
S'\x10\x00\x00\x00\x00\x00\x00\x00'
p2394
tp2395
Rp2396
sa(dp2397
S'action'
p2398
S'delete'
p2399
sS'order'
p2400
F1523983278.671068
sS'objid'
p2401
g8
(g12
S'\x0f\x00\x00\x00\x00\x00\x00\x00'
p2402
tp2403
Rp2404
sa(dp2405
S'action'
p2406
S'delete'
p2407
sS'order'
p2408
F1523983278.690487
sS'objid'
p2409
g8
(g12
S'\x0e\x00\x00\x00\x00\x00\x00\x00'
p2410
tp2411
Rp2412
sa(dp2413
S'action'
p2414
S'delete'
p2415
sS'order'
p2416
F1523983278.709956
sS'objid'
p2417
g8
(g12
S'\r\x00\x00\x00\x00\x00\x00\x00'
p2418
tp2419
Rp2420
sa(dp2421
S'action'
p2422
S'delete'
p2423
sS'order'
p2424
F1523983278.729287
sS'objid'
p2425
g8
(g12
S'\x0c\x00\x00\x00\x00\x00\x00\x00'
p2426
tp2427
Rp2428
sa(dp2429
S'action'
p2430
S'delete'
p2431
sS'order'
p2432
F1523983278.748621
sS'objid'
p2433
g8
(g12
S'\x0b\x00\x00\x00\x00\x00\x00\x00'
p2434
tp2435
Rp2436
sa(dp2437
S'action'
p2438
S'delete'
p2439
sS'order'
p2440
F1523983278.768229
sS'objid'
p2441
g8
(g12
S'\n\x00\x00\x00\x00\x00\x00\x00'
p2442
tp2443
Rp2444
sa(dp2445
S'action'
p2446
S'delete'
p2447
sS'order'
p2448
F1523983278.787875
sS'objid'
p2449
g8
(g12
S'\t\x00\x00\x00\x00\x00\x00\x00'
p2450
tp2451
Rp2452
sa(dp2453
S'action'
p2454
S'delete'
p2455
sS'order'
p2456
F1523983278.807659
sS'objid'
p2457
g8
(g12
S'\x08\x00\x00\x00\x00\x00\x00\x00'
p2458
tp2459
Rp2460
sa(dp2461
S'action'
p2462
S'delete'
p2463
sS'order'
p2464
F1523983278.827267
sS'objid'
p2465
g8
(g12
S'\x07\x00\x00\x00\x00\x00\x00\x00'
p2466
tp2467
Rp2468
sa(dp2469
S'action'
p2470
S'delete'
p2471
sS'order'
p2472
F1523983278.84707
sS'objid'
p2473
g8
(g12
S'\x06\x00\x00\x00\x00\x00\x00\x00'
p2474
tp2475
Rp2476
sa(dp2477
S'action'
p2478
S'delete'
p2479
sS'order'
p2480
F1523983278.866889
sS'objid'
p2481
g8
(g12
S'\x05\x00\x00\x00\x00\x00\x00\x00'
p2482
tp2483
Rp2484
sa(dp2485
S'action'
p2486
S'delete'
p2487
sS'order'
p2488
F1523983278.886741
sS'objid'
p2489
g8
(g12
S'\x04\x00\x00\x00\x00\x00\x00\x00'
p2490
tp2491
Rp2492
sa(dp2493
S'action'
p2494
S'delete'
p2495
sS'order'
p2496
F1523983278.906871
sS'objid'
p2497
g8
(g12
S'\x03\x00\x00\x00\x00\x00\x00\x00'
p2498
tp2499
Rp2500
sa.