(lp0
(dp1
S'action'
p2
S'join'
p3
sS'data_to_add'
p4
(lp5
sS'order'
p6
F1523922856.917687
sS'new_objid'
p7
cnumpy.core.multiarray
scalar
p8
(cnumpy
dtype
p9
(S'i8'
p10
I0
I1
tp11
Rp12
(I3
S'<'
p13
NNNI-1
I-1
I0
tp14
bS'#\x01\x00\x00\x00\x00\x00\x00'
p15
tp16
Rp17
sS'objids'
p18
(lp19
g8
(g12
S'\x00\x00\x00\x00\x00\x00\x00\x00'
p20
tp21
Rp22
ag8
(g12
S'\x12\x00\x00\x00\x00\x00\x00\x00'
p23
tp24
Rp25
asa(dp26
S'cut_frame_global'
p27
I393
sS'cut_time_epoch'
p28
g8
(g9
(S'f8'
p29
I0
I1
tp30
Rp31
(I3
S'<'
p32
NNNI-1
I-1
I0
tp33
bS'\x88\xbfU\xaf\x98\xb4\xd6A'
p34
tp35
Rp36
sS'cut_frame_trajectory'
p37
g8
(g12
S'\x12\x00\x00\x00\x00\x00\x00\x00'
p38
tp39
Rp40
sS'objid'
p41
g8
(g12
S'A\x00\x00\x00\x00\x00\x00\x00'
p42
tp43
Rp44
sS'action'
p45
S'cut'
p46
sS'order'
p47
F1523922866.30718
sS'new_objid'
p48
g8
(g12
S'$\x01\x00\x00\x00\x00\x00\x00'
p49
tp50
Rp51
sa(dp52
S'action'
p53
S'join'
p54
sS'data_to_add'
p55
(lp56
sS'order'
p57
F1523922871.433828
sS'new_objid'
p58
g8
(g12
S'%\x01\x00\x00\x00\x00\x00\x00'
p59
tp60
Rp61
sS'objids'
p62
(lp63
g8
(g12
S'$\x01\x00\x00\x00\x00\x00\x00'
p64
tp65
Rp66
ag8
(g12
S'#\x01\x00\x00\x00\x00\x00\x00'
p67
tp68
Rp69
asa(dp70
S'cut_frame_global'
p71
I795
sS'cut_time_epoch'
p72
g8
(g31
S'r\x8cb\xb9\x98\xb4\xd6A'
p73
tp74
Rp75
sS'cut_frame_trajectory'
p76
g8
(g12
S'\x1a\x03\x00\x00\x00\x00\x00\x00'
p77
tp78
Rp79
sS'objid'
p80
g8
(g12
S'%\x01\x00\x00\x00\x00\x00\x00'
p81
tp82
Rp83
sS'action'
p84
S'cut'
p85
sS'order'
p86
F1523922880.227721
sS'new_objid'
p87
g8
(g12
S'&\x01\x00\x00\x00\x00\x00\x00'
p88
tp89
Rp90
sa(dp91
S'action'
p92
S'join'
p93
sS'data_to_add'
p94
(lp95
sS'order'
p96
F1523922886.753759
sS'new_objid'
p97
g8
(g12
S"'\x01\x00\x00\x00\x00\x00\x00"
p98
tp99
Rp100
sS'objids'
p101
(lp102
g8
(g12
S'%\x01\x00\x00\x00\x00\x00\x00'
p103
tp104
Rp105
ag8
(g12
S'\x80\x00\x00\x00\x00\x00\x00\x00'
p106
tp107
Rp108
asa(dp109
S'action'
p110
S'delete'
p111
sS'order'
p112
F1523922916.914695
sS'objid'
p113
g8
(g12
S'\x18\x01\x00\x00\x00\x00\x00\x00'
p114
tp115
Rp116
sa(dp117
S'action'
p118
S'delete'
p119
sS'order'
p120
F1523922916.917316
sS'objid'
p121
g8
(g12
S'\x17\x01\x00\x00\x00\x00\x00\x00'
p122
tp123
Rp124
sa(dp125
S'action'
p126
S'delete'
p127
sS'order'
p128
F1523922916.920342
sS'objid'
p129
g8
(g12
S'\x16\x01\x00\x00\x00\x00\x00\x00'
p130
tp131
Rp132
sa(dp133
S'action'
p134
S'delete'
p135
sS'order'
p136
F1523922916.923116
sS'objid'
p137
g8
(g12
S'\x15\x01\x00\x00\x00\x00\x00\x00'
p138
tp139
Rp140
sa(dp141
S'action'
p142
S'delete'
p143
sS'order'
p144
F1523922916.92614
sS'objid'
p145
g8
(g12
S'\x14\x01\x00\x00\x00\x00\x00\x00'
p146
tp147
Rp148
sa(dp149
S'action'
p150
S'delete'
p151
sS'order'
p152
F1523922916.928414
sS'objid'
p153
g8
(g12
S'\x13\x01\x00\x00\x00\x00\x00\x00'
p154
tp155
Rp156
sa(dp157
S'action'
p158
S'delete'
p159
sS'order'
p160
F1523922916.931084
sS'objid'
p161
g8
(g12
S'\x12\x01\x00\x00\x00\x00\x00\x00'
p162
tp163
Rp164
sa(dp165
S'action'
p166
S'delete'
p167
sS'order'
p168
F1523922916.933617
sS'objid'
p169
g8
(g12
S'\x11\x01\x00\x00\x00\x00\x00\x00'
p170
tp171
Rp172
sa(dp173
S'action'
p174
S'delete'
p175
sS'order'
p176
F1523922916.935563
sS'objid'
p177
g8
(g12
S'\x10\x01\x00\x00\x00\x00\x00\x00'
p178
tp179
Rp180
sa(dp181
S'action'
p182
S'delete'
p183
sS'order'
p184
F1523922916.937553
sS'objid'
p185
g8
(g12
S'\x0f\x01\x00\x00\x00\x00\x00\x00'
p186
tp187
Rp188
sa(dp189
S'action'
p190
S'delete'
p191
sS'order'
p192
F1523922916.939644
sS'objid'
p193
g8
(g12
S'\x0e\x01\x00\x00\x00\x00\x00\x00'
p194
tp195
Rp196
sa(dp197
S'action'
p198
S'delete'
p199
sS'order'
p200
F1523922916.941745
sS'objid'
p201
g8
(g12
S'\r\x01\x00\x00\x00\x00\x00\x00'
p202
tp203
Rp204
sa(dp205
S'action'
p206
S'delete'
p207
sS'order'
p208
F1523922916.943903
sS'objid'
p209
g8
(g12
S'\x0c\x01\x00\x00\x00\x00\x00\x00'
p210
tp211
Rp212
sa(dp213
S'action'
p214
S'delete'
p215
sS'order'
p216
F1523922916.946108
sS'objid'
p217
g8
(g12
S'\x0b\x01\x00\x00\x00\x00\x00\x00'
p218
tp219
Rp220
sa(dp221
S'action'
p222
S'delete'
p223
sS'order'
p224
F1523922916.948447
sS'objid'
p225
g8
(g12
S'\n\x01\x00\x00\x00\x00\x00\x00'
p226
tp227
Rp228
sa(dp229
S'action'
p230
S'delete'
p231
sS'order'
p232
F1523922916.950806
sS'objid'
p233
g8
(g12
S'\t\x01\x00\x00\x00\x00\x00\x00'
p234
tp235
Rp236
sa(dp237
S'action'
p238
S'delete'
p239
sS'order'
p240
F1523922916.953199
sS'objid'
p241
g8
(g12
S'\x08\x01\x00\x00\x00\x00\x00\x00'
p242
tp243
Rp244
sa(dp245
S'action'
p246
S'delete'
p247
sS'order'
p248
F1523922916.955649
sS'objid'
p249
g8
(g12
S'\x07\x01\x00\x00\x00\x00\x00\x00'
p250
tp251
Rp252
sa(dp253
S'action'
p254
S'delete'
p255
sS'order'
p256
F1523922916.958153
sS'objid'
p257
g8
(g12
S'\x06\x01\x00\x00\x00\x00\x00\x00'
p258
tp259
Rp260
sa(dp261
S'action'
p262
S'delete'
p263
sS'order'
p264
F1523922916.960709
sS'objid'
p265
g8
(g12
S'\x05\x01\x00\x00\x00\x00\x00\x00'
p266
tp267
Rp268
sa(dp269
S'action'
p270
S'delete'
p271
sS'order'
p272
F1523922916.963317
sS'objid'
p273
g8
(g12
S'\x04\x01\x00\x00\x00\x00\x00\x00'
p274
tp275
Rp276
sa(dp277
S'action'
p278
S'delete'
p279
sS'order'
p280
F1523922916.965984
sS'objid'
p281
g8
(g12
S'\x03\x01\x00\x00\x00\x00\x00\x00'
p282
tp283
Rp284
sa(dp285
S'action'
p286
S'delete'
p287
sS'order'
p288
F1523922916.968775
sS'objid'
p289
g8
(g12
S'\x02\x01\x00\x00\x00\x00\x00\x00'
p290
tp291
Rp292
sa(dp293
S'action'
p294
S'delete'
p295
sS'order'
p296
F1523922916.971562
sS'objid'
p297
g8
(g12
S'\x01\x01\x00\x00\x00\x00\x00\x00'
p298
tp299
Rp300
sa(dp301
S'action'
p302
S'delete'
p303
sS'order'
p304
F1523922916.974405
sS'objid'
p305
g8
(g12
S'\x00\x01\x00\x00\x00\x00\x00\x00'
p306
tp307
Rp308
sa(dp309
S'action'
p310
S'delete'
p311
sS'order'
p312
F1523922916.977323
sS'objid'
p313
g8
(g12
S'\xff\x00\x00\x00\x00\x00\x00\x00'
p314
tp315
Rp316
sa(dp317
S'action'
p318
S'delete'
p319
sS'order'
p320
F1523922916.980285
sS'objid'
p321
g8
(g12
S'\xfe\x00\x00\x00\x00\x00\x00\x00'
p322
tp323
Rp324
sa(dp325
S'action'
p326
S'delete'
p327
sS'order'
p328
F1523922916.983301
sS'objid'
p329
g8
(g12
S'\xfd\x00\x00\x00\x00\x00\x00\x00'
p330
tp331
Rp332
sa(dp333
S'action'
p334
S'delete'
p335
sS'order'
p336
F1523922916.986379
sS'objid'
p337
g8
(g12
S'\xfc\x00\x00\x00\x00\x00\x00\x00'
p338
tp339
Rp340
sa(dp341
S'action'
p342
S'delete'
p343
sS'order'
p344
F1523922916.989513
sS'objid'
p345
g8
(g12
S'\xfb\x00\x00\x00\x00\x00\x00\x00'
p346
tp347
Rp348
sa(dp349
S'action'
p350
S'delete'
p351
sS'order'
p352
F1523922916.992725
sS'objid'
p353
g8
(g12
S'\xfa\x00\x00\x00\x00\x00\x00\x00'
p354
tp355
Rp356
sa(dp357
S'action'
p358
S'delete'
p359
sS'order'
p360
F1523922916.996006
sS'objid'
p361
g8
(g12
S'\xf9\x00\x00\x00\x00\x00\x00\x00'
p362
tp363
Rp364
sa(dp365
S'action'
p366
S'delete'
p367
sS'order'
p368
F1523922916.999348
sS'objid'
p369
g8
(g12
S'\xf8\x00\x00\x00\x00\x00\x00\x00'
p370
tp371
Rp372
sa(dp373
S'action'
p374
S'delete'
p375
sS'order'
p376
F1523922917.002745
sS'objid'
p377
g8
(g12
S'\xf7\x00\x00\x00\x00\x00\x00\x00'
p378
tp379
Rp380
sa(dp381
S'action'
p382
S'delete'
p383
sS'order'
p384
F1523922917.006195
sS'objid'
p385
g8
(g12
S'\xf6\x00\x00\x00\x00\x00\x00\x00'
p386
tp387
Rp388
sa(dp389
S'action'
p390
S'delete'
p391
sS'order'
p392
F1523922917.009698
sS'objid'
p393
g8
(g12
S'\xf5\x00\x00\x00\x00\x00\x00\x00'
p394
tp395
Rp396
sa(dp397
S'action'
p398
S'delete'
p399
sS'order'
p400
F1523922917.013277
sS'objid'
p401
g8
(g12
S'\xf4\x00\x00\x00\x00\x00\x00\x00'
p402
tp403
Rp404
sa(dp405
S'action'
p406
S'delete'
p407
sS'order'
p408
F1523922917.016893
sS'objid'
p409
g8
(g12
S'\xf3\x00\x00\x00\x00\x00\x00\x00'
p410
tp411
Rp412
sa(dp413
S'action'
p414
S'delete'
p415
sS'order'
p416
F1523922917.020565
sS'objid'
p417
g8
(g12
S'\xf2\x00\x00\x00\x00\x00\x00\x00'
p418
tp419
Rp420
sa(dp421
S'action'
p422
S'delete'
p423
sS'order'
p424
F1523922917.024309
sS'objid'
p425
g8
(g12
S'\xf1\x00\x00\x00\x00\x00\x00\x00'
p426
tp427
Rp428
sa(dp429
S'action'
p430
S'delete'
p431
sS'order'
p432
F1523922917.028295
sS'objid'
p433
g8
(g12
S'\xf0\x00\x00\x00\x00\x00\x00\x00'
p434
tp435
Rp436
sa(dp437
S'action'
p438
S'delete'
p439
sS'order'
p440
F1523922917.032176
sS'objid'
p441
g8
(g12
S'\xef\x00\x00\x00\x00\x00\x00\x00'
p442
tp443
Rp444
sa(dp445
S'action'
p446
S'delete'
p447
sS'order'
p448
F1523922917.036122
sS'objid'
p449
g8
(g12
S'\xee\x00\x00\x00\x00\x00\x00\x00'
p450
tp451
Rp452
sa(dp453
S'action'
p454
S'delete'
p455
sS'order'
p456
F1523922917.040204
sS'objid'
p457
g8
(g12
S'\xed\x00\x00\x00\x00\x00\x00\x00'
p458
tp459
Rp460
sa(dp461
S'action'
p462
S'delete'
p463
sS'order'
p464
F1523922917.044256
sS'objid'
p465
g8
(g12
S'\xec\x00\x00\x00\x00\x00\x00\x00'
p466
tp467
Rp468
sa(dp469
S'action'
p470
S'delete'
p471
sS'order'
p472
F1523922917.048359
sS'objid'
p473
g8
(g12
S'\xeb\x00\x00\x00\x00\x00\x00\x00'
p474
tp475
Rp476
sa(dp477
S'action'
p478
S'delete'
p479
sS'order'
p480
F1523922917.052544
sS'objid'
p481
g8
(g12
S'\xea\x00\x00\x00\x00\x00\x00\x00'
p482
tp483
Rp484
sa(dp485
S'action'
p486
S'delete'
p487
sS'order'
p488
F1523922917.056777
sS'objid'
p489
g8
(g12
S'\xe9\x00\x00\x00\x00\x00\x00\x00'
p490
tp491
Rp492
sa(dp493
S'action'
p494
S'delete'
p495
sS'order'
p496
F1523922917.061049
sS'objid'
p497
g8
(g12
S'\xe8\x00\x00\x00\x00\x00\x00\x00'
p498
tp499
Rp500
sa(dp501
S'action'
p502
S'delete'
p503
sS'order'
p504
F1523922917.06539
sS'objid'
p505
g8
(g12
S'\xe7\x00\x00\x00\x00\x00\x00\x00'
p506
tp507
Rp508
sa(dp509
S'action'
p510
S'delete'
p511
sS'order'
p512
F1523922917.071242
sS'objid'
p513
g8
(g12
S'\xe6\x00\x00\x00\x00\x00\x00\x00'
p514
tp515
Rp516
sa(dp517
S'action'
p518
S'delete'
p519
sS'order'
p520
F1523922917.075673
sS'objid'
p521
g8
(g12
S'\xe5\x00\x00\x00\x00\x00\x00\x00'
p522
tp523
Rp524
sa(dp525
S'action'
p526
S'delete'
p527
sS'order'
p528
F1523922917.080167
sS'objid'
p529
g8
(g12
S'\xe4\x00\x00\x00\x00\x00\x00\x00'
p530
tp531
Rp532
sa(dp533
S'action'
p534
S'delete'
p535
sS'order'
p536
F1523922917.084712
sS'objid'
p537
g8
(g12
S'\xe3\x00\x00\x00\x00\x00\x00\x00'
p538
tp539
Rp540
sa(dp541
S'action'
p542
S'delete'
p543
sS'order'
p544
F1523922917.089313
sS'objid'
p545
g8
(g12
S'\xe2\x00\x00\x00\x00\x00\x00\x00'
p546
tp547
Rp548
sa(dp549
S'action'
p550
S'delete'
p551
sS'order'
p552
F1523922917.093983
sS'objid'
p553
g8
(g12
S'\xe1\x00\x00\x00\x00\x00\x00\x00'
p554
tp555
Rp556
sa(dp557
S'action'
p558
S'delete'
p559
sS'order'
p560
F1523922917.098723
sS'objid'
p561
g8
(g12
S'\xe0\x00\x00\x00\x00\x00\x00\x00'
p562
tp563
Rp564
sa(dp565
S'action'
p566
S'delete'
p567
sS'order'
p568
F1523922917.103503
sS'objid'
p569
g8
(g12
S'\xdf\x00\x00\x00\x00\x00\x00\x00'
p570
tp571
Rp572
sa(dp573
S'action'
p574
S'delete'
p575
sS'order'
p576
F1523922917.108333
sS'objid'
p577
g8
(g12
S'\xde\x00\x00\x00\x00\x00\x00\x00'
p578
tp579
Rp580
sa(dp581
S'action'
p582
S'delete'
p583
sS'order'
p584
F1523922917.113228
sS'objid'
p585
g8
(g12
S'\xdd\x00\x00\x00\x00\x00\x00\x00'
p586
tp587
Rp588
sa(dp589
S'action'
p590
S'delete'
p591
sS'order'
p592
F1523922917.118171
sS'objid'
p593
g8
(g12
S'\xdc\x00\x00\x00\x00\x00\x00\x00'
p594
tp595
Rp596
sa(dp597
S'action'
p598
S'delete'
p599
sS'order'
p600
F1523922917.123177
sS'objid'
p601
g8
(g12
S'\xdb\x00\x00\x00\x00\x00\x00\x00'
p602
tp603
Rp604
sa(dp605
S'action'
p606
S'delete'
p607
sS'order'
p608
F1523922917.128253
sS'objid'
p609
g8
(g12
S'\xda\x00\x00\x00\x00\x00\x00\x00'
p610
tp611
Rp612
sa(dp613
S'action'
p614
S'delete'
p615
sS'order'
p616
F1523922917.133476
sS'objid'
p617
g8
(g12
S'\xd9\x00\x00\x00\x00\x00\x00\x00'
p618
tp619
Rp620
sa(dp621
S'action'
p622
S'delete'
p623
sS'order'
p624
F1523922917.1387
sS'objid'
p625
g8
(g12
S'\xd8\x00\x00\x00\x00\x00\x00\x00'
p626
tp627
Rp628
sa(dp629
S'action'
p630
S'delete'
p631
sS'order'
p632
F1523922917.143991
sS'objid'
p633
g8
(g12
S'\xd7\x00\x00\x00\x00\x00\x00\x00'
p634
tp635
Rp636
sa(dp637
S'action'
p638
S'delete'
p639
sS'order'
p640
F1523922917.149344
sS'objid'
p641
g8
(g12
S'\xd6\x00\x00\x00\x00\x00\x00\x00'
p642
tp643
Rp644
sa(dp645
S'action'
p646
S'delete'
p647
sS'order'
p648
F1523922917.154699
sS'objid'
p649
g8
(g12
S'\xd5\x00\x00\x00\x00\x00\x00\x00'
p650
tp651
Rp652
sa(dp653
S'action'
p654
S'delete'
p655
sS'order'
p656
F1523922917.160154
sS'objid'
p657
g8
(g12
S'\xd4\x00\x00\x00\x00\x00\x00\x00'
p658
tp659
Rp660
sa(dp661
S'action'
p662
S'delete'
p663
sS'order'
p664
F1523922917.165626
sS'objid'
p665
g8
(g12
S'\xd3\x00\x00\x00\x00\x00\x00\x00'
p666
tp667
Rp668
sa(dp669
S'action'
p670
S'delete'
p671
sS'order'
p672
F1523922917.171181
sS'objid'
p673
g8
(g12
S'\xd2\x00\x00\x00\x00\x00\x00\x00'
p674
tp675
Rp676
sa(dp677
S'action'
p678
S'delete'
p679
sS'order'
p680
F1523922917.176777
sS'objid'
p681
g8
(g12
S'\xd1\x00\x00\x00\x00\x00\x00\x00'
p682
tp683
Rp684
sa(dp685
S'action'
p686
S'delete'
p687
sS'order'
p688
F1523922917.182454
sS'objid'
p689
g8
(g12
S'\xd0\x00\x00\x00\x00\x00\x00\x00'
p690
tp691
Rp692
sa(dp693
S'action'
p694
S'delete'
p695
sS'order'
p696
F1523922917.188222
sS'objid'
p697
g8
(g12
S'\xcf\x00\x00\x00\x00\x00\x00\x00'
p698
tp699
Rp700
sa(dp701
S'action'
p702
S'delete'
p703
sS'order'
p704
F1523922932.403383
sS'objid'
p705
g8
(g12
S'\xce\x00\x00\x00\x00\x00\x00\x00'
p706
tp707
Rp708
sa(dp709
S'action'
p710
S'delete'
p711
sS'order'
p712
F1523922932.414761
sS'objid'
p713
g8
(g12
S'\xcd\x00\x00\x00\x00\x00\x00\x00'
p714
tp715
Rp716
sa(dp717
S'action'
p718
S'delete'
p719
sS'order'
p720
F1523922932.422749
sS'objid'
p721
g8
(g12
S'\xcc\x00\x00\x00\x00\x00\x00\x00'
p722
tp723
Rp724
sa(dp725
S'action'
p726
S'delete'
p727
sS'order'
p728
F1523922932.429724
sS'objid'
p729
g8
(g12
S'\xcb\x00\x00\x00\x00\x00\x00\x00'
p730
tp731
Rp732
sa(dp733
S'action'
p734
S'delete'
p735
sS'order'
p736
F1523922932.435839
sS'objid'
p737
g8
(g12
S'\xca\x00\x00\x00\x00\x00\x00\x00'
p738
tp739
Rp740
sa(dp741
S'action'
p742
S'delete'
p743
sS'order'
p744
F1523922932.44197
sS'objid'
p745
g8
(g12
S'\xc9\x00\x00\x00\x00\x00\x00\x00'
p746
tp747
Rp748
sa(dp749
S'action'
p750
S'delete'
p751
sS'order'
p752
F1523922932.448161
sS'objid'
p753
g8
(g12
S'\xc8\x00\x00\x00\x00\x00\x00\x00'
p754
tp755
Rp756
sa(dp757
S'action'
p758
S'delete'
p759
sS'order'
p760
F1523922932.454342
sS'objid'
p761
g8
(g12
S'\xc7\x00\x00\x00\x00\x00\x00\x00'
p762
tp763
Rp764
sa(dp765
S'action'
p766
S'delete'
p767
sS'order'
p768
F1523922932.46058
sS'objid'
p769
g8
(g12
S'\xc6\x00\x00\x00\x00\x00\x00\x00'
p770
tp771
Rp772
sa(dp773
S'action'
p774
S'delete'
p775
sS'order'
p776
F1523922932.466878
sS'objid'
p777
g8
(g12
S'\xc5\x00\x00\x00\x00\x00\x00\x00'
p778
tp779
Rp780
sa(dp781
S'action'
p782
S'delete'
p783
sS'order'
p784
F1523922932.473266
sS'objid'
p785
g8
(g12
S'\xc4\x00\x00\x00\x00\x00\x00\x00'
p786
tp787
Rp788
sa(dp789
S'action'
p790
S'delete'
p791
sS'order'
p792
F1523922932.479659
sS'objid'
p793
g8
(g12
S'\xc3\x00\x00\x00\x00\x00\x00\x00'
p794
tp795
Rp796
sa(dp797
S'action'
p798
S'delete'
p799
sS'order'
p800
F1523922932.486344
sS'objid'
p801
g8
(g12
S'\xc2\x00\x00\x00\x00\x00\x00\x00'
p802
tp803
Rp804
sa(dp805
S'action'
p806
S'delete'
p807
sS'order'
p808
F1523922932.49286
sS'objid'
p809
g8
(g12
S'\xc1\x00\x00\x00\x00\x00\x00\x00'
p810
tp811
Rp812
sa(dp813
S'action'
p814
S'delete'
p815
sS'order'
p816
F1523922932.499442
sS'objid'
p817
g8
(g12
S'\xc0\x00\x00\x00\x00\x00\x00\x00'
p818
tp819
Rp820
sa(dp821
S'action'
p822
S'delete'
p823
sS'order'
p824
F1523922932.506076
sS'objid'
p825
g8
(g12
S'\xbf\x00\x00\x00\x00\x00\x00\x00'
p826
tp827
Rp828
sa(dp829
S'action'
p830
S'delete'
p831
sS'order'
p832
F1523922932.512774
sS'objid'
p833
g8
(g12
S'\xbe\x00\x00\x00\x00\x00\x00\x00'
p834
tp835
Rp836
sa(dp837
S'action'
p838
S'delete'
p839
sS'order'
p840
F1523922932.520891
sS'objid'
p841
g8
(g12
S'\xbd\x00\x00\x00\x00\x00\x00\x00'
p842
tp843
Rp844
sa(dp845
S'action'
p846
S'delete'
p847
sS'order'
p848
F1523922932.528204
sS'objid'
p849
g8
(g12
S'\xbc\x00\x00\x00\x00\x00\x00\x00'
p850
tp851
Rp852
sa(dp853
S'action'
p854
S'delete'
p855
sS'order'
p856
F1523922932.53514
sS'objid'
p857
g8
(g12
S'\xbb\x00\x00\x00\x00\x00\x00\x00'
p858
tp859
Rp860
sa(dp861
S'action'
p862
S'delete'
p863
sS'order'
p864
F1523922932.542085
sS'objid'
p865
g8
(g12
S'\xba\x00\x00\x00\x00\x00\x00\x00'
p866
tp867
Rp868
sa(dp869
S'action'
p870
S'delete'
p871
sS'order'
p872
F1523922932.549091
sS'objid'
p873
g8
(g12
S'\xb9\x00\x00\x00\x00\x00\x00\x00'
p874
tp875
Rp876
sa(dp877
S'action'
p878
S'delete'
p879
sS'order'
p880
F1523922932.556144
sS'objid'
p881
g8
(g12
S'\xb8\x00\x00\x00\x00\x00\x00\x00'
p882
tp883
Rp884
sa(dp885
S'action'
p886
S'delete'
p887
sS'order'
p888
F1523922932.563246
sS'objid'
p889
g8
(g12
S'\xb7\x00\x00\x00\x00\x00\x00\x00'
p890
tp891
Rp892
sa(dp893
S'action'
p894
S'delete'
p895
sS'order'
p896
F1523922932.570426
sS'objid'
p897
g8
(g12
S'\xb6\x00\x00\x00\x00\x00\x00\x00'
p898
tp899
Rp900
sa(dp901
S'action'
p902
S'delete'
p903
sS'order'
p904
F1523922932.577635
sS'objid'
p905
g8
(g12
S'\xb5\x00\x00\x00\x00\x00\x00\x00'
p906
tp907
Rp908
sa(dp909
S'action'
p910
S'delete'
p911
sS'order'
p912
F1523922932.584921
sS'objid'
p913
g8
(g12
S'\xb4\x00\x00\x00\x00\x00\x00\x00'
p914
tp915
Rp916
sa(dp917
S'action'
p918
S'delete'
p919
sS'order'
p920
F1523922932.59228
sS'objid'
p921
g8
(g12
S'\xb3\x00\x00\x00\x00\x00\x00\x00'
p922
tp923
Rp924
sa(dp925
S'action'
p926
S'delete'
p927
sS'order'
p928
F1523922932.599665
sS'objid'
p929
g8
(g12
S'\xb2\x00\x00\x00\x00\x00\x00\x00'
p930
tp931
Rp932
sa(dp933
S'action'
p934
S'delete'
p935
sS'order'
p936
F1523922932.60713
sS'objid'
p937
g8
(g12
S'\xb1\x00\x00\x00\x00\x00\x00\x00'
p938
tp939
Rp940
sa(dp941
S'action'
p942
S'delete'
p943
sS'order'
p944
F1523922932.614662
sS'objid'
p945
g8
(g12
S'\xb0\x00\x00\x00\x00\x00\x00\x00'
p946
tp947
Rp948
sa(dp949
S'action'
p950
S'delete'
p951
sS'order'
p952
F1523922932.623713
sS'objid'
p953
g8
(g12
S'\xaf\x00\x00\x00\x00\x00\x00\x00'
p954
tp955
Rp956
sa(dp957
S'action'
p958
S'delete'
p959
sS'order'
p960
F1523922932.631782
sS'objid'
p961
g8
(g12
S'\xae\x00\x00\x00\x00\x00\x00\x00'
p962
tp963
Rp964
sa(dp965
S'action'
p966
S'delete'
p967
sS'order'
p968
F1523922932.639523
sS'objid'
p969
g8
(g12
S'\xad\x00\x00\x00\x00\x00\x00\x00'
p970
tp971
Rp972
sa(dp973
S'action'
p974
S'delete'
p975
sS'order'
p976
F1523922932.647251
sS'objid'
p977
g8
(g12
S'\xac\x00\x00\x00\x00\x00\x00\x00'
p978
tp979
Rp980
sa(dp981
S'action'
p982
S'delete'
p983
sS'order'
p984
F1523922932.655072
sS'objid'
p985
g8
(g12
S'\xab\x00\x00\x00\x00\x00\x00\x00'
p986
tp987
Rp988
sa(dp989
S'action'
p990
S'delete'
p991
sS'order'
p992
F1523922932.662923
sS'objid'
p993
g8
(g12
S'\xaa\x00\x00\x00\x00\x00\x00\x00'
p994
tp995
Rp996
sa(dp997
S'action'
p998
S'delete'
p999
sS'order'
p1000
F1523922932.670854
sS'objid'
p1001
g8
(g12
S'\xa9\x00\x00\x00\x00\x00\x00\x00'
p1002
tp1003
Rp1004
sa(dp1005
S'action'
p1006
S'delete'
p1007
sS'order'
p1008
F1523922932.678836
sS'objid'
p1009
g8
(g12
S'\xa8\x00\x00\x00\x00\x00\x00\x00'
p1010
tp1011
Rp1012
sa(dp1013
S'action'
p1014
S'delete'
p1015
sS'order'
p1016
F1523922932.686875
sS'objid'
p1017
g8
(g12
S'\xa7\x00\x00\x00\x00\x00\x00\x00'
p1018
tp1019
Rp1020
sa(dp1021
S'action'
p1022
S'delete'
p1023
sS'order'
p1024
F1523922932.694941
sS'objid'
p1025
g8
(g12
S'\xa6\x00\x00\x00\x00\x00\x00\x00'
p1026
tp1027
Rp1028
sa(dp1029
S'action'
p1030
S'delete'
p1031
sS'order'
p1032
F1523922932.70312
sS'objid'
p1033
g8
(g12
S'\xa5\x00\x00\x00\x00\x00\x00\x00'
p1034
tp1035
Rp1036
sa(dp1037
S'action'
p1038
S'delete'
p1039
sS'order'
p1040
F1523922932.711328
sS'objid'
p1041
g8
(g12
S'\xa4\x00\x00\x00\x00\x00\x00\x00'
p1042
tp1043
Rp1044
sa(dp1045
S'action'
p1046
S'delete'
p1047
sS'order'
p1048
F1523922932.720294
sS'objid'
p1049
g8
(g12
S'\xa3\x00\x00\x00\x00\x00\x00\x00'
p1050
tp1051
Rp1052
sa(dp1053
S'action'
p1054
S'delete'
p1055
sS'order'
p1056
F1523922932.729734
sS'objid'
p1057
g8
(g12
S'\xa2\x00\x00\x00\x00\x00\x00\x00'
p1058
tp1059
Rp1060
sa(dp1061
S'action'
p1062
S'delete'
p1063
sS'order'
p1064
F1523922932.738225
sS'objid'
p1065
g8
(g12
S'\xa1\x00\x00\x00\x00\x00\x00\x00'
p1066
tp1067
Rp1068
sa(dp1069
S'action'
p1070
S'delete'
p1071
sS'order'
p1072
F1523922932.746708
sS'objid'
p1073
g8
(g12
S'\xa0\x00\x00\x00\x00\x00\x00\x00'
p1074
tp1075
Rp1076
sa(dp1077
S'action'
p1078
S'delete'
p1079
sS'order'
p1080
F1523922932.755186
sS'objid'
p1081
g8
(g12
S'\x9f\x00\x00\x00\x00\x00\x00\x00'
p1082
tp1083
Rp1084
sa(dp1085
S'action'
p1086
S'delete'
p1087
sS'order'
p1088
F1523922932.763729
sS'objid'
p1089
g8
(g12
S'\x9e\x00\x00\x00\x00\x00\x00\x00'
p1090
tp1091
Rp1092
sa(dp1093
S'action'
p1094
S'delete'
p1095
sS'order'
p1096
F1523922932.772334
sS'objid'
p1097
g8
(g12
S'\x9d\x00\x00\x00\x00\x00\x00\x00'
p1098
tp1099
Rp1100
sa(dp1101
S'action'
p1102
S'delete'
p1103
sS'order'
p1104
F1523922932.781034
sS'objid'
p1105
g8
(g12
S'\x9c\x00\x00\x00\x00\x00\x00\x00'
p1106
tp1107
Rp1108
sa(dp1109
S'action'
p1110
S'delete'
p1111
sS'order'
p1112
F1523922932.789776
sS'objid'
p1113
g8
(g12
S'\x9b\x00\x00\x00\x00\x00\x00\x00'
p1114
tp1115
Rp1116
sa(dp1117
S'action'
p1118
S'delete'
p1119
sS'order'
p1120
F1523922932.798541
sS'objid'
p1121
g8
(g12
S'\x9a\x00\x00\x00\x00\x00\x00\x00'
p1122
tp1123
Rp1124
sa(dp1125
S'action'
p1126
S'delete'
p1127
sS'order'
p1128
F1523922932.807366
sS'objid'
p1129
g8
(g12
S'\x99\x00\x00\x00\x00\x00\x00\x00'
p1130
tp1131
Rp1132
sa(dp1133
S'action'
p1134
S'delete'
p1135
sS'order'
p1136
F1523922932.816257
sS'objid'
p1137
g8
(g12
S'\x98\x00\x00\x00\x00\x00\x00\x00'
p1138
tp1139
Rp1140
sa(dp1141
S'action'
p1142
S'delete'
p1143
sS'order'
p1144
F1523922932.82644
sS'objid'
p1145
g8
(g12
S'\x97\x00\x00\x00\x00\x00\x00\x00'
p1146
tp1147
Rp1148
sa(dp1149
S'action'
p1150
S'delete'
p1151
sS'order'
p1152
F1523922932.836106
sS'objid'
p1153
g8
(g12
S'\x96\x00\x00\x00\x00\x00\x00\x00'
p1154
tp1155
Rp1156
sa(dp1157
S'action'
p1158
S'delete'
p1159
sS'order'
p1160
F1523922932.845224
sS'objid'
p1161
g8
(g12
S'\x95\x00\x00\x00\x00\x00\x00\x00'
p1162
tp1163
Rp1164
sa(dp1165
S'action'
p1166
S'delete'
p1167
sS'order'
p1168
F1523922932.854373
sS'objid'
p1169
g8
(g12
S'\x94\x00\x00\x00\x00\x00\x00\x00'
p1170
tp1171
Rp1172
sa(dp1173
S'action'
p1174
S'delete'
p1175
sS'order'
p1176
F1523922932.863588
sS'objid'
p1177
g8
(g12
S'\x93\x00\x00\x00\x00\x00\x00\x00'
p1178
tp1179
Rp1180
sa(dp1181
S'action'
p1182
S'delete'
p1183
sS'order'
p1184
F1523922932.872845
sS'objid'
p1185
g8
(g12
S'\x92\x00\x00\x00\x00\x00\x00\x00'
p1186
tp1187
Rp1188
sa(dp1189
S'action'
p1190
S'delete'
p1191
sS'order'
p1192
F1523922932.882169
sS'objid'
p1193
g8
(g12
S'\x91\x00\x00\x00\x00\x00\x00\x00'
p1194
tp1195
Rp1196
sa(dp1197
S'action'
p1198
S'delete'
p1199
sS'order'
p1200
F1523922932.891532
sS'objid'
p1201
g8
(g12
S'\x90\x00\x00\x00\x00\x00\x00\x00'
p1202
tp1203
Rp1204
sa(dp1205
S'action'
p1206
S'delete'
p1207
sS'order'
p1208
F1523922932.900974
sS'objid'
p1209
g8
(g12
S'\x8f\x00\x00\x00\x00\x00\x00\x00'
p1210
tp1211
Rp1212
sa(dp1213
S'action'
p1214
S'delete'
p1215
sS'order'
p1216
F1523922932.910483
sS'objid'
p1217
g8
(g12
S'\x8e\x00\x00\x00\x00\x00\x00\x00'
p1218
tp1219
Rp1220
sa(dp1221
S'action'
p1222
S'delete'
p1223
sS'order'
p1224
F1523922932.92004
sS'objid'
p1225
g8
(g12
S'\x8d\x00\x00\x00\x00\x00\x00\x00'
p1226
tp1227
Rp1228
sa(dp1229
S'action'
p1230
S'delete'
p1231
sS'order'
p1232
F1523922932.931288
sS'objid'
p1233
g8
(g12
S'\x8c\x00\x00\x00\x00\x00\x00\x00'
p1234
tp1235
Rp1236
sa(dp1237
S'action'
p1238
S'delete'
p1239
sS'order'
p1240
F1523922932.941114
sS'objid'
p1241
g8
(g12
S'\x8b\x00\x00\x00\x00\x00\x00\x00'
p1242
tp1243
Rp1244
sa(dp1245
S'action'
p1246
S'delete'
p1247
sS'order'
p1248
F1523922932.950844
sS'objid'
p1249
g8
(g12
S'\x8a\x00\x00\x00\x00\x00\x00\x00'
p1250
tp1251
Rp1252
sa(dp1253
S'action'
p1254
S'delete'
p1255
sS'order'
p1256
F1523922932.960618
sS'objid'
p1257
g8
(g12
S'\x89\x00\x00\x00\x00\x00\x00\x00'
p1258
tp1259
Rp1260
sa(dp1261
S'action'
p1262
S'delete'
p1263
sS'order'
p1264
F1523922932.970476
sS'objid'
p1265
g8
(g12
S'\x88\x00\x00\x00\x00\x00\x00\x00'
p1266
tp1267
Rp1268
sa(dp1269
S'action'
p1270
S'delete'
p1271
sS'order'
p1272
F1523922947.849454
sS'objid'
p1273
g8
(g12
S'&\x01\x00\x00\x00\x00\x00\x00'
p1274
tp1275
Rp1276
sa(dp1277
S'action'
p1278
S'delete'
p1279
sS'order'
p1280
F1523922947.867806
sS'objid'
p1281
g8
(g12
S'\x87\x00\x00\x00\x00\x00\x00\x00'
p1282
tp1283
Rp1284
sa(dp1285
S'action'
p1286
S'delete'
p1287
sS'order'
p1288
F1523922947.882272
sS'objid'
p1289
g8
(g12
S'\x86\x00\x00\x00\x00\x00\x00\x00'
p1290
tp1291
Rp1292
sa(dp1293
S'action'
p1294
S'delete'
p1295
sS'order'
p1296
F1523922947.897248
sS'objid'
p1297
g8
(g12
S'\x85\x00\x00\x00\x00\x00\x00\x00'
p1298
tp1299
Rp1300
sa(dp1301
S'action'
p1302
S'delete'
p1303
sS'order'
p1304
F1523922947.911216
sS'objid'
p1305
g8
(g12
S'\x84\x00\x00\x00\x00\x00\x00\x00'
p1306
tp1307
Rp1308
sa(dp1309
S'action'
p1310
S'delete'
p1311
sS'order'
p1312
F1523922947.921357
sS'objid'
p1313
g8
(g12
S'\x83\x00\x00\x00\x00\x00\x00\x00'
p1314
tp1315
Rp1316
sa(dp1317
S'action'
p1318
S'delete'
p1319
sS'order'
p1320
F1523922947.931675
sS'objid'
p1321
g8
(g12
S'\x82\x00\x00\x00\x00\x00\x00\x00'
p1322
tp1323
Rp1324
sa(dp1325
S'action'
p1326
S'delete'
p1327
sS'order'
p1328
F1523922947.942095
sS'objid'
p1329
g8
(g12
S'\x81\x00\x00\x00\x00\x00\x00\x00'
p1330
tp1331
Rp1332
sa(dp1333
S'action'
p1334
S'delete'
p1335
sS'order'
p1336
F1523922947.952607
sS'objid'
p1337
g8
(g12
S'\x7f\x00\x00\x00\x00\x00\x00\x00'
p1338
tp1339
Rp1340
sa(dp1341
S'action'
p1342
S'delete'
p1343
sS'order'
p1344
F1523922947.972031
sS'objid'
p1345
g8
(g12
S'~\x00\x00\x00\x00\x00\x00\x00'
p1346
tp1347
Rp1348
sa(dp1349
S'action'
p1350
S'delete'
p1351
sS'order'
p1352
F1523922947.982503
sS'objid'
p1353
g8
(g12
S'}\x00\x00\x00\x00\x00\x00\x00'
p1354
tp1355
Rp1356
sa(dp1357
S'action'
p1358
S'delete'
p1359
sS'order'
p1360
F1523922947.993037
sS'objid'
p1361
g8
(g12
S'|\x00\x00\x00\x00\x00\x00\x00'
p1362
tp1363
Rp1364
sa(dp1365
S'action'
p1366
S'delete'
p1367
sS'order'
p1368
F1523922948.003752
sS'objid'
p1369
g8
(g12
S'{\x00\x00\x00\x00\x00\x00\x00'
p1370
tp1371
Rp1372
sa(dp1373
S'action'
p1374
S'delete'
p1375
sS'order'
p1376
F1523922948.014433
sS'objid'
p1377
g8
(g12
S'z\x00\x00\x00\x00\x00\x00\x00'
p1378
tp1379
Rp1380
sa(dp1381
S'action'
p1382
S'delete'
p1383
sS'order'
p1384
F1523922948.02519
sS'objid'
p1385
g8
(g12
S'y\x00\x00\x00\x00\x00\x00\x00'
p1386
tp1387
Rp1388
sa(dp1389
S'action'
p1390
S'delete'
p1391
sS'order'
p1392
F1523922948.036105
sS'objid'
p1393
g8
(g12
S'x\x00\x00\x00\x00\x00\x00\x00'
p1394
tp1395
Rp1396
sa(dp1397
S'action'
p1398
S'delete'
p1399
sS'order'
p1400
F1523922948.047184
sS'objid'
p1401
g8
(g12
S'w\x00\x00\x00\x00\x00\x00\x00'
p1402
tp1403
Rp1404
sa(dp1405
S'action'
p1406
S'delete'
p1407
sS'order'
p1408
F1523922948.058251
sS'objid'
p1409
g8
(g12
S'v\x00\x00\x00\x00\x00\x00\x00'
p1410
tp1411
Rp1412
sa(dp1413
S'action'
p1414
S'delete'
p1415
sS'order'
p1416
F1523922948.069233
sS'objid'
p1417
g8
(g12
S'u\x00\x00\x00\x00\x00\x00\x00'
p1418
tp1419
Rp1420
sa(dp1421
S'action'
p1422
S'delete'
p1423
sS'order'
p1424
F1523922948.080284
sS'objid'
p1425
g8
(g12
S't\x00\x00\x00\x00\x00\x00\x00'
p1426
tp1427
Rp1428
sa(dp1429
S'action'
p1430
S'delete'
p1431
sS'order'
p1432
F1523922948.091413
sS'objid'
p1433
g8
(g12
S's\x00\x00\x00\x00\x00\x00\x00'
p1434
tp1435
Rp1436
sa(dp1437
S'action'
p1438
S'delete'
p1439
sS'order'
p1440
F1523922948.102624
sS'objid'
p1441
g8
(g12
S'r\x00\x00\x00\x00\x00\x00\x00'
p1442
tp1443
Rp1444
sa(dp1445
S'action'
p1446
S'delete'
p1447
sS'order'
p1448
F1523922948.113884
sS'objid'
p1449
g8
(g12
S'q\x00\x00\x00\x00\x00\x00\x00'
p1450
tp1451
Rp1452
sa(dp1453
S'action'
p1454
S'delete'
p1455
sS'order'
p1456
F1523922948.125155
sS'objid'
p1457
g8
(g12
S'p\x00\x00\x00\x00\x00\x00\x00'
p1458
tp1459
Rp1460
sa(dp1461
S'action'
p1462
S'delete'
p1463
sS'order'
p1464
F1523922948.136486
sS'objid'
p1465
g8
(g12
S'o\x00\x00\x00\x00\x00\x00\x00'
p1466
tp1467
Rp1468
sa(dp1469
S'action'
p1470
S'delete'
p1471
sS'order'
p1472
F1523922948.148114
sS'objid'
p1473
g8
(g12
S'n\x00\x00\x00\x00\x00\x00\x00'
p1474
tp1475
Rp1476
sa(dp1477
S'action'
p1478
S'delete'
p1479
sS'order'
p1480
F1523922948.159687
sS'objid'
p1481
g8
(g12
S'm\x00\x00\x00\x00\x00\x00\x00'
p1482
tp1483
Rp1484
sa(dp1485
S'action'
p1486
S'delete'
p1487
sS'order'
p1488
F1523922948.171252
sS'objid'
p1489
g8
(g12
S'l\x00\x00\x00\x00\x00\x00\x00'
p1490
tp1491
Rp1492
sa(dp1493
S'action'
p1494
S'delete'
p1495
sS'order'
p1496
F1523922948.182789
sS'objid'
p1497
g8
(g12
S'k\x00\x00\x00\x00\x00\x00\x00'
p1498
tp1499
Rp1500
sa(dp1501
S'action'
p1502
S'delete'
p1503
sS'order'
p1504
F1523922948.194478
sS'objid'
p1505
g8
(g12
S'j\x00\x00\x00\x00\x00\x00\x00'
p1506
tp1507
Rp1508
sa(dp1509
S'action'
p1510
S'delete'
p1511
sS'order'
p1512
F1523922948.206161
sS'objid'
p1513
g8
(g12
S'i\x00\x00\x00\x00\x00\x00\x00'
p1514
tp1515
Rp1516
sa(dp1517
S'action'
p1518
S'delete'
p1519
sS'order'
p1520
F1523922948.217916
sS'objid'
p1521
g8
(g12
S'h\x00\x00\x00\x00\x00\x00\x00'
p1522
tp1523
Rp1524
sa(dp1525
S'action'
p1526
S'delete'
p1527
sS'order'
p1528
F1523922948.229868
sS'objid'
p1529
g8
(g12
S'g\x00\x00\x00\x00\x00\x00\x00'
p1530
tp1531
Rp1532
sa(dp1533
S'action'
p1534
S'delete'
p1535
sS'order'
p1536
F1523922948.241787
sS'objid'
p1537
g8
(g12
S'f\x00\x00\x00\x00\x00\x00\x00'
p1538
tp1539
Rp1540
sa(dp1541
S'action'
p1542
S'delete'
p1543
sS'order'
p1544
F1523922948.253907
sS'objid'
p1545
g8
(g12
S'e\x00\x00\x00\x00\x00\x00\x00'
p1546
tp1547
Rp1548
sa(dp1549
S'action'
p1550
S'delete'
p1551
sS'order'
p1552
F1523922948.265903
sS'objid'
p1553
g8
(g12
S'd\x00\x00\x00\x00\x00\x00\x00'
p1554
tp1555
Rp1556
sa(dp1557
S'action'
p1558
S'delete'
p1559
sS'order'
p1560
F1523922948.277901
sS'objid'
p1561
g8
(g12
S'c\x00\x00\x00\x00\x00\x00\x00'
p1562
tp1563
Rp1564
sa(dp1565
S'action'
p1566
S'delete'
p1567
sS'order'
p1568
F1523922948.29009
sS'objid'
p1569
g8
(g12
S'b\x00\x00\x00\x00\x00\x00\x00'
p1570
tp1571
Rp1572
sa(dp1573
S'action'
p1574
S'delete'
p1575
sS'order'
p1576
F1523922948.30222
sS'objid'
p1577
g8
(g12
S'a\x00\x00\x00\x00\x00\x00\x00'
p1578
tp1579
Rp1580
sa(dp1581
S'action'
p1582
S'delete'
p1583
sS'order'
p1584
F1523922948.314478
sS'objid'
p1585
g8
(g12
S'`\x00\x00\x00\x00\x00\x00\x00'
p1586
tp1587
Rp1588
sa(dp1589
S'action'
p1590
S'delete'
p1591
sS'order'
p1592
F1523922948.326733
sS'objid'
p1593
g8
(g12
S'_\x00\x00\x00\x00\x00\x00\x00'
p1594
tp1595
Rp1596
sa(dp1597
S'action'
p1598
S'delete'
p1599
sS'order'
p1600
F1523922948.339012
sS'objid'
p1601
g8
(g12
S'^\x00\x00\x00\x00\x00\x00\x00'
p1602
tp1603
Rp1604
sa(dp1605
S'action'
p1606
S'delete'
p1607
sS'order'
p1608
F1523922948.351506
sS'objid'
p1609
g8
(g12
S']\x00\x00\x00\x00\x00\x00\x00'
p1610
tp1611
Rp1612
sa(dp1613
S'action'
p1614
S'delete'
p1615
sS'order'
p1616
F1523922948.364028
sS'objid'
p1617
g8
(g12
S'\\\x00\x00\x00\x00\x00\x00\x00'
p1618
tp1619
Rp1620
sa(dp1621
S'action'
p1622
S'delete'
p1623
sS'order'
p1624
F1523922948.376507
sS'objid'
p1625
g8
(g12
S'[\x00\x00\x00\x00\x00\x00\x00'
p1626
tp1627
Rp1628
sa(dp1629
S'action'
p1630
S'delete'
p1631
sS'order'
p1632
F1523922948.389058
sS'objid'
p1633
g8
(g12
S'Z\x00\x00\x00\x00\x00\x00\x00'
p1634
tp1635
Rp1636
sa(dp1637
S'action'
p1638
S'delete'
p1639
sS'order'
p1640
F1523922948.401642
sS'objid'
p1641
g8
(g12
S'Y\x00\x00\x00\x00\x00\x00\x00'
p1642
tp1643
Rp1644
sa(dp1645
S'action'
p1646
S'delete'
p1647
sS'order'
p1648
F1523922948.414313
sS'objid'
p1649
g8
(g12
S'X\x00\x00\x00\x00\x00\x00\x00'
p1650
tp1651
Rp1652
sa(dp1653
S'action'
p1654
S'delete'
p1655
sS'order'
p1656
F1523922948.427058
sS'objid'
p1657
g8
(g12
S'W\x00\x00\x00\x00\x00\x00\x00'
p1658
tp1659
Rp1660
sa(dp1661
S'action'
p1662
S'delete'
p1663
sS'order'
p1664
F1523922948.439813
sS'objid'
p1665
g8
(g12
S'V\x00\x00\x00\x00\x00\x00\x00'
p1666
tp1667
Rp1668
sa(dp1669
S'action'
p1670
S'delete'
p1671
sS'order'
p1672
F1523922948.452711
sS'objid'
p1673
g8
(g12
S'U\x00\x00\x00\x00\x00\x00\x00'
p1674
tp1675
Rp1676
sa(dp1677
S'action'
p1678
S'delete'
p1679
sS'order'
p1680
F1523922948.465777
sS'objid'
p1681
g8
(g12
S'T\x00\x00\x00\x00\x00\x00\x00'
p1682
tp1683
Rp1684
sa(dp1685
S'action'
p1686
S'delete'
p1687
sS'order'
p1688
F1523922948.478739
sS'objid'
p1689
g8
(g12
S'S\x00\x00\x00\x00\x00\x00\x00'
p1690
tp1691
Rp1692
sa(dp1693
S'action'
p1694
S'delete'
p1695
sS'order'
p1696
F1523922948.491732
sS'objid'
p1697
g8
(g12
S'R\x00\x00\x00\x00\x00\x00\x00'
p1698
tp1699
Rp1700
sa(dp1701
S'action'
p1702
S'delete'
p1703
sS'order'
p1704
F1523922948.504794
sS'objid'
p1705
g8
(g12
S'Q\x00\x00\x00\x00\x00\x00\x00'
p1706
tp1707
Rp1708
sa(dp1709
S'action'
p1710
S'delete'
p1711
sS'order'
p1712
F1523922948.517928
sS'objid'
p1713
g8
(g12
S'P\x00\x00\x00\x00\x00\x00\x00'
p1714
tp1715
Rp1716
sa(dp1717
S'action'
p1718
S'delete'
p1719
sS'order'
p1720
F1523922948.531144
sS'objid'
p1721
g8
(g12
S'O\x00\x00\x00\x00\x00\x00\x00'
p1722
tp1723
Rp1724
sa(dp1725
S'action'
p1726
S'delete'
p1727
sS'order'
p1728
F1523922948.544393
sS'objid'
p1729
g8
(g12
S'N\x00\x00\x00\x00\x00\x00\x00'
p1730
tp1731
Rp1732
sa(dp1733
S'action'
p1734
S'delete'
p1735
sS'order'
p1736
F1523922948.557842
sS'objid'
p1737
g8
(g12
S'M\x00\x00\x00\x00\x00\x00\x00'
p1738
tp1739
Rp1740
sa(dp1741
S'action'
p1742
S'delete'
p1743
sS'order'
p1744
F1523922948.571339
sS'objid'
p1745
g8
(g12
S'L\x00\x00\x00\x00\x00\x00\x00'
p1746
tp1747
Rp1748
sa(dp1749
S'action'
p1750
S'delete'
p1751
sS'order'
p1752
F1523922948.584754
sS'objid'
p1753
g8
(g12
S'K\x00\x00\x00\x00\x00\x00\x00'
p1754
tp1755
Rp1756
sa(dp1757
S'action'
p1758
S'delete'
p1759
sS'order'
p1760
F1523922948.598252
sS'objid'
p1761
g8
(g12
S'J\x00\x00\x00\x00\x00\x00\x00'
p1762
tp1763
Rp1764
sa(dp1765
S'action'
p1766
S'delete'
p1767
sS'order'
p1768
F1523922948.611796
sS'objid'
p1769
g8
(g12
S'I\x00\x00\x00\x00\x00\x00\x00'
p1770
tp1771
Rp1772
sa(dp1773
S'action'
p1774
S'delete'
p1775
sS'order'
p1776
F1523922948.625378
sS'objid'
p1777
g8
(g12
S'H\x00\x00\x00\x00\x00\x00\x00'
p1778
tp1779
Rp1780
sa(dp1781
S'action'
p1782
S'delete'
p1783
sS'order'
p1784
F1523922948.638988
sS'objid'
p1785
g8
(g12
S'G\x00\x00\x00\x00\x00\x00\x00'
p1786
tp1787
Rp1788
sa(dp1789
S'action'
p1790
S'delete'
p1791
sS'order'
p1792
F1523922948.652808
sS'objid'
p1793
g8
(g12
S'F\x00\x00\x00\x00\x00\x00\x00'
p1794
tp1795
Rp1796
sa(dp1797
S'action'
p1798
S'delete'
p1799
sS'order'
p1800
F1523922948.666739
sS'objid'
p1801
g8
(g12
S'E\x00\x00\x00\x00\x00\x00\x00'
p1802
tp1803
Rp1804
sa(dp1805
S'action'
p1806
S'delete'
p1807
sS'order'
p1808
F1523922948.680583
sS'objid'
p1809
g8
(g12
S'D\x00\x00\x00\x00\x00\x00\x00'
p1810
tp1811
Rp1812
sa(dp1813
S'action'
p1814
S'delete'
p1815
sS'order'
p1816
F1523922948.694459
sS'objid'
p1817
g8
(g12
S'C\x00\x00\x00\x00\x00\x00\x00'
p1818
tp1819
Rp1820
sa(dp1821
S'action'
p1822
S'delete'
p1823
sS'order'
p1824
F1523922948.708434
sS'objid'
p1825
g8
(g12
S'B\x00\x00\x00\x00\x00\x00\x00'
p1826
tp1827
Rp1828
sa(dp1829
S'action'
p1830
S'delete'
p1831
sS'order'
p1832
F1523922948.722474
sS'objid'
p1833
g8
(g12
S'A\x00\x00\x00\x00\x00\x00\x00'
p1834
tp1835
Rp1836
sa(dp1837
S'action'
p1838
S'delete'
p1839
sS'order'
p1840
F1523922948.736514
sS'objid'
p1841
g8
(g12
S'@\x00\x00\x00\x00\x00\x00\x00'
p1842
tp1843
Rp1844
sa(dp1845
S'action'
p1846
S'delete'
p1847
sS'order'
p1848
F1523922948.75064
sS'objid'
p1849
g8
(g12
S'?\x00\x00\x00\x00\x00\x00\x00'
p1850
tp1851
Rp1852
sa(dp1853
S'action'
p1854
S'delete'
p1855
sS'order'
p1856
F1523922948.765154
sS'objid'
p1857
g8
(g12
S'<\x00\x00\x00\x00\x00\x00\x00'
p1858
tp1859
Rp1860
sa(dp1861
S'action'
p1862
S'delete'
p1863
sS'order'
p1864
F1523922961.787292
sS'objid'
p1865
g8
(g12
S'>\x00\x00\x00\x00\x00\x00\x00'
p1866
tp1867
Rp1868
sa(dp1869
S'action'
p1870
S'delete'
p1871
sS'order'
p1872
F1523922961.807565
sS'objid'
p1873
g8
(g12
S'=\x00\x00\x00\x00\x00\x00\x00'
p1874
tp1875
Rp1876
sa(dp1877
S'action'
p1878
S'delete'
p1879
sS'order'
p1880
F1523922961.82369
sS'objid'
p1881
g8
(g12
S';\x00\x00\x00\x00\x00\x00\x00'
p1882
tp1883
Rp1884
sa(dp1885
S'action'
p1886
S'delete'
p1887
sS'order'
p1888
F1523922961.838442
sS'objid'
p1889
g8
(g12
S':\x00\x00\x00\x00\x00\x00\x00'
p1890
tp1891
Rp1892
sa(dp1893
S'action'
p1894
S'delete'
p1895
sS'order'
p1896
F1523922961.857611
sS'objid'
p1897
g8
(g12
S'9\x00\x00\x00\x00\x00\x00\x00'
p1898
tp1899
Rp1900
sa(dp1901
S'action'
p1902
S'delete'
p1903
sS'order'
p1904
F1523922961.872126
sS'objid'
p1905
g8
(g12
S'8\x00\x00\x00\x00\x00\x00\x00'
p1906
tp1907
Rp1908
sa(dp1909
S'action'
p1910
S'delete'
p1911
sS'order'
p1912
F1523922961.88673
sS'objid'
p1913
g8
(g12
S'7\x00\x00\x00\x00\x00\x00\x00'
p1914
tp1915
Rp1916
sa(dp1917
S'action'
p1918
S'delete'
p1919
sS'order'
p1920
F1523922961.901407
sS'objid'
p1921
g8
(g12
S'6\x00\x00\x00\x00\x00\x00\x00'
p1922
tp1923
Rp1924
sa(dp1925
S'action'
p1926
S'delete'
p1927
sS'order'
p1928
F1523922961.916486
sS'objid'
p1929
g8
(g12
S'5\x00\x00\x00\x00\x00\x00\x00'
p1930
tp1931
Rp1932
sa(dp1933
S'action'
p1934
S'delete'
p1935
sS'order'
p1936
F1523922961.93437
sS'objid'
p1937
g8
(g12
S'4\x00\x00\x00\x00\x00\x00\x00'
p1938
tp1939
Rp1940
sa(dp1941
S'action'
p1942
S'delete'
p1943
sS'order'
p1944
F1523922961.949283
sS'objid'
p1945
g8
(g12
S'3\x00\x00\x00\x00\x00\x00\x00'
p1946
tp1947
Rp1948
sa(dp1949
S'action'
p1950
S'delete'
p1951
sS'order'
p1952
F1523922961.964133
sS'objid'
p1953
g8
(g12
S'2\x00\x00\x00\x00\x00\x00\x00'
p1954
tp1955
Rp1956
sa(dp1957
S'action'
p1958
S'delete'
p1959
sS'order'
p1960
F1523922961.979178
sS'objid'
p1961
g8
(g12
S'1\x00\x00\x00\x00\x00\x00\x00'
p1962
tp1963
Rp1964
sa(dp1965
S'action'
p1966
S'delete'
p1967
sS'order'
p1968
F1523922961.994228
sS'objid'
p1969
g8
(g12
S'0\x00\x00\x00\x00\x00\x00\x00'
p1970
tp1971
Rp1972
sa(dp1973
S'action'
p1974
S'delete'
p1975
sS'order'
p1976
F1523922962.009352
sS'objid'
p1977
g8
(g12
S'/\x00\x00\x00\x00\x00\x00\x00'
p1978
tp1979
Rp1980
sa(dp1981
S'action'
p1982
S'delete'
p1983
sS'order'
p1984
F1523922962.024986
sS'objid'
p1985
g8
(g12
S'.\x00\x00\x00\x00\x00\x00\x00'
p1986
tp1987
Rp1988
sa(dp1989
S'action'
p1990
S'delete'
p1991
sS'order'
p1992
F1523922962.048482
sS'objid'
p1993
g8
(g12
S'-\x00\x00\x00\x00\x00\x00\x00'
p1994
tp1995
Rp1996
sa(dp1997
S'action'
p1998
S'delete'
p1999
sS'order'
p2000
F1523922962.063698
sS'objid'
p2001
g8
(g12
S',\x00\x00\x00\x00\x00\x00\x00'
p2002
tp2003
Rp2004
sa(dp2005
S'action'
p2006
S'delete'
p2007
sS'order'
p2008
F1523922962.078961
sS'objid'
p2009
g8
(g12
S'+\x00\x00\x00\x00\x00\x00\x00'
p2010
tp2011
Rp2012
sa(dp2013
S'action'
p2014
S'delete'
p2015
sS'order'
p2016
F1523922962.094289
sS'objid'
p2017
g8
(g12
S'*\x00\x00\x00\x00\x00\x00\x00'
p2018
tp2019
Rp2020
sa(dp2021
S'action'
p2022
S'delete'
p2023
sS'order'
p2024
F1523922962.10971
sS'objid'
p2025
g8
(g12
S')\x00\x00\x00\x00\x00\x00\x00'
p2026
tp2027
Rp2028
sa(dp2029
S'action'
p2030
S'delete'
p2031
sS'order'
p2032
F1523922962.125656
sS'objid'
p2033
g8
(g12
S'(\x00\x00\x00\x00\x00\x00\x00'
p2034
tp2035
Rp2036
sa(dp2037
S'action'
p2038
S'delete'
p2039
sS'order'
p2040
F1523922962.142566
sS'objid'
p2041
g8
(g12
S"'\x00\x00\x00\x00\x00\x00\x00"
p2042
tp2043
Rp2044
sa(dp2045
S'action'
p2046
S'delete'
p2047
sS'order'
p2048
F1523922962.15814
sS'objid'
p2049
g8
(g12
S'&\x00\x00\x00\x00\x00\x00\x00'
p2050
tp2051
Rp2052
sa(dp2053
S'action'
p2054
S'delete'
p2055
sS'order'
p2056
F1523922962.173753
sS'objid'
p2057
g8
(g12
S'%\x00\x00\x00\x00\x00\x00\x00'
p2058
tp2059
Rp2060
sa(dp2061
S'action'
p2062
S'delete'
p2063
sS'order'
p2064
F1523922962.189436
sS'objid'
p2065
g8
(g12
S'$\x00\x00\x00\x00\x00\x00\x00'
p2066
tp2067
Rp2068
sa(dp2069
S'action'
p2070
S'delete'
p2071
sS'order'
p2072
F1523922962.205189
sS'objid'
p2073
g8
(g12
S'#\x00\x00\x00\x00\x00\x00\x00'
p2074
tp2075
Rp2076
sa(dp2077
S'action'
p2078
S'delete'
p2079
sS'order'
p2080
F1523922962.221287
sS'objid'
p2081
g8
(g12
S'"\x00\x00\x00\x00\x00\x00\x00'
p2082
tp2083
Rp2084
sa(dp2085
S'action'
p2086
S'delete'
p2087
sS'order'
p2088
F1523922962.244237
sS'objid'
p2089
g8
(g12
S'!\x00\x00\x00\x00\x00\x00\x00'
p2090
tp2091
Rp2092
sa(dp2093
S'action'
p2094
S'delete'
p2095
sS'order'
p2096
F1523922962.262388
sS'objid'
p2097
g8
(g12
S' \x00\x00\x00\x00\x00\x00\x00'
p2098
tp2099
Rp2100
sa(dp2101
S'action'
p2102
S'delete'
p2103
sS'order'
p2104
F1523922962.278339
sS'objid'
p2105
g8
(g12
S'\x1f\x00\x00\x00\x00\x00\x00\x00'
p2106
tp2107
Rp2108
sa(dp2109
S'action'
p2110
S'delete'
p2111
sS'order'
p2112
F1523922962.294371
sS'objid'
p2113
g8
(g12
S'\x1e\x00\x00\x00\x00\x00\x00\x00'
p2114
tp2115
Rp2116
sa(dp2117
S'action'
p2118
S'delete'
p2119
sS'order'
p2120
F1523922962.310528
sS'objid'
p2121
g8
(g12
S'\x1d\x00\x00\x00\x00\x00\x00\x00'
p2122
tp2123
Rp2124
sa(dp2125
S'action'
p2126
S'delete'
p2127
sS'order'
p2128
F1523922962.327224
sS'objid'
p2129
g8
(g12
S'\x1c\x00\x00\x00\x00\x00\x00\x00'
p2130
tp2131
Rp2132
sa(dp2133
S'action'
p2134
S'delete'
p2135
sS'order'
p2136
F1523922962.351469
sS'objid'
p2137
g8
(g12
S'\x1b\x00\x00\x00\x00\x00\x00\x00'
p2138
tp2139
Rp2140
sa(dp2141
S'action'
p2142
S'delete'
p2143
sS'order'
p2144
F1523922962.367773
sS'objid'
p2145
g8
(g12
S'\x1a\x00\x00\x00\x00\x00\x00\x00'
p2146
tp2147
Rp2148
sa(dp2149
S'action'
p2150
S'delete'
p2151
sS'order'
p2152
F1523922962.384066
sS'objid'
p2153
g8
(g12
S'\x19\x00\x00\x00\x00\x00\x00\x00'
p2154
tp2155
Rp2156
sa(dp2157
S'action'
p2158
S'delete'
p2159
sS'order'
p2160
F1523922962.400409
sS'objid'
p2161
g8
(g12
S'\x18\x00\x00\x00\x00\x00\x00\x00'
p2162
tp2163
Rp2164
sa(dp2165
S'action'
p2166
S'delete'
p2167
sS'order'
p2168
F1523922962.416953
sS'objid'
p2169
g8
(g12
S'\x17\x00\x00\x00\x00\x00\x00\x00'
p2170
tp2171
Rp2172
sa(dp2173
S'action'
p2174
S'delete'
p2175
sS'order'
p2176
F1523922962.433907
sS'objid'
p2177
g8
(g12
S'\x16\x00\x00\x00\x00\x00\x00\x00'
p2178
tp2179
Rp2180
sa(dp2181
S'action'
p2182
S'delete'
p2183
sS'order'
p2184
F1523922962.457826
sS'objid'
p2185
g8
(g12
S'\x15\x00\x00\x00\x00\x00\x00\x00'
p2186
tp2187
Rp2188
sa(dp2189
S'action'
p2190
S'delete'
p2191
sS'order'
p2192
F1523922962.474473
sS'objid'
p2193
g8
(g12
S'\x14\x00\x00\x00\x00\x00\x00\x00'
p2194
tp2195
Rp2196
sa(dp2197
S'action'
p2198
S'delete'
p2199
sS'order'
p2200
F1523922962.491087
sS'objid'
p2201
g8
(g12
S'\x13\x00\x00\x00\x00\x00\x00\x00'
p2202
tp2203
Rp2204
sa(dp2205
S'action'
p2206
S'delete'
p2207
sS'order'
p2208
F1523922962.507934
sS'objid'
p2209
g8
(g12
S'\x11\x00\x00\x00\x00\x00\x00\x00'
p2210
tp2211
Rp2212
sa(dp2213
S'action'
p2214
S'delete'
p2215
sS'order'
p2216
F1523922962.524904
sS'objid'
p2217
g8
(g12
S'\x10\x00\x00\x00\x00\x00\x00\x00'
p2218
tp2219
Rp2220
sa(dp2221
S'action'
p2222
S'delete'
p2223
sS'order'
p2224
F1523922962.547475
sS'objid'
p2225
g8
(g12
S'\x0f\x00\x00\x00\x00\x00\x00\x00'
p2226
tp2227
Rp2228
sa(dp2229
S'action'
p2230
S'delete'
p2231
sS'order'
p2232
F1523922962.565152
sS'objid'
p2233
g8
(g12
S'\x0e\x00\x00\x00\x00\x00\x00\x00'
p2234
tp2235
Rp2236
sa(dp2237
S'action'
p2238
S'delete'
p2239
sS'order'
p2240
F1523922962.582291
sS'objid'
p2241
g8
(g12
S'\r\x00\x00\x00\x00\x00\x00\x00'
p2242
tp2243
Rp2244
sa(dp2245
S'action'
p2246
S'delete'
p2247
sS'order'
p2248
F1523922962.59944
sS'objid'
p2249
g8
(g12
S'\x0c\x00\x00\x00\x00\x00\x00\x00'
p2250
tp2251
Rp2252
sa(dp2253
S'action'
p2254
S'delete'
p2255
sS'order'
p2256
F1523922962.616824
sS'objid'
p2257
g8
(g12
S'\x0b\x00\x00\x00\x00\x00\x00\x00'
p2258
tp2259
Rp2260
sa(dp2261
S'action'
p2262
S'delete'
p2263
sS'order'
p2264
F1523922962.634645
sS'objid'
p2265
g8
(g12
S'\n\x00\x00\x00\x00\x00\x00\x00'
p2266
tp2267
Rp2268
sa(dp2269
S'action'
p2270
S'delete'
p2271
sS'order'
p2272
F1523922962.657682
sS'objid'
p2273
g8
(g12
S'\t\x00\x00\x00\x00\x00\x00\x00'
p2274
tp2275
Rp2276
sa(dp2277
S'action'
p2278
S'delete'
p2279
sS'order'
p2280
F1523922962.67521
sS'objid'
p2281
g8
(g12
S'\x08\x00\x00\x00\x00\x00\x00\x00'
p2282
tp2283
Rp2284
sa(dp2285
S'action'
p2286
S'delete'
p2287
sS'order'
p2288
F1523922962.692695
sS'objid'
p2289
g8
(g12
S'\x07\x00\x00\x00\x00\x00\x00\x00'
p2290
tp2291
Rp2292
sa(dp2293
S'action'
p2294
S'delete'
p2295
sS'order'
p2296
F1523922962.71024
sS'objid'
p2297
g8
(g12
S'\x06\x00\x00\x00\x00\x00\x00\x00'
p2298
tp2299
Rp2300
sa(dp2301
S'action'
p2302
S'delete'
p2303
sS'order'
p2304
F1523922962.727941
sS'objid'
p2305
g8
(g12
S'\x05\x00\x00\x00\x00\x00\x00\x00'
p2306
tp2307
Rp2308
sa(dp2309
S'action'
p2310
S'delete'
p2311
sS'order'
p2312
F1523922962.750238
sS'objid'
p2313
g8
(g12
S'\x04\x00\x00\x00\x00\x00\x00\x00'
p2314
tp2315
Rp2316
sa(dp2317
S'action'
p2318
S'delete'
p2319
sS'order'
p2320
F1523922962.767955
sS'objid'
p2321
g8
(g12
S'\x03\x00\x00\x00\x00\x00\x00\x00'
p2322
tp2323
Rp2324
sa(dp2325
S'action'
p2326
S'delete'
p2327
sS'order'
p2328
F1523922962.785696
sS'objid'
p2329
g8
(g12
S'\x02\x00\x00\x00\x00\x00\x00\x00'
p2330
tp2331
Rp2332
sa(dp2333
S'action'
p2334
S'delete'
p2335
sS'order'
p2336
F1523922962.803577
sS'objid'
p2337
g8
(g12
S'\x01\x00\x00\x00\x00\x00\x00\x00'
p2338
tp2339
Rp2340
sa.