(lp0
(dp1
S'action'
p2
S'join'
p3
sS'data_to_add'
p4
(lp5
sS'order'
p6
F1523926199.062925
sS'new_objid'
p7
cnumpy.core.multiarray
scalar
p8
(cnumpy
dtype
p9
(S'i8'
p10
I0
I1
tp11
Rp12
(I3
S'<'
p13
NNNI-1
I-1
I0
tp14
bS'i\x00\x00\x00\x00\x00\x00\x00'
p15
tp16
Rp17
sS'objids'
p18
(lp19
g8
(g12
S'\x1e\x00\x00\x00\x00\x00\x00\x00'
p20
tp21
Rp22
ag8
(g12
S'\x00\x00\x00\x00\x00\x00\x00\x00'
p23
tp24
Rp25
asa(dp26
S'cut_frame_global'
p27
I1111
sS'cut_time_epoch'
p28
g8
(g9
(S'f8'
p29
I0
I1
tp30
Rp31
(I3
S'<'
p32
NNNI-1
I-1
I0
tp33
bS'\x1a9\xb8i\xa0\xb4\xd6A'
p34
tp35
Rp36
sS'cut_frame_trajectory'
p37
g8
(g12
S'\x13\x03\x00\x00\x00\x00\x00\x00'
p38
tp39
Rp40
sS'objid'
p41
g8
(g12
S'\x0c\x00\x00\x00\x00\x00\x00\x00'
p42
tp43
Rp44
sS'action'
p45
S'cut'
p46
sS'order'
p47
F1523926215.208637
sS'new_objid'
p48
g8
(g12
S'k\x00\x00\x00\x00\x00\x00\x00'
p49
tp50
Rp51
sa(dp52
g27
I1188
sg28
g8
(g31
S'\xff\x04\xa5k\xa0\xb4\xd6A'
p53
tp54
Rp55
sg37
g8
(g12
S'M\x00\x00\x00\x00\x00\x00\x00'
p56
tp57
Rp58
sg41
g8
(g12
S'k\x00\x00\x00\x00\x00\x00\x00'
p59
tp60
Rp61
sg45
g46
sg47
F1523926217.897533
sg48
g8
(g12
S'l\x00\x00\x00\x00\x00\x00\x00'
p62
tp63
Rp64
sa(dp65
g27
I1109
sg28
g8
(g31
S'Sl\xabi\xa0\xb4\xd6A'
p66
tp67
Rp68
sg37
g8
(g12
S'T\x04\x00\x00\x00\x00\x00\x00'
p69
tp70
Rp71
sg41
g8
(g12
S'i\x00\x00\x00\x00\x00\x00\x00'
p72
tp73
Rp74
sg45
g46
sg47
F1523926220.897975
sg48
g8
(g12
S'm\x00\x00\x00\x00\x00\x00\x00'
p75
tp76
Rp77
sa(dp78
g27
I1109
sg28
g8
(g31
S'Sl\xabi\xa0\xb4\xd6A'
p79
tp80
Rp81
sg37
g8
(g12
S'\x00\x00\x00\x00\x00\x00\x00\x00'
p82
tp83
Rp84
sg41
g8
(g12
S'm\x00\x00\x00\x00\x00\x00\x00'
p85
tp86
Rp87
sg45
g46
sg47
F1523926221.137321
sg48
g8
(g12
S'n\x00\x00\x00\x00\x00\x00\x00'
p88
tp89
Rp90
sa(dp91
S'action'
p92
S'join'
p93
sS'data_to_add'
p94
(lp95
sS'order'
p96
F1523926238.344235
sS'new_objid'
p97
g8
(g12
S'p\x00\x00\x00\x00\x00\x00\x00'
p98
tp99
Rp100
sS'objids'
p101
(lp102
g8
(g12
S'k\x00\x00\x00\x00\x00\x00\x00'
p103
tp104
Rp105
ag8
(g12
S'i\x00\x00\x00\x00\x00\x00\x00'
p106
tp107
Rp108
asa(dp109
S'action'
p110
S'join'
p111
sS'data_to_add'
p112
(lp113
sS'order'
p114
F1523926265.092181
sS'new_objid'
p115
g8
(g12
S'r\x00\x00\x00\x00\x00\x00\x00'
p116
tp117
Rp118
sS'objids'
p119
(lp120
g8
(g12
S'p\x00\x00\x00\x00\x00\x00\x00'
p121
tp122
Rp123
ag8
(g12
S'l\x00\x00\x00\x00\x00\x00\x00'
p124
tp125
Rp126
asa(dp127
S'action'
p128
S'join'
p129
sS'data_to_add'
p130
(lp131
sS'order'
p132
F1523926277.495535
sS'new_objid'
p133
g8
(g12
S's\x00\x00\x00\x00\x00\x00\x00'
p134
tp135
Rp136
sS'objids'
p137
(lp138
g8
(g12
S'[\x00\x00\x00\x00\x00\x00\x00'
p139
tp140
Rp141
ag8
(g12
S'r\x00\x00\x00\x00\x00\x00\x00'
p142
tp143
Rp144
asa(dp145
S'action'
p146
S'join'
p147
sS'data_to_add'
p148
(lp149
sS'order'
p150
F1523926282.281492
sS'new_objid'
p151
g8
(g12
S't\x00\x00\x00\x00\x00\x00\x00'
p152
tp153
Rp154
sS'objids'
p155
(lp156
g8
(g12
S']\x00\x00\x00\x00\x00\x00\x00'
p157
tp158
Rp159
ag8
(g12
S's\x00\x00\x00\x00\x00\x00\x00'
p160
tp161
Rp162
asa(dp163
S'action'
p164
S'delete'
p165
sS'order'
p166
F1523926299.353484
sS'objid'
p167
g8
(g12
S'n\x00\x00\x00\x00\x00\x00\x00'
p168
tp169
Rp170
sa(dp171
S'action'
p172
S'delete'
p173
sS'order'
p174
F1523926299.357694
sS'objid'
p175
g8
(g12
S'^\x00\x00\x00\x00\x00\x00\x00'
p176
tp177
Rp178
sa(dp179
S'action'
p180
S'delete'
p181
sS'order'
p182
F1523926299.36173
sS'objid'
p183
g8
(g12
S'\\\x00\x00\x00\x00\x00\x00\x00'
p184
tp185
Rp186
sa(dp187
S'action'
p188
S'delete'
p189
sS'order'
p190
F1523926299.364777
sS'objid'
p191
g8
(g12
S'Z\x00\x00\x00\x00\x00\x00\x00'
p192
tp193
Rp194
sa(dp195
S'action'
p196
S'delete'
p197
sS'order'
p198
F1523926299.367101
sS'objid'
p199
g8
(g12
S'Y\x00\x00\x00\x00\x00\x00\x00'
p200
tp201
Rp202
sa(dp203
S'action'
p204
S'delete'
p205
sS'order'
p206
F1523926299.369418
sS'objid'
p207
g8
(g12
S'X\x00\x00\x00\x00\x00\x00\x00'
p208
tp209
Rp210
sa(dp211
S'action'
p212
S'delete'
p213
sS'order'
p214
F1523926299.371775
sS'objid'
p215
g8
(g12
S'W\x00\x00\x00\x00\x00\x00\x00'
p216
tp217
Rp218
sa(dp219
S'action'
p220
S'delete'
p221
sS'order'
p222
F1523926299.374182
sS'objid'
p223
g8
(g12
S'V\x00\x00\x00\x00\x00\x00\x00'
p224
tp225
Rp226
sa(dp227
S'action'
p228
S'delete'
p229
sS'order'
p230
F1523926299.376764
sS'objid'
p231
g8
(g12
S'U\x00\x00\x00\x00\x00\x00\x00'
p232
tp233
Rp234
sa(dp235
S'action'
p236
S'delete'
p237
sS'order'
p238
F1523926299.379312
sS'objid'
p239
g8
(g12
S'T\x00\x00\x00\x00\x00\x00\x00'
p240
tp241
Rp242
sa(dp243
S'action'
p244
S'delete'
p245
sS'order'
p246
F1523926299.382163
sS'objid'
p247
g8
(g12
S'S\x00\x00\x00\x00\x00\x00\x00'
p248
tp249
Rp250
sa(dp251
S'action'
p252
S'delete'
p253
sS'order'
p254
F1523926299.38495
sS'objid'
p255
g8
(g12
S'R\x00\x00\x00\x00\x00\x00\x00'
p256
tp257
Rp258
sa(dp259
S'action'
p260
S'delete'
p261
sS'order'
p262
F1523926299.387637
sS'objid'
p263
g8
(g12
S'Q\x00\x00\x00\x00\x00\x00\x00'
p264
tp265
Rp266
sa(dp267
S'action'
p268
S'delete'
p269
sS'order'
p270
F1523926299.390377
sS'objid'
p271
g8
(g12
S'P\x00\x00\x00\x00\x00\x00\x00'
p272
tp273
Rp274
sa(dp275
S'action'
p276
S'delete'
p277
sS'order'
p278
F1523926299.393203
sS'objid'
p279
g8
(g12
S'O\x00\x00\x00\x00\x00\x00\x00'
p280
tp281
Rp282
sa(dp283
S'action'
p284
S'delete'
p285
sS'order'
p286
F1523926299.396093
sS'objid'
p287
g8
(g12
S'N\x00\x00\x00\x00\x00\x00\x00'
p288
tp289
Rp290
sa(dp291
S'action'
p292
S'delete'
p293
sS'order'
p294
F1523926299.398999
sS'objid'
p295
g8
(g12
S'M\x00\x00\x00\x00\x00\x00\x00'
p296
tp297
Rp298
sa(dp299
S'action'
p300
S'delete'
p301
sS'order'
p302
F1523926299.402114
sS'objid'
p303
g8
(g12
S'L\x00\x00\x00\x00\x00\x00\x00'
p304
tp305
Rp306
sa(dp307
S'action'
p308
S'delete'
p309
sS'order'
p310
F1523926299.405138
sS'objid'
p311
g8
(g12
S'K\x00\x00\x00\x00\x00\x00\x00'
p312
tp313
Rp314
sa(dp315
S'action'
p316
S'delete'
p317
sS'order'
p318
F1523926299.408237
sS'objid'
p319
g8
(g12
S'J\x00\x00\x00\x00\x00\x00\x00'
p320
tp321
Rp322
sa(dp323
S'action'
p324
S'delete'
p325
sS'order'
p326
F1523926299.411381
sS'objid'
p327
g8
(g12
S'I\x00\x00\x00\x00\x00\x00\x00'
p328
tp329
Rp330
sa(dp331
S'action'
p332
S'delete'
p333
sS'order'
p334
F1523926299.414568
sS'objid'
p335
g8
(g12
S'H\x00\x00\x00\x00\x00\x00\x00'
p336
tp337
Rp338
sa(dp339
S'action'
p340
S'delete'
p341
sS'order'
p342
F1523926299.417867
sS'objid'
p343
g8
(g12
S'G\x00\x00\x00\x00\x00\x00\x00'
p344
tp345
Rp346
sa(dp347
S'action'
p348
S'delete'
p349
sS'order'
p350
F1523926299.421199
sS'objid'
p351
g8
(g12
S'F\x00\x00\x00\x00\x00\x00\x00'
p352
tp353
Rp354
sa(dp355
S'action'
p356
S'delete'
p357
sS'order'
p358
F1523926299.424597
sS'objid'
p359
g8
(g12
S'E\x00\x00\x00\x00\x00\x00\x00'
p360
tp361
Rp362
sa(dp363
S'action'
p364
S'delete'
p365
sS'order'
p366
F1523926299.428062
sS'objid'
p367
g8
(g12
S'D\x00\x00\x00\x00\x00\x00\x00'
p368
tp369
Rp370
sa(dp371
S'action'
p372
S'delete'
p373
sS'order'
p374
F1523926299.43157
sS'objid'
p375
g8
(g12
S'C\x00\x00\x00\x00\x00\x00\x00'
p376
tp377
Rp378
sa(dp379
S'action'
p380
S'delete'
p381
sS'order'
p382
F1523926299.435138
sS'objid'
p383
g8
(g12
S'B\x00\x00\x00\x00\x00\x00\x00'
p384
tp385
Rp386
sa(dp387
S'action'
p388
S'delete'
p389
sS'order'
p390
F1523926299.438765
sS'objid'
p391
g8
(g12
S'A\x00\x00\x00\x00\x00\x00\x00'
p392
tp393
Rp394
sa(dp395
S'action'
p396
S'delete'
p397
sS'order'
p398
F1523926299.442449
sS'objid'
p399
g8
(g12
S'@\x00\x00\x00\x00\x00\x00\x00'
p400
tp401
Rp402
sa(dp403
S'action'
p404
S'delete'
p405
sS'order'
p406
F1523926299.446189
sS'objid'
p407
g8
(g12
S'?\x00\x00\x00\x00\x00\x00\x00'
p408
tp409
Rp410
sa(dp411
S'action'
p412
S'delete'
p413
sS'order'
p414
F1523926299.449978
sS'objid'
p415
g8
(g12
S'>\x00\x00\x00\x00\x00\x00\x00'
p416
tp417
Rp418
sa(dp419
S'action'
p420
S'delete'
p421
sS'order'
p422
F1523926299.453904
sS'objid'
p423
g8
(g12
S'=\x00\x00\x00\x00\x00\x00\x00'
p424
tp425
Rp426
sa(dp427
S'action'
p428
S'delete'
p429
sS'order'
p430
F1523926299.460755
sS'objid'
p431
g8
(g12
S'<\x00\x00\x00\x00\x00\x00\x00'
p432
tp433
Rp434
sa(dp435
S'action'
p436
S'delete'
p437
sS'order'
p438
F1523926299.467737
sS'objid'
p439
g8
(g12
S';\x00\x00\x00\x00\x00\x00\x00'
p440
tp441
Rp442
sa(dp443
S'action'
p444
S'delete'
p445
sS'order'
p446
F1523926299.474762
sS'objid'
p447
g8
(g12
S':\x00\x00\x00\x00\x00\x00\x00'
p448
tp449
Rp450
sa(dp451
S'action'
p452
S'delete'
p453
sS'order'
p454
F1523926299.479105
sS'objid'
p455
g8
(g12
S'9\x00\x00\x00\x00\x00\x00\x00'
p456
tp457
Rp458
sa(dp459
S'action'
p460
S'delete'
p461
sS'order'
p462
F1523926299.483312
sS'objid'
p463
g8
(g12
S'8\x00\x00\x00\x00\x00\x00\x00'
p464
tp465
Rp466
sa(dp467
S'action'
p468
S'delete'
p469
sS'order'
p470
F1523926299.487547
sS'objid'
p471
g8
(g12
S'7\x00\x00\x00\x00\x00\x00\x00'
p472
tp473
Rp474
sa(dp475
S'action'
p476
S'delete'
p477
sS'order'
p478
F1523926299.491834
sS'objid'
p479
g8
(g12
S'6\x00\x00\x00\x00\x00\x00\x00'
p480
tp481
Rp482
sa(dp483
S'action'
p484
S'delete'
p485
sS'order'
p486
F1523926299.496173
sS'objid'
p487
g8
(g12
S'5\x00\x00\x00\x00\x00\x00\x00'
p488
tp489
Rp490
sa(dp491
S'action'
p492
S'delete'
p493
sS'order'
p494
F1523926299.500635
sS'objid'
p495
g8
(g12
S'4\x00\x00\x00\x00\x00\x00\x00'
p496
tp497
Rp498
sa(dp499
S'action'
p500
S'delete'
p501
sS'order'
p502
F1523926299.505159
sS'objid'
p503
g8
(g12
S'3\x00\x00\x00\x00\x00\x00\x00'
p504
tp505
Rp506
sa(dp507
S'action'
p508
S'delete'
p509
sS'order'
p510
F1523926299.509723
sS'objid'
p511
g8
(g12
S'2\x00\x00\x00\x00\x00\x00\x00'
p512
tp513
Rp514
sa(dp515
S'action'
p516
S'delete'
p517
sS'order'
p518
F1523926299.514354
sS'objid'
p519
g8
(g12
S'1\x00\x00\x00\x00\x00\x00\x00'
p520
tp521
Rp522
sa(dp523
S'action'
p524
S'delete'
p525
sS'order'
p526
F1523926299.518976
sS'objid'
p527
g8
(g12
S'0\x00\x00\x00\x00\x00\x00\x00'
p528
tp529
Rp530
sa(dp531
S'action'
p532
S'delete'
p533
sS'order'
p534
F1523926299.523767
sS'objid'
p535
g8
(g12
S'/\x00\x00\x00\x00\x00\x00\x00'
p536
tp537
Rp538
sa(dp539
S'action'
p540
S'delete'
p541
sS'order'
p542
F1523926299.528533
sS'objid'
p543
g8
(g12
S'.\x00\x00\x00\x00\x00\x00\x00'
p544
tp545
Rp546
sa(dp547
S'action'
p548
S'delete'
p549
sS'order'
p550
F1523926299.533366
sS'objid'
p551
g8
(g12
S'-\x00\x00\x00\x00\x00\x00\x00'
p552
tp553
Rp554
sa(dp555
S'action'
p556
S'delete'
p557
sS'order'
p558
F1523926299.538281
sS'objid'
p559
g8
(g12
S',\x00\x00\x00\x00\x00\x00\x00'
p560
tp561
Rp562
sa(dp563
S'action'
p564
S'delete'
p565
sS'order'
p566
F1523926299.543227
sS'objid'
p567
g8
(g12
S'+\x00\x00\x00\x00\x00\x00\x00'
p568
tp569
Rp570
sa(dp571
S'action'
p572
S'delete'
p573
sS'order'
p574
F1523926299.548271
sS'objid'
p575
g8
(g12
S'*\x00\x00\x00\x00\x00\x00\x00'
p576
tp577
Rp578
sa(dp579
S'action'
p580
S'delete'
p581
sS'order'
p582
F1523926299.553363
sS'objid'
p583
g8
(g12
S')\x00\x00\x00\x00\x00\x00\x00'
p584
tp585
Rp586
sa(dp587
S'action'
p588
S'delete'
p589
sS'order'
p590
F1523926299.559937
sS'objid'
p591
g8
(g12
S'(\x00\x00\x00\x00\x00\x00\x00'
p592
tp593
Rp594
sa(dp595
S'action'
p596
S'delete'
p597
sS'order'
p598
F1523926299.569051
sS'objid'
p599
g8
(g12
S"'\x00\x00\x00\x00\x00\x00\x00"
p600
tp601
Rp602
sa(dp603
S'action'
p604
S'delete'
p605
sS'order'
p606
F1523926299.5779
sS'objid'
p607
g8
(g12
S'&\x00\x00\x00\x00\x00\x00\x00'
p608
tp609
Rp610
sa(dp611
S'action'
p612
S'delete'
p613
sS'order'
p614
F1523926299.58343
sS'objid'
p615
g8
(g12
S'%\x00\x00\x00\x00\x00\x00\x00'
p616
tp617
Rp618
sa(dp619
S'action'
p620
S'delete'
p621
sS'order'
p622
F1523926299.588788
sS'objid'
p623
g8
(g12
S'$\x00\x00\x00\x00\x00\x00\x00'
p624
tp625
Rp626
sa(dp627
S'action'
p628
S'delete'
p629
sS'order'
p630
F1523926299.5942
sS'objid'
p631
g8
(g12
S'#\x00\x00\x00\x00\x00\x00\x00'
p632
tp633
Rp634
sa(dp635
S'action'
p636
S'delete'
p637
sS'order'
p638
F1523926299.599658
sS'objid'
p639
g8
(g12
S'"\x00\x00\x00\x00\x00\x00\x00'
p640
tp641
Rp642
sa(dp643
S'action'
p644
S'delete'
p645
sS'order'
p646
F1523926299.605271
sS'objid'
p647
g8
(g12
S'!\x00\x00\x00\x00\x00\x00\x00'
p648
tp649
Rp650
sa(dp651
S'action'
p652
S'delete'
p653
sS'order'
p654
F1523926299.610892
sS'objid'
p655
g8
(g12
S' \x00\x00\x00\x00\x00\x00\x00'
p656
tp657
Rp658
sa(dp659
S'action'
p660
S'delete'
p661
sS'order'
p662
F1523926299.616551
sS'objid'
p663
g8
(g12
S'\x1f\x00\x00\x00\x00\x00\x00\x00'
p664
tp665
Rp666
sa(dp667
S'action'
p668
S'delete'
p669
sS'order'
p670
F1523926299.622232
sS'objid'
p671
g8
(g12
S'\x1d\x00\x00\x00\x00\x00\x00\x00'
p672
tp673
Rp674
sa(dp675
S'action'
p676
S'delete'
p677
sS'order'
p678
F1523926299.627992
sS'objid'
p679
g8
(g12
S'\x1c\x00\x00\x00\x00\x00\x00\x00'
p680
tp681
Rp682
sa(dp683
S'action'
p684
S'delete'
p685
sS'order'
p686
F1523926299.633777
sS'objid'
p687
g8
(g12
S'\x1b\x00\x00\x00\x00\x00\x00\x00'
p688
tp689
Rp690
sa(dp691
S'action'
p692
S'delete'
p693
sS'order'
p694
F1523926299.639622
sS'objid'
p695
g8
(g12
S'\x1a\x00\x00\x00\x00\x00\x00\x00'
p696
tp697
Rp698
sa(dp699
S'action'
p700
S'delete'
p701
sS'order'
p702
F1523926299.645525
sS'objid'
p703
g8
(g12
S'\x19\x00\x00\x00\x00\x00\x00\x00'
p704
tp705
Rp706
sa(dp707
S'action'
p708
S'delete'
p709
sS'order'
p710
F1523926299.651529
sS'objid'
p711
g8
(g12
S'\x18\x00\x00\x00\x00\x00\x00\x00'
p712
tp713
Rp714
sa(dp715
S'action'
p716
S'delete'
p717
sS'order'
p718
F1523926299.657552
sS'objid'
p719
g8
(g12
S'\x17\x00\x00\x00\x00\x00\x00\x00'
p720
tp721
Rp722
sa(dp723
S'action'
p724
S'delete'
p725
sS'order'
p726
F1523926299.663744
sS'objid'
p727
g8
(g12
S'\x16\x00\x00\x00\x00\x00\x00\x00'
p728
tp729
Rp730
sa(dp731
S'action'
p732
S'delete'
p733
sS'order'
p734
F1523926299.669887
sS'objid'
p735
g8
(g12
S'\x15\x00\x00\x00\x00\x00\x00\x00'
p736
tp737
Rp738
sa(dp739
S'action'
p740
S'delete'
p741
sS'order'
p742
F1523926299.676228
sS'objid'
p743
g8
(g12
S'\x14\x00\x00\x00\x00\x00\x00\x00'
p744
tp745
Rp746
sa(dp747
S'action'
p748
S'delete'
p749
sS'order'
p750
F1523926299.682493
sS'objid'
p751
g8
(g12
S'\x13\x00\x00\x00\x00\x00\x00\x00'
p752
tp753
Rp754
sa(dp755
S'action'
p756
S'delete'
p757
sS'order'
p758
F1523926299.688808
sS'objid'
p759
g8
(g12
S'\x12\x00\x00\x00\x00\x00\x00\x00'
p760
tp761
Rp762
sa(dp763
S'action'
p764
S'delete'
p765
sS'order'
p766
F1523926299.695169
sS'objid'
p767
g8
(g12
S'\x11\x00\x00\x00\x00\x00\x00\x00'
p768
tp769
Rp770
sa(dp771
S'action'
p772
S'delete'
p773
sS'order'
p774
F1523926299.701602
sS'objid'
p775
g8
(g12
S'\x10\x00\x00\x00\x00\x00\x00\x00'
p776
tp777
Rp778
sa(dp779
S'action'
p780
S'delete'
p781
sS'order'
p782
F1523926299.708083
sS'objid'
p783
g8
(g12
S'\x0f\x00\x00\x00\x00\x00\x00\x00'
p784
tp785
Rp786
sa(dp787
S'action'
p788
S'delete'
p789
sS'order'
p790
F1523926299.714609
sS'objid'
p791
g8
(g12
S'\x0e\x00\x00\x00\x00\x00\x00\x00'
p792
tp793
Rp794
sa(dp795
S'action'
p796
S'delete'
p797
sS'order'
p798
F1523926299.721224
sS'objid'
p799
g8
(g12
S'\r\x00\x00\x00\x00\x00\x00\x00'
p800
tp801
Rp802
sa(dp803
S'action'
p804
S'delete'
p805
sS'order'
p806
F1523926299.727895
sS'objid'
p807
g8
(g12
S'\x0c\x00\x00\x00\x00\x00\x00\x00'
p808
tp809
Rp810
sa(dp811
S'action'
p812
S'delete'
p813
sS'order'
p814
F1523926299.734606
sS'objid'
p815
g8
(g12
S'\x0b\x00\x00\x00\x00\x00\x00\x00'
p816
tp817
Rp818
sa(dp819
S'action'
p820
S'delete'
p821
sS'order'
p822
F1523926299.741382
sS'objid'
p823
g8
(g12
S'\n\x00\x00\x00\x00\x00\x00\x00'
p824
tp825
Rp826
sa(dp827
S'action'
p828
S'delete'
p829
sS'order'
p830
F1523926299.748207
sS'objid'
p831
g8
(g12
S'\t\x00\x00\x00\x00\x00\x00\x00'
p832
tp833
Rp834
sa(dp835
S'action'
p836
S'delete'
p837
sS'order'
p838
F1523926299.755075
sS'objid'
p839
g8
(g12
S'\x08\x00\x00\x00\x00\x00\x00\x00'
p840
tp841
Rp842
sa(dp843
S'action'
p844
S'delete'
p845
sS'order'
p846
F1523926299.762035
sS'objid'
p847
g8
(g12
S'\x07\x00\x00\x00\x00\x00\x00\x00'
p848
tp849
Rp850
sa(dp851
S'action'
p852
S'delete'
p853
sS'order'
p854
F1523926299.769064
sS'objid'
p855
g8
(g12
S'\x06\x00\x00\x00\x00\x00\x00\x00'
p856
tp857
Rp858
sa(dp859
S'action'
p860
S'delete'
p861
sS'order'
p862
F1523926299.776158
sS'objid'
p863
g8
(g12
S'\x05\x00\x00\x00\x00\x00\x00\x00'
p864
tp865
Rp866
sa(dp867
S'action'
p868
S'delete'
p869
sS'order'
p870
F1523926299.783298
sS'objid'
p871
g8
(g12
S'\x04\x00\x00\x00\x00\x00\x00\x00'
p872
tp873
Rp874
sa(dp875
S'action'
p876
S'delete'
p877
sS'order'
p878
F1523926299.790464
sS'objid'
p879
g8
(g12
S'\x03\x00\x00\x00\x00\x00\x00\x00'
p880
tp881
Rp882
sa(dp883
S'action'
p884
S'delete'
p885
sS'order'
p886
F1523926299.797708
sS'objid'
p887
g8
(g12
S'\x02\x00\x00\x00\x00\x00\x00\x00'
p888
tp889
Rp890
sa(dp891
S'action'
p892
S'delete'
p893
sS'order'
p894
F1523926299.804999
sS'objid'
p895
g8
(g12
S'\x01\x00\x00\x00\x00\x00\x00\x00'
p896
tp897
Rp898
sa.