(lp0
(dp1
S'action'
p2
S'delete'
p3
sS'order'
p4
F1523921407.730354
sS'objid'
p5
cnumpy.core.multiarray
scalar
p6
(cnumpy
dtype
p7
(S'i8'
p8
I0
I1
tp9
Rp10
(I3
S'<'
p11
NNNI-1
I-1
I0
tp12
bS'\x01\x00\x00\x00\x00\x00\x00\x00'
p13
tp14
Rp15
sa.