(lp0
(dp1
S'action'
p2
S'join'
p3
sS'data_to_add'
p4
(lp5
sS'order'
p6
F1523904012.419441
sS'new_objid'
p7
cnumpy.core.multiarray
scalar
p8
(cnumpy
dtype
p9
(S'i8'
p10
I0
I1
tp11
Rp12
(I3
S'<'
p13
NNNI-1
I-1
I0
tp14
bS'#\x00\x00\x00\x00\x00\x00\x00'
p15
tp16
Rp17
sS'objids'
p18
(lp19
g8
(g12
S'\n\x00\x00\x00\x00\x00\x00\x00'
p20
tp21
Rp22
ag8
(g12
S'\x04\x00\x00\x00\x00\x00\x00\x00'
p23
tp24
Rp25
asa(dp26
S'cut_frame_global'
p27
I1453
sS'cut_time_epoch'
p28
g8
(g9
(S'f8'
p29
I0
I1
tp30
Rp31
(I3
S'<'
p32
NNNI-1
I-1
I0
tp33
bS'#{\xcb\x97o\xb4\xd6A'
p34
tp35
Rp36
sS'cut_frame_trajectory'
p37
g8
(g12
S'\xeb\x01\x00\x00\x00\x00\x00\x00'
p38
tp39
Rp40
sS'objid'
p41
g8
(g12
S'\t\x00\x00\x00\x00\x00\x00\x00'
p42
tp43
Rp44
sS'action'
p45
S'cut'
p46
sS'order'
p47
F1523904031.436949
sS'new_objid'
p48
g8
(g12
S'%\x00\x00\x00\x00\x00\x00\x00'
p49
tp50
Rp51
sa(dp52
g45
S'join'
p53
sS'data_to_add'
p54
(lp55
sg47
F1523904037.130175
sg48
g8
(g12
S'&\x00\x00\x00\x00\x00\x00\x00'
p56
tp57
Rp58
sS'objids'
p59
(lp60
g8
(g12
S'%\x00\x00\x00\x00\x00\x00\x00'
p61
tp62
Rp63
ag8
(g12
S'#\x00\x00\x00\x00\x00\x00\x00'
p64
tp65
Rp66
ag8
(g12
S'\x0c\x00\x00\x00\x00\x00\x00\x00'
p67
tp68
Rp69
ag8
(g12
S'\x0b\x00\x00\x00\x00\x00\x00\x00'
p70
tp71
Rp72
asa(dp73
S'cut_frame_global'
p74
I1599
sS'cut_time_epoch'
p75
g8
(g31
S'\xf3\xe1q\x9bo\xb4\xd6A'
p76
tp77
Rp78
sS'cut_frame_trajectory'
p79
g8
(g12
S':\x00\x00\x00\x00\x00\x00\x00'
p80
tp81
Rp82
sS'objid'
p83
g8
(g12
S'\x16\x00\x00\x00\x00\x00\x00\x00'
p84
tp85
Rp86
sS'action'
p87
S'cut'
p88
sS'order'
p89
F1523904056.899262
sS'new_objid'
p90
g8
(g12
S'(\x00\x00\x00\x00\x00\x00\x00'
p91
tp92
Rp93
sa(dp94
S'action'
p95
S'join'
p96
sS'data_to_add'
p97
(lp98
sS'order'
p99
F1523904063.817385
sS'new_objid'
p100
g8
(g12
S')\x00\x00\x00\x00\x00\x00\x00'
p101
tp102
Rp103
sS'objids'
p104
(lp105
g8
(g12
S'&\x00\x00\x00\x00\x00\x00\x00'
p106
tp107
Rp108
ag8
(g12
S'(\x00\x00\x00\x00\x00\x00\x00'
p109
tp110
Rp111
asa(dp112
S'action'
p113
S'delete'
p114
sS'order'
p115
F1523904081.618288
sS'objid'
p116
g8
(g12
S'\x18\x00\x00\x00\x00\x00\x00\x00'
p117
tp118
Rp119
sa(dp120
S'action'
p121
S'delete'
p122
sS'order'
p123
F1523904081.621543
sS'objid'
p124
g8
(g12
S'\x17\x00\x00\x00\x00\x00\x00\x00'
p125
tp126
Rp127
sa(dp128
S'action'
p129
S'delete'
p130
sS'order'
p131
F1523904081.624552
sS'objid'
p132
g8
(g12
S'\x16\x00\x00\x00\x00\x00\x00\x00'
p133
tp134
Rp135
sa(dp136
S'action'
p137
S'delete'
p138
sS'order'
p139
F1523904081.627644
sS'objid'
p140
g8
(g12
S'\x15\x00\x00\x00\x00\x00\x00\x00'
p141
tp142
Rp143
sa(dp144
S'action'
p145
S'delete'
p146
sS'order'
p147
F1523904081.629913
sS'objid'
p148
g8
(g12
S'\x14\x00\x00\x00\x00\x00\x00\x00'
p149
tp150
Rp151
sa(dp152
S'action'
p153
S'delete'
p154
sS'order'
p155
F1523904081.631767
sS'objid'
p156
g8
(g12
S'\x13\x00\x00\x00\x00\x00\x00\x00'
p157
tp158
Rp159
sa(dp160
S'action'
p161
S'delete'
p162
sS'order'
p163
F1523904081.633634
sS'objid'
p164
g8
(g12
S'\x12\x00\x00\x00\x00\x00\x00\x00'
p165
tp166
Rp167
sa(dp168
S'action'
p169
S'delete'
p170
sS'order'
p171
F1523904081.635561
sS'objid'
p172
g8
(g12
S'\x11\x00\x00\x00\x00\x00\x00\x00'
p173
tp174
Rp175
sa(dp176
S'action'
p177
S'delete'
p178
sS'order'
p179
F1523904081.637546
sS'objid'
p180
g8
(g12
S'\x10\x00\x00\x00\x00\x00\x00\x00'
p181
tp182
Rp183
sa(dp184
S'action'
p185
S'delete'
p186
sS'order'
p187
F1523904081.639589
sS'objid'
p188
g8
(g12
S'\x0f\x00\x00\x00\x00\x00\x00\x00'
p189
tp190
Rp191
sa(dp192
S'action'
p193
S'delete'
p194
sS'order'
p195
F1523904081.641699
sS'objid'
p196
g8
(g12
S'\x0e\x00\x00\x00\x00\x00\x00\x00'
p197
tp198
Rp199
sa(dp200
S'action'
p201
S'delete'
p202
sS'order'
p203
F1523904081.643877
sS'objid'
p204
g8
(g12
S'\r\x00\x00\x00\x00\x00\x00\x00'
p205
tp206
Rp207
sa(dp208
S'action'
p209
S'delete'
p210
sS'order'
p211
F1523904081.646101
sS'objid'
p212
g8
(g12
S'\t\x00\x00\x00\x00\x00\x00\x00'
p213
tp214
Rp215
sa(dp216
S'action'
p217
S'delete'
p218
sS'order'
p219
F1523904081.648384
sS'objid'
p220
g8
(g12
S'\x08\x00\x00\x00\x00\x00\x00\x00'
p221
tp222
Rp223
sa(dp224
S'action'
p225
S'delete'
p226
sS'order'
p227
F1523904081.650795
sS'objid'
p228
g8
(g12
S'\x07\x00\x00\x00\x00\x00\x00\x00'
p229
tp230
Rp231
sa(dp232
S'action'
p233
S'delete'
p234
sS'order'
p235
F1523904081.653216
sS'objid'
p236
g8
(g12
S'\x06\x00\x00\x00\x00\x00\x00\x00'
p237
tp238
Rp239
sa(dp240
S'action'
p241
S'delete'
p242
sS'order'
p243
F1523904081.655671
sS'objid'
p244
g8
(g12
S'\x05\x00\x00\x00\x00\x00\x00\x00'
p245
tp246
Rp247
sa(dp248
S'action'
p249
S'delete'
p250
sS'order'
p251
F1523904081.658179
sS'objid'
p252
g8
(g12
S'\x03\x00\x00\x00\x00\x00\x00\x00'
p253
tp254
Rp255
sa(dp256
S'action'
p257
S'delete'
p258
sS'order'
p259
F1523904081.660738
sS'objid'
p260
g8
(g12
S'\x02\x00\x00\x00\x00\x00\x00\x00'
p261
tp262
Rp263
sa(dp264
S'action'
p265
S'delete'
p266
sS'order'
p267
F1523904081.663359
sS'objid'
p268
g8
(g12
S'\x01\x00\x00\x00\x00\x00\x00\x00'
p269
tp270
Rp271
sa(dp272
S'action'
p273
S'delete'
p274
sS'order'
p275
F1523904081.666027
sS'objid'
p276
g8
(g12
S'\x00\x00\x00\x00\x00\x00\x00\x00'
p277
tp278
Rp279
sa.