(lp0
(dp1
S'action'
p2
S'join'
p3
sS'data_to_add'
p4
(lp5
sS'order'
p6
F1523996337.067938
sS'new_objid'
p7
cnumpy.core.multiarray
scalar
p8
(cnumpy
dtype
p9
(S'i8'
p10
I0
I1
tp11
Rp12
(I3
S'<'
p13
NNNI-1
I-1
I0
tp14
bS'L\x00\x00\x00\x00\x00\x00\x00'
p15
tp16
Rp17
sS'objids'
p18
(lp19
g8
(g12
S'\x02\x00\x00\x00\x00\x00\x00\x00'
p20
tp21
Rp22
ag8
(g12
S'\x00\x00\x00\x00\x00\x00\x00\x00'
p23
tp24
Rp25
asa(dp26
S'action'
p27
S'join'
p28
sS'data_to_add'
p29
(lp30
sS'order'
p31
F1523996350.984091
sS'new_objid'
p32
g8
(g12
S'M\x00\x00\x00\x00\x00\x00\x00'
p33
tp34
Rp35
sS'objids'
p36
(lp37
g8
(g12
S'L\x00\x00\x00\x00\x00\x00\x00'
p38
tp39
Rp40
ag8
(g12
S'\x18\x00\x00\x00\x00\x00\x00\x00'
p41
tp42
Rp43
ag8
(g12
S'\x1a\x00\x00\x00\x00\x00\x00\x00'
p44
tp45
Rp46
asa(dp47
S'action'
p48
S'join'
p49
sS'data_to_add'
p50
(lp51
sS'order'
p52
F1523996358.688289
sS'new_objid'
p53
g8
(g12
S'N\x00\x00\x00\x00\x00\x00\x00'
p54
tp55
Rp56
sS'objids'
p57
(lp58
g8
(g12
S'\x1f\x00\x00\x00\x00\x00\x00\x00'
p59
tp60
Rp61
ag8
(g12
S'M\x00\x00\x00\x00\x00\x00\x00'
p62
tp63
Rp64
asa(dp65
S'action'
p66
S'join'
p67
sS'data_to_add'
p68
(lp69
sS'order'
p70
F1523996369.808442
sS'new_objid'
p71
g8
(g12
S'O\x00\x00\x00\x00\x00\x00\x00'
p72
tp73
Rp74
sS'objids'
p75
(lp76
g8
(g12
S'"\x00\x00\x00\x00\x00\x00\x00'
p77
tp78
Rp79
ag8
(g12
S'N\x00\x00\x00\x00\x00\x00\x00'
p80
tp81
Rp82
ag8
(g12
S'$\x00\x00\x00\x00\x00\x00\x00'
p83
tp84
Rp85
asa(dp86
S'action'
p87
S'join'
p88
sS'data_to_add'
p89
(lp90
sS'order'
p91
F1523996375.208843
sS'new_objid'
p92
g8
(g12
S'P\x00\x00\x00\x00\x00\x00\x00'
p93
tp94
Rp95
sS'objids'
p96
(lp97
g8
(g12
S'(\x00\x00\x00\x00\x00\x00\x00'
p98
tp99
Rp100
ag8
(g12
S'O\x00\x00\x00\x00\x00\x00\x00'
p101
tp102
Rp103
asa(dp104
S'action'
p105
S'join'
p106
sS'data_to_add'
p107
(lp108
sS'order'
p109
F1523996380.425452
sS'new_objid'
p110
g8
(g12
S'Q\x00\x00\x00\x00\x00\x00\x00'
p111
tp112
Rp113
sS'objids'
p114
(lp115
g8
(g12
S'9\x00\x00\x00\x00\x00\x00\x00'
p116
tp117
Rp118
ag8
(g12
S'P\x00\x00\x00\x00\x00\x00\x00'
p119
tp120
Rp121
asa(dp122
S'action'
p123
S'delete'
p124
sS'order'
p125
F1523996394.042345
sS'objid'
p126
g8
(g12
S'A\x00\x00\x00\x00\x00\x00\x00'
p127
tp128
Rp129
sa(dp130
S'action'
p131
S'delete'
p132
sS'order'
p133
F1523996394.044607
sS'objid'
p134
g8
(g12
S'@\x00\x00\x00\x00\x00\x00\x00'
p135
tp136
Rp137
sa(dp138
S'action'
p139
S'delete'
p140
sS'order'
p141
F1523996394.04711
sS'objid'
p142
g8
(g12
S'?\x00\x00\x00\x00\x00\x00\x00'
p143
tp144
Rp145
sa(dp146
S'action'
p147
S'delete'
p148
sS'order'
p149
F1523996394.048871
sS'objid'
p150
g8
(g12
S'>\x00\x00\x00\x00\x00\x00\x00'
p151
tp152
Rp153
sa(dp154
S'action'
p155
S'delete'
p156
sS'order'
p157
F1523996394.05065
sS'objid'
p158
g8
(g12
S'=\x00\x00\x00\x00\x00\x00\x00'
p159
tp160
Rp161
sa(dp162
S'action'
p163
S'delete'
p164
sS'order'
p165
F1523996394.053098
sS'objid'
p166
g8
(g12
S'<\x00\x00\x00\x00\x00\x00\x00'
p167
tp168
Rp169
sa(dp170
S'action'
p171
S'delete'
p172
sS'order'
p173
F1523996394.055771
sS'objid'
p174
g8
(g12
S';\x00\x00\x00\x00\x00\x00\x00'
p175
tp176
Rp177
sa(dp178
S'action'
p179
S'delete'
p180
sS'order'
p181
F1523996394.057716
sS'objid'
p182
g8
(g12
S':\x00\x00\x00\x00\x00\x00\x00'
p183
tp184
Rp185
sa(dp186
S'action'
p187
S'delete'
p188
sS'order'
p189
F1523996394.06113
sS'objid'
p190
g8
(g12
S'8\x00\x00\x00\x00\x00\x00\x00'
p191
tp192
Rp193
sa(dp194
S'action'
p195
S'delete'
p196
sS'order'
p197
F1523996394.063186
sS'objid'
p198
g8
(g12
S'7\x00\x00\x00\x00\x00\x00\x00'
p199
tp200
Rp201
sa(dp202
S'action'
p203
S'delete'
p204
sS'order'
p205
F1523996394.065284
sS'objid'
p206
g8
(g12
S'6\x00\x00\x00\x00\x00\x00\x00'
p207
tp208
Rp209
sa(dp210
S'action'
p211
S'delete'
p212
sS'order'
p213
F1523996394.06744
sS'objid'
p214
g8
(g12
S'5\x00\x00\x00\x00\x00\x00\x00'
p215
tp216
Rp217
sa(dp218
S'action'
p219
S'delete'
p220
sS'order'
p221
F1523996394.069663
sS'objid'
p222
g8
(g12
S'4\x00\x00\x00\x00\x00\x00\x00'
p223
tp224
Rp225
sa(dp226
S'action'
p227
S'delete'
p228
sS'order'
p229
F1523996394.071935
sS'objid'
p230
g8
(g12
S'3\x00\x00\x00\x00\x00\x00\x00'
p231
tp232
Rp233
sa(dp234
S'action'
p235
S'delete'
p236
sS'order'
p237
F1523996394.074268
sS'objid'
p238
g8
(g12
S'2\x00\x00\x00\x00\x00\x00\x00'
p239
tp240
Rp241
sa(dp242
S'action'
p243
S'delete'
p244
sS'order'
p245
F1523996394.076672
sS'objid'
p246
g8
(g12
S'1\x00\x00\x00\x00\x00\x00\x00'
p247
tp248
Rp249
sa(dp250
S'action'
p251
S'delete'
p252
sS'order'
p253
F1523996394.079116
sS'objid'
p254
g8
(g12
S'0\x00\x00\x00\x00\x00\x00\x00'
p255
tp256
Rp257
sa(dp258
S'action'
p259
S'delete'
p260
sS'order'
p261
F1523996394.081623
sS'objid'
p262
g8
(g12
S'/\x00\x00\x00\x00\x00\x00\x00'
p263
tp264
Rp265
sa(dp266
S'action'
p267
S'delete'
p268
sS'order'
p269
F1523996394.084208
sS'objid'
p270
g8
(g12
S'.\x00\x00\x00\x00\x00\x00\x00'
p271
tp272
Rp273
sa(dp274
S'action'
p275
S'delete'
p276
sS'order'
p277
F1523996394.086836
sS'objid'
p278
g8
(g12
S'-\x00\x00\x00\x00\x00\x00\x00'
p279
tp280
Rp281
sa(dp282
S'action'
p283
S'delete'
p284
sS'order'
p285
F1523996394.089546
sS'objid'
p286
g8
(g12
S',\x00\x00\x00\x00\x00\x00\x00'
p287
tp288
Rp289
sa(dp290
S'action'
p291
S'delete'
p292
sS'order'
p293
F1523996394.092281
sS'objid'
p294
g8
(g12
S'+\x00\x00\x00\x00\x00\x00\x00'
p295
tp296
Rp297
sa(dp298
S'action'
p299
S'delete'
p300
sS'order'
p301
F1523996394.095068
sS'objid'
p302
g8
(g12
S'*\x00\x00\x00\x00\x00\x00\x00'
p303
tp304
Rp305
sa(dp306
S'action'
p307
S'delete'
p308
sS'order'
p309
F1523996394.097917
sS'objid'
p310
g8
(g12
S')\x00\x00\x00\x00\x00\x00\x00'
p311
tp312
Rp313
sa(dp314
S'action'
p315
S'delete'
p316
sS'order'
p317
F1523996394.100827
sS'objid'
p318
g8
(g12
S"'\x00\x00\x00\x00\x00\x00\x00"
p319
tp320
Rp321
sa(dp322
S'action'
p323
S'delete'
p324
sS'order'
p325
F1523996394.103805
sS'objid'
p326
g8
(g12
S'&\x00\x00\x00\x00\x00\x00\x00'
p327
tp328
Rp329
sa(dp330
S'action'
p331
S'delete'
p332
sS'order'
p333
F1523996394.106825
sS'objid'
p334
g8
(g12
S'%\x00\x00\x00\x00\x00\x00\x00'
p335
tp336
Rp337
sa(dp338
S'action'
p339
S'delete'
p340
sS'order'
p341
F1523996394.109914
sS'objid'
p342
g8
(g12
S'#\x00\x00\x00\x00\x00\x00\x00'
p343
tp344
Rp345
sa(dp346
S'action'
p347
S'delete'
p348
sS'order'
p349
F1523996394.113069
sS'objid'
p350
g8
(g12
S'!\x00\x00\x00\x00\x00\x00\x00'
p351
tp352
Rp353
sa(dp354
S'action'
p355
S'delete'
p356
sS'order'
p357
F1523996394.116284
sS'objid'
p358
g8
(g12
S' \x00\x00\x00\x00\x00\x00\x00'
p359
tp360
Rp361
sa(dp362
S'action'
p363
S'delete'
p364
sS'order'
p365
F1523996394.119581
sS'objid'
p366
g8
(g12
S'\x1e\x00\x00\x00\x00\x00\x00\x00'
p367
tp368
Rp369
sa(dp370
S'action'
p371
S'delete'
p372
sS'order'
p373
F1523996394.122898
sS'objid'
p374
g8
(g12
S'\x1d\x00\x00\x00\x00\x00\x00\x00'
p375
tp376
Rp377
sa(dp378
S'action'
p379
S'delete'
p380
sS'order'
p381
F1523996394.126317
sS'objid'
p382
g8
(g12
S'\x1c\x00\x00\x00\x00\x00\x00\x00'
p383
tp384
Rp385
sa(dp386
S'action'
p387
S'delete'
p388
sS'order'
p389
F1523996394.129771
sS'objid'
p390
g8
(g12
S'\x1b\x00\x00\x00\x00\x00\x00\x00'
p391
tp392
Rp393
sa(dp394
S'action'
p395
S'delete'
p396
sS'order'
p397
F1523996394.133277
sS'objid'
p398
g8
(g12
S'\x19\x00\x00\x00\x00\x00\x00\x00'
p399
tp400
Rp401
sa(dp402
S'action'
p403
S'delete'
p404
sS'order'
p405
F1523996394.136864
sS'objid'
p406
g8
(g12
S'\x17\x00\x00\x00\x00\x00\x00\x00'
p407
tp408
Rp409
sa(dp410
S'action'
p411
S'delete'
p412
sS'order'
p413
F1523996394.140562
sS'objid'
p414
g8
(g12
S'\x16\x00\x00\x00\x00\x00\x00\x00'
p415
tp416
Rp417
sa(dp418
S'action'
p419
S'delete'
p420
sS'order'
p421
F1523996394.144275
sS'objid'
p422
g8
(g12
S'\x15\x00\x00\x00\x00\x00\x00\x00'
p423
tp424
Rp425
sa(dp426
S'action'
p427
S'delete'
p428
sS'order'
p429
F1523996394.14804
sS'objid'
p430
g8
(g12
S'\x14\x00\x00\x00\x00\x00\x00\x00'
p431
tp432
Rp433
sa(dp434
S'action'
p435
S'delete'
p436
sS'order'
p437
F1523996394.151871
sS'objid'
p438
g8
(g12
S'\x13\x00\x00\x00\x00\x00\x00\x00'
p439
tp440
Rp441
sa(dp442
S'action'
p443
S'delete'
p444
sS'order'
p445
F1523996394.155784
sS'objid'
p446
g8
(g12
S'\x12\x00\x00\x00\x00\x00\x00\x00'
p447
tp448
Rp449
sa(dp450
S'action'
p451
S'delete'
p452
sS'order'
p453
F1523996394.159703
sS'objid'
p454
g8
(g12
S'\x11\x00\x00\x00\x00\x00\x00\x00'
p455
tp456
Rp457
sa(dp458
S'action'
p459
S'delete'
p460
sS'order'
p461
F1523996394.163695
sS'objid'
p462
g8
(g12
S'\x10\x00\x00\x00\x00\x00\x00\x00'
p463
tp464
Rp465
sa(dp466
S'action'
p467
S'delete'
p468
sS'order'
p469
F1523996394.167727
sS'objid'
p470
g8
(g12
S'\x0f\x00\x00\x00\x00\x00\x00\x00'
p471
tp472
Rp473
sa(dp474
S'action'
p475
S'delete'
p476
sS'order'
p477
F1523996394.171842
sS'objid'
p478
g8
(g12
S'\x0e\x00\x00\x00\x00\x00\x00\x00'
p479
tp480
Rp481
sa(dp482
S'action'
p483
S'delete'
p484
sS'order'
p485
F1523996394.175985
sS'objid'
p486
g8
(g12
S'\r\x00\x00\x00\x00\x00\x00\x00'
p487
tp488
Rp489
sa(dp490
S'action'
p491
S'delete'
p492
sS'order'
p493
F1523996394.180197
sS'objid'
p494
g8
(g12
S'\x0c\x00\x00\x00\x00\x00\x00\x00'
p495
tp496
Rp497
sa(dp498
S'action'
p499
S'delete'
p500
sS'order'
p501
F1523996394.184451
sS'objid'
p502
g8
(g12
S'\x0b\x00\x00\x00\x00\x00\x00\x00'
p503
tp504
Rp505
sa(dp506
S'action'
p507
S'delete'
p508
sS'order'
p509
F1523996394.188788
sS'objid'
p510
g8
(g12
S'\n\x00\x00\x00\x00\x00\x00\x00'
p511
tp512
Rp513
sa(dp514
S'action'
p515
S'delete'
p516
sS'order'
p517
F1523996394.193166
sS'objid'
p518
g8
(g12
S'\t\x00\x00\x00\x00\x00\x00\x00'
p519
tp520
Rp521
sa(dp522
S'action'
p523
S'delete'
p524
sS'order'
p525
F1523996394.197625
sS'objid'
p526
g8
(g12
S'\x08\x00\x00\x00\x00\x00\x00\x00'
p527
tp528
Rp529
sa(dp530
S'action'
p531
S'delete'
p532
sS'order'
p533
F1523996394.202103
sS'objid'
p534
g8
(g12
S'\x07\x00\x00\x00\x00\x00\x00\x00'
p535
tp536
Rp537
sa(dp538
S'action'
p539
S'delete'
p540
sS'order'
p541
F1523996394.20665
sS'objid'
p542
g8
(g12
S'\x06\x00\x00\x00\x00\x00\x00\x00'
p543
tp544
Rp545
sa(dp546
S'action'
p547
S'delete'
p548
sS'order'
p549
F1523996394.211244
sS'objid'
p550
g8
(g12
S'\x05\x00\x00\x00\x00\x00\x00\x00'
p551
tp552
Rp553
sa(dp554
S'action'
p555
S'delete'
p556
sS'order'
p557
F1523996394.215898
sS'objid'
p558
g8
(g12
S'\x04\x00\x00\x00\x00\x00\x00\x00'
p559
tp560
Rp561
sa(dp562
S'action'
p563
S'delete'
p564
sS'order'
p565
F1523996394.220595
sS'objid'
p566
g8
(g12
S'\x03\x00\x00\x00\x00\x00\x00\x00'
p567
tp568
Rp569
sa(dp570
S'action'
p571
S'delete'
p572
sS'order'
p573
F1523996394.225349
sS'objid'
p574
g8
(g12
S'\x01\x00\x00\x00\x00\x00\x00\x00'
p575
tp576
Rp577
sa.