(lp0
(dp1
S'action'
p2
S'join'
p3
sS'data_to_add'
p4
(lp5
sS'order'
p6
F1523921874.463378
sS'new_objid'
p7
cnumpy.core.multiarray
scalar
p8
(cnumpy
dtype
p9
(S'i8'
p10
I0
I1
tp11
Rp12
(I3
S'<'
p13
NNNI-1
I-1
I0
tp14
bS'+\x00\x00\x00\x00\x00\x00\x00'
p15
tp16
Rp17
sS'objids'
p18
(lp19
g8
(g12
S'\x00\x00\x00\x00\x00\x00\x00\x00'
p20
tp21
Rp22
ag8
(g12
S'\x02\x00\x00\x00\x00\x00\x00\x00'
p23
tp24
Rp25
asa(dp26
S'action'
p27
S'join'
p28
sS'data_to_add'
p29
(lp30
sS'order'
p31
F1523921885.551437
sS'new_objid'
p32
g8
(g12
S',\x00\x00\x00\x00\x00\x00\x00'
p33
tp34
Rp35
sS'objids'
p36
(lp37
g8
(g12
S'\x05\x00\x00\x00\x00\x00\x00\x00'
p38
tp39
Rp40
ag8
(g12
S'\x08\x00\x00\x00\x00\x00\x00\x00'
p41
tp42
Rp43
ag8
(g12
S'+\x00\x00\x00\x00\x00\x00\x00'
p44
tp45
Rp46
ag8
(g12
S'\x04\x00\x00\x00\x00\x00\x00\x00'
p47
tp48
Rp49
asa(dp50
S'action'
p51
S'join'
p52
sS'data_to_add'
p53
(lp54
sS'order'
p55
F1523921894.639558
sS'new_objid'
p56
g8
(g12
S'-\x00\x00\x00\x00\x00\x00\x00'
p57
tp58
Rp59
sS'objids'
p60
(lp61
g8
(g12
S'\t\x00\x00\x00\x00\x00\x00\x00'
p62
tp63
Rp64
ag8
(g12
S',\x00\x00\x00\x00\x00\x00\x00'
p65
tp66
Rp67
asa(dp68
S'action'
p69
S'join'
p70
sS'data_to_add'
p71
(lp72
sS'order'
p73
F1523921900.719754
sS'new_objid'
p74
g8
(g12
S'.\x00\x00\x00\x00\x00\x00\x00'
p75
tp76
Rp77
sS'objids'
p78
(lp79
g8
(g12
S'\x14\x00\x00\x00\x00\x00\x00\x00'
p80
tp81
Rp82
ag8
(g12
S'-\x00\x00\x00\x00\x00\x00\x00'
p83
tp84
Rp85
asa(dp86
S'action'
p87
S'join'
p88
sS'data_to_add'
p89
(lp90
sS'order'
p91
F1523921909.241404
sS'new_objid'
p92
g8
(g12
S'/\x00\x00\x00\x00\x00\x00\x00'
p93
tp94
Rp95
sS'objids'
p96
(lp97
g8
(g12
S'\x17\x00\x00\x00\x00\x00\x00\x00'
p98
tp99
Rp100
ag8
(g12
S'.\x00\x00\x00\x00\x00\x00\x00'
p101
tp102
Rp103
ag8
(g12
S'\x18\x00\x00\x00\x00\x00\x00\x00'
p104
tp105
Rp106
asa(dp107
S'action'
p108
S'delete'
p109
sS'order'
p110
F1523921917.377927
sS'objid'
p111
g8
(g12
S'\x1f\x00\x00\x00\x00\x00\x00\x00'
p112
tp113
Rp114
sa(dp115
S'action'
p116
S'delete'
p117
sS'order'
p118
F1523921917.381112
sS'objid'
p119
g8
(g12
S'\x1e\x00\x00\x00\x00\x00\x00\x00'
p120
tp121
Rp122
sa(dp123
S'action'
p124
S'delete'
p125
sS'order'
p126
F1523921917.383743
sS'objid'
p127
g8
(g12
S'\x1d\x00\x00\x00\x00\x00\x00\x00'
p128
tp129
Rp130
sa(dp131
S'action'
p132
S'delete'
p133
sS'order'
p134
F1523921917.38533
sS'objid'
p135
g8
(g12
S'\x1c\x00\x00\x00\x00\x00\x00\x00'
p136
tp137
Rp138
sa(dp139
S'action'
p140
S'delete'
p141
sS'order'
p142
F1523921917.386964
sS'objid'
p143
g8
(g12
S'\x1b\x00\x00\x00\x00\x00\x00\x00'
p144
tp145
Rp146
sa(dp147
S'action'
p148
S'delete'
p149
sS'order'
p150
F1523921917.388937
sS'objid'
p151
g8
(g12
S'\x1a\x00\x00\x00\x00\x00\x00\x00'
p152
tp153
Rp154
sa(dp155
S'action'
p156
S'delete'
p157
sS'order'
p158
F1523921917.39072
sS'objid'
p159
g8
(g12
S'\x19\x00\x00\x00\x00\x00\x00\x00'
p160
tp161
Rp162
sa(dp163
S'action'
p164
S'delete'
p165
sS'order'
p166
F1523921917.392565
sS'objid'
p167
g8
(g12
S'\x16\x00\x00\x00\x00\x00\x00\x00'
p168
tp169
Rp170
sa(dp171
S'action'
p172
S'delete'
p173
sS'order'
p174
F1523921917.394443
sS'objid'
p175
g8
(g12
S'\x15\x00\x00\x00\x00\x00\x00\x00'
p176
tp177
Rp178
sa(dp179
S'action'
p180
S'delete'
p181
sS'order'
p182
F1523921917.396399
sS'objid'
p183
g8
(g12
S'\x13\x00\x00\x00\x00\x00\x00\x00'
p184
tp185
Rp186
sa(dp187
S'action'
p188
S'delete'
p189
sS'order'
p190
F1523921917.398403
sS'objid'
p191
g8
(g12
S'\x12\x00\x00\x00\x00\x00\x00\x00'
p192
tp193
Rp194
sa(dp195
S'action'
p196
S'delete'
p197
sS'order'
p198
F1523921917.400459
sS'objid'
p199
g8
(g12
S'\x11\x00\x00\x00\x00\x00\x00\x00'
p200
tp201
Rp202
sa(dp203
S'action'
p204
S'delete'
p205
sS'order'
p206
F1523921917.402577
sS'objid'
p207
g8
(g12
S'\x10\x00\x00\x00\x00\x00\x00\x00'
p208
tp209
Rp210
sa(dp211
S'action'
p212
S'delete'
p213
sS'order'
p214
F1523921917.404955
sS'objid'
p215
g8
(g12
S'\x0f\x00\x00\x00\x00\x00\x00\x00'
p216
tp217
Rp218
sa(dp219
S'action'
p220
S'delete'
p221
sS'order'
p222
F1523921917.407243
sS'objid'
p223
g8
(g12
S'\x0e\x00\x00\x00\x00\x00\x00\x00'
p224
tp225
Rp226
sa(dp227
S'action'
p228
S'delete'
p229
sS'order'
p230
F1523921917.409549
sS'objid'
p231
g8
(g12
S'\r\x00\x00\x00\x00\x00\x00\x00'
p232
tp233
Rp234
sa(dp235
S'action'
p236
S'delete'
p237
sS'order'
p238
F1523921917.411921
sS'objid'
p239
g8
(g12
S'\x0c\x00\x00\x00\x00\x00\x00\x00'
p240
tp241
Rp242
sa(dp243
S'action'
p244
S'delete'
p245
sS'order'
p246
F1523921917.414339
sS'objid'
p247
g8
(g12
S'\x0b\x00\x00\x00\x00\x00\x00\x00'
p248
tp249
Rp250
sa(dp251
S'action'
p252
S'delete'
p253
sS'order'
p254
F1523921917.416827
sS'objid'
p255
g8
(g12
S'\n\x00\x00\x00\x00\x00\x00\x00'
p256
tp257
Rp258
sa(dp259
S'action'
p260
S'delete'
p261
sS'order'
p262
F1523921917.419359
sS'objid'
p263
g8
(g12
S'\x07\x00\x00\x00\x00\x00\x00\x00'
p264
tp265
Rp266
sa(dp267
S'action'
p268
S'delete'
p269
sS'order'
p270
F1523921917.421954
sS'objid'
p271
g8
(g12
S'\x06\x00\x00\x00\x00\x00\x00\x00'
p272
tp273
Rp274
sa(dp275
S'action'
p276
S'delete'
p277
sS'order'
p278
F1523921917.424607
sS'objid'
p279
g8
(g12
S'\x03\x00\x00\x00\x00\x00\x00\x00'
p280
tp281
Rp282
sa(dp283
S'action'
p284
S'delete'
p285
sS'order'
p286
F1523921917.427325
sS'objid'
p287
g8
(g12
S'\x01\x00\x00\x00\x00\x00\x00\x00'
p288
tp289
Rp290
sa.