(lp0
(dp1
S'action'
p2
S'join'
p3
sS'data_to_add'
p4
(lp5
sS'order'
p6
F1523922186.520239
sS'new_objid'
p7
cnumpy.core.multiarray
scalar
p8
(cnumpy
dtype
p9
(S'i8'
p10
I0
I1
tp11
Rp12
(I3
S'<'
p13
NNNI-1
I-1
I0
tp14
bS'\xbe\x00\x00\x00\x00\x00\x00\x00'
p15
tp16
Rp17
sS'objids'
p18
(lp19
g8
(g12
S'\x02\x00\x00\x00\x00\x00\x00\x00'
p20
tp21
Rp22
ag8
(g12
S'\x00\x00\x00\x00\x00\x00\x00\x00'
p23
tp24
Rp25
asa(dp26
S'cut_frame_global'
p27
I729
sS'cut_time_epoch'
p28
g8
(g9
(S'f8'
p29
I0
I1
tp30
Rp31
(I3
S'<'
p32
NNNI-1
I-1
I0
tp33
bS'\x954\x03I\x95\xb4\xd6A'
p34
tp35
Rp36
sS'cut_frame_trajectory'
p37
g8
(g12
S'\x06\x00\x00\x00\x00\x00\x00\x00'
p38
tp39
Rp40
sS'objid'
p41
g8
(g12
S'+\x00\x00\x00\x00\x00\x00\x00'
p42
tp43
Rp44
sS'action'
p45
S'cut'
p46
sS'order'
p47
F1523922200.49603
sS'new_objid'
p48
g8
(g12
S'\xbf\x00\x00\x00\x00\x00\x00\x00'
p49
tp50
Rp51
sa(dp52
S'cut_frame_global'
p53
I789
sS'cut_time_epoch'
p54
g8
(g31
S'\x964\x83J\x95\xb4\xd6A'
p55
tp56
Rp57
sS'cut_frame_trajectory'
p58
g8
(g12
S'<\x00\x00\x00\x00\x00\x00\x00'
p59
tp60
Rp61
sS'objid'
p62
g8
(g12
S'\xbf\x00\x00\x00\x00\x00\x00\x00'
p63
tp64
Rp65
sS'action'
p66
S'cut'
p67
sS'order'
p68
F1523922204.959797
sS'new_objid'
p69
g8
(g12
S'\xc0\x00\x00\x00\x00\x00\x00\x00'
p70
tp71
Rp72
sa(dp73
S'cut_frame_global'
p74
I788
sS'cut_time_epoch'
p75
g8
(g31
S'_\xcd|J\x95\xb4\xd6A'
p76
tp77
Rp78
sS'cut_frame_trajectory'
p79
g8
(g12
S';\x00\x00\x00\x00\x00\x00\x00'
p80
tp81
Rp82
sS'objid'
p83
g8
(g12
S'\xbf\x00\x00\x00\x00\x00\x00\x00'
p84
tp85
Rp86
sS'action'
p87
S'cut'
p88
sS'order'
p89
F1523922206.80672
sS'new_objid'
p90
g8
(g12
S'\xc1\x00\x00\x00\x00\x00\x00\x00'
p91
tp92
Rp93
sa(dp94
S'cut_frame_global'
p95
I790
sS'cut_time_epoch'
p96
g8
(g31
S"'\x9a\x89J\x95\xb4\xd6A"
p97
tp98
Rp99
sS'cut_frame_trajectory'
p100
g8
(g12
S'\x01\x00\x00\x00\x00\x00\x00\x00'
p101
tp102
Rp103
sS'objid'
p104
g8
(g12
S'4\x00\x00\x00\x00\x00\x00\x00'
p105
tp106
Rp107
sS'action'
p108
S'cut'
p109
sS'order'
p110
F1523922209.944147
sS'new_objid'
p111
g8
(g12
S'\xc2\x00\x00\x00\x00\x00\x00\x00'
p112
tp113
Rp114
sa(dp115
S'cut_frame_global'
p116
I790
sS'cut_time_epoch'
p117
g8
(g31
S"'\x9a\x89J\x95\xb4\xd6A"
p118
tp119
Rp120
sS'cut_frame_trajectory'
p121
g8
(g12
S'\x00\x00\x00\x00\x00\x00\x00\x00'
p122
tp123
Rp124
sS'objid'
p125
g8
(g12
S'\xc2\x00\x00\x00\x00\x00\x00\x00'
p126
tp127
Rp128
sS'action'
p129
S'cut'
p130
sS'order'
p131
F1523922210.471914
sS'new_objid'
p132
g8
(g12
S'\xc3\x00\x00\x00\x00\x00\x00\x00'
p133
tp134
Rp135
sa(dp136
S'action'
p137
S'join'
p138
sS'data_to_add'
p139
(lp140
sS'order'
p141
F1523922219.07623
sS'new_objid'
p142
g8
(g12
S'\xc4\x00\x00\x00\x00\x00\x00\x00'
p143
tp144
Rp145
sS'objids'
p146
(lp147
g8
(g12
S'\xbe\x00\x00\x00\x00\x00\x00\x00'
p148
tp149
Rp150
ag8
(g12
S'\xbf\x00\x00\x00\x00\x00\x00\x00'
p151
tp152
Rp153
ag8
(g12
S'\xc3\x00\x00\x00\x00\x00\x00\x00'
p154
tp155
Rp156
asa(dp157
S'action'
p158
S'join'
p159
sS'data_to_add'
p160
(lp161
sS'order'
p162
F1523922231.230013
sS'new_objid'
p163
g8
(g12
S'\xc5\x00\x00\x00\x00\x00\x00\x00'
p164
tp165
Rp166
sS'objids'
p167
(lp168
g8
(g12
S'\xc4\x00\x00\x00\x00\x00\x00\x00'
p169
tp170
Rp171
ag8
(g12
S'W\x00\x00\x00\x00\x00\x00\x00'
p172
tp173
Rp174
asa(dp175
S'action'
p176
S'join'
p177
sS'data_to_add'
p178
(lp179
sS'order'
p180
F1523922245.894212
sS'new_objid'
p181
g8
(g12
S'\xc6\x00\x00\x00\x00\x00\x00\x00'
p182
tp183
Rp184
sS'objids'
p185
(lp186
g8
(g12
S'\x9f\x00\x00\x00\x00\x00\x00\x00'
p187
tp188
Rp189
ag8
(g12
S'b\x00\x00\x00\x00\x00\x00\x00'
p190
tp191
Rp192
asa(dp193
S'action'
p194
S'join'
p195
sS'data_to_add'
p196
(lp197
sS'order'
p198
F1523922254.973963
sS'new_objid'
p199
g8
(g12
S'\xc7\x00\x00\x00\x00\x00\x00\x00'
p200
tp201
Rp202
sS'objids'
p203
(lp204
g8
(g12
S'\xc5\x00\x00\x00\x00\x00\x00\x00'
p205
tp206
Rp207
ag8
(g12
S'\xc6\x00\x00\x00\x00\x00\x00\x00'
p208
tp209
Rp210
asa(dp211
S'action'
p212
S'delete'
p213
sS'order'
p214
F1523922282.178964
sS'objid'
p215
g8
(g12
S'\xc1\x00\x00\x00\x00\x00\x00\x00'
p216
tp217
Rp218
sa(dp219
S'action'
p220
S'delete'
p221
sS'order'
p222
F1523922282.183578
sS'objid'
p223
g8
(g12
S'\xc0\x00\x00\x00\x00\x00\x00\x00'
p224
tp225
Rp226
sa(dp227
S'action'
p228
S'delete'
p229
sS'order'
p230
F1523922282.187992
sS'objid'
p231
g8
(g12
S'Z\x00\x00\x00\x00\x00\x00\x00'
p232
tp233
Rp234
sa(dp235
S'action'
p236
S'delete'
p237
sS'order'
p238
F1523922282.190643
sS'objid'
p239
g8
(g12
S'Y\x00\x00\x00\x00\x00\x00\x00'
p240
tp241
Rp242
sa(dp243
S'action'
p244
S'delete'
p245
sS'order'
p246
F1523922282.193351
sS'objid'
p247
g8
(g12
S'X\x00\x00\x00\x00\x00\x00\x00'
p248
tp249
Rp250
sa(dp251
S'action'
p252
S'delete'
p253
sS'order'
p254
F1523922282.196069
sS'objid'
p255
g8
(g12
S'V\x00\x00\x00\x00\x00\x00\x00'
p256
tp257
Rp258
sa(dp259
S'action'
p260
S'delete'
p261
sS'order'
p262
F1523922282.199283
sS'objid'
p263
g8
(g12
S'U\x00\x00\x00\x00\x00\x00\x00'
p264
tp265
Rp266
sa(dp267
S'action'
p268
S'delete'
p269
sS'order'
p270
F1523922282.201994
sS'objid'
p271
g8
(g12
S'T\x00\x00\x00\x00\x00\x00\x00'
p272
tp273
Rp274
sa(dp275
S'action'
p276
S'delete'
p277
sS'order'
p278
F1523922282.204779
sS'objid'
p279
g8
(g12
S'S\x00\x00\x00\x00\x00\x00\x00'
p280
tp281
Rp282
sa(dp283
S'action'
p284
S'delete'
p285
sS'order'
p286
F1523922282.207771
sS'objid'
p287
g8
(g12
S'R\x00\x00\x00\x00\x00\x00\x00'
p288
tp289
Rp290
sa(dp291
S'action'
p292
S'delete'
p293
sS'order'
p294
F1523922282.21067
sS'objid'
p295
g8
(g12
S'Q\x00\x00\x00\x00\x00\x00\x00'
p296
tp297
Rp298
sa(dp299
S'action'
p300
S'delete'
p301
sS'order'
p302
F1523922282.213632
sS'objid'
p303
g8
(g12
S'P\x00\x00\x00\x00\x00\x00\x00'
p304
tp305
Rp306
sa(dp307
S'action'
p308
S'delete'
p309
sS'order'
p310
F1523922282.21727
sS'objid'
p311
g8
(g12
S'O\x00\x00\x00\x00\x00\x00\x00'
p312
tp313
Rp314
sa(dp315
S'action'
p316
S'delete'
p317
sS'order'
p318
F1523922282.220353
sS'objid'
p319
g8
(g12
S'N\x00\x00\x00\x00\x00\x00\x00'
p320
tp321
Rp322
sa(dp323
S'action'
p324
S'delete'
p325
sS'order'
p326
F1523922282.223489
sS'objid'
p327
g8
(g12
S'M\x00\x00\x00\x00\x00\x00\x00'
p328
tp329
Rp330
sa(dp331
S'action'
p332
S'delete'
p333
sS'order'
p334
F1523922282.22666
sS'objid'
p335
g8
(g12
S'L\x00\x00\x00\x00\x00\x00\x00'
p336
tp337
Rp338
sa(dp339
S'action'
p340
S'delete'
p341
sS'order'
p342
F1523922282.22991
sS'objid'
p343
g8
(g12
S'K\x00\x00\x00\x00\x00\x00\x00'
p344
tp345
Rp346
sa(dp347
S'action'
p348
S'delete'
p349
sS'order'
p350
F1523922282.233348
sS'objid'
p351
g8
(g12
S'J\x00\x00\x00\x00\x00\x00\x00'
p352
tp353
Rp354
sa(dp355
S'action'
p356
S'delete'
p357
sS'order'
p358
F1523922282.236736
sS'objid'
p359
g8
(g12
S'I\x00\x00\x00\x00\x00\x00\x00'
p360
tp361
Rp362
sa(dp363
S'action'
p364
S'delete'
p365
sS'order'
p366
F1523922282.240187
sS'objid'
p367
g8
(g12
S'H\x00\x00\x00\x00\x00\x00\x00'
p368
tp369
Rp370
sa(dp371
S'action'
p372
S'delete'
p373
sS'order'
p374
F1523922282.243716
sS'objid'
p375
g8
(g12
S'G\x00\x00\x00\x00\x00\x00\x00'
p376
tp377
Rp378
sa(dp379
S'action'
p380
S'delete'
p381
sS'order'
p382
F1523922282.247273
sS'objid'
p383
g8
(g12
S'F\x00\x00\x00\x00\x00\x00\x00'
p384
tp385
Rp386
sa(dp387
S'action'
p388
S'delete'
p389
sS'order'
p390
F1523922282.250912
sS'objid'
p391
g8
(g12
S'E\x00\x00\x00\x00\x00\x00\x00'
p392
tp393
Rp394
sa(dp395
S'action'
p396
S'delete'
p397
sS'order'
p398
F1523922282.254615
sS'objid'
p399
g8
(g12
S'D\x00\x00\x00\x00\x00\x00\x00'
p400
tp401
Rp402
sa(dp403
S'action'
p404
S'delete'
p405
sS'order'
p406
F1523922282.258362
sS'objid'
p407
g8
(g12
S'C\x00\x00\x00\x00\x00\x00\x00'
p408
tp409
Rp410
sa(dp411
S'action'
p412
S'delete'
p413
sS'order'
p414
F1523922282.262177
sS'objid'
p415
g8
(g12
S'B\x00\x00\x00\x00\x00\x00\x00'
p416
tp417
Rp418
sa(dp419
S'action'
p420
S'delete'
p421
sS'order'
p422
F1523922282.266073
sS'objid'
p423
g8
(g12
S'A\x00\x00\x00\x00\x00\x00\x00'
p424
tp425
Rp426
sa(dp427
S'action'
p428
S'delete'
p429
sS'order'
p430
F1523922282.269998
sS'objid'
p431
g8
(g12
S'@\x00\x00\x00\x00\x00\x00\x00'
p432
tp433
Rp434
sa(dp435
S'action'
p436
S'delete'
p437
sS'order'
p438
F1523922282.273984
sS'objid'
p439
g8
(g12
S'?\x00\x00\x00\x00\x00\x00\x00'
p440
tp441
Rp442
sa(dp443
S'action'
p444
S'delete'
p445
sS'order'
p446
F1523922282.278035
sS'objid'
p447
g8
(g12
S'>\x00\x00\x00\x00\x00\x00\x00'
p448
tp449
Rp450
sa(dp451
S'action'
p452
S'delete'
p453
sS'order'
p454
F1523922282.282163
sS'objid'
p455
g8
(g12
S'=\x00\x00\x00\x00\x00\x00\x00'
p456
tp457
Rp458
sa(dp459
S'action'
p460
S'delete'
p461
sS'order'
p462
F1523922282.286381
sS'objid'
p463
g8
(g12
S'<\x00\x00\x00\x00\x00\x00\x00'
p464
tp465
Rp466
sa(dp467
S'action'
p468
S'delete'
p469
sS'order'
p470
F1523922282.290628
sS'objid'
p471
g8
(g12
S';\x00\x00\x00\x00\x00\x00\x00'
p472
tp473
Rp474
sa(dp475
S'action'
p476
S'delete'
p477
sS'order'
p478
F1523922282.294957
sS'objid'
p479
g8
(g12
S':\x00\x00\x00\x00\x00\x00\x00'
p480
tp481
Rp482
sa(dp483
S'action'
p484
S'delete'
p485
sS'order'
p486
F1523922282.299826
sS'objid'
p487
g8
(g12
S'9\x00\x00\x00\x00\x00\x00\x00'
p488
tp489
Rp490
sa(dp491
S'action'
p492
S'delete'
p493
sS'order'
p494
F1523922282.304267
sS'objid'
p495
g8
(g12
S'8\x00\x00\x00\x00\x00\x00\x00'
p496
tp497
Rp498
sa(dp499
S'action'
p500
S'delete'
p501
sS'order'
p502
F1523922282.308751
sS'objid'
p503
g8
(g12
S'7\x00\x00\x00\x00\x00\x00\x00'
p504
tp505
Rp506
sa(dp507
S'action'
p508
S'delete'
p509
sS'order'
p510
F1523922282.313294
sS'objid'
p511
g8
(g12
S'6\x00\x00\x00\x00\x00\x00\x00'
p512
tp513
Rp514
sa(dp515
S'action'
p516
S'delete'
p517
sS'order'
p518
F1523922282.317922
sS'objid'
p519
g8
(g12
S'5\x00\x00\x00\x00\x00\x00\x00'
p520
tp521
Rp522
sa(dp523
S'action'
p524
S'delete'
p525
sS'order'
p526
F1523922282.322593
sS'objid'
p527
g8
(g12
S'4\x00\x00\x00\x00\x00\x00\x00'
p528
tp529
Rp530
sa(dp531
S'action'
p532
S'delete'
p533
sS'order'
p534
F1523922282.327319
sS'objid'
p535
g8
(g12
S'3\x00\x00\x00\x00\x00\x00\x00'
p536
tp537
Rp538
sa(dp539
S'action'
p540
S'delete'
p541
sS'order'
p542
F1523922282.332089
sS'objid'
p543
g8
(g12
S'2\x00\x00\x00\x00\x00\x00\x00'
p544
tp545
Rp546
sa(dp547
S'action'
p548
S'delete'
p549
sS'order'
p550
F1523922282.336932
sS'objid'
p551
g8
(g12
S'1\x00\x00\x00\x00\x00\x00\x00'
p552
tp553
Rp554
sa(dp555
S'action'
p556
S'delete'
p557
sS'order'
p558
F1523922282.341812
sS'objid'
p559
g8
(g12
S'0\x00\x00\x00\x00\x00\x00\x00'
p560
tp561
Rp562
sa(dp563
S'action'
p564
S'delete'
p565
sS'order'
p566
F1523922282.346771
sS'objid'
p567
g8
(g12
S'/\x00\x00\x00\x00\x00\x00\x00'
p568
tp569
Rp570
sa(dp571
S'action'
p572
S'delete'
p573
sS'order'
p574
F1523922282.351791
sS'objid'
p575
g8
(g12
S'.\x00\x00\x00\x00\x00\x00\x00'
p576
tp577
Rp578
sa(dp579
S'action'
p580
S'delete'
p581
sS'order'
p582
F1523922282.356836
sS'objid'
p583
g8
(g12
S'-\x00\x00\x00\x00\x00\x00\x00'
p584
tp585
Rp586
sa(dp587
S'action'
p588
S'delete'
p589
sS'order'
p590
F1523922282.361964
sS'objid'
p591
g8
(g12
S',\x00\x00\x00\x00\x00\x00\x00'
p592
tp593
Rp594
sa(dp595
S'action'
p596
S'delete'
p597
sS'order'
p598
F1523922282.367144
sS'objid'
p599
g8
(g12
S'+\x00\x00\x00\x00\x00\x00\x00'
p600
tp601
Rp602
sa(dp603
S'action'
p604
S'delete'
p605
sS'order'
p606
F1523922282.372383
sS'objid'
p607
g8
(g12
S'*\x00\x00\x00\x00\x00\x00\x00'
p608
tp609
Rp610
sa(dp611
S'action'
p612
S'delete'
p613
sS'order'
p614
F1523922282.377705
sS'objid'
p615
g8
(g12
S')\x00\x00\x00\x00\x00\x00\x00'
p616
tp617
Rp618
sa(dp619
S'action'
p620
S'delete'
p621
sS'order'
p622
F1523922282.383088
sS'objid'
p623
g8
(g12
S'(\x00\x00\x00\x00\x00\x00\x00'
p624
tp625
Rp626
sa(dp627
S'action'
p628
S'delete'
p629
sS'order'
p630
F1523922282.388569
sS'objid'
p631
g8
(g12
S"'\x00\x00\x00\x00\x00\x00\x00"
p632
tp633
Rp634
sa(dp635
S'action'
p636
S'delete'
p637
sS'order'
p638
F1523922282.394073
sS'objid'
p639
g8
(g12
S'&\x00\x00\x00\x00\x00\x00\x00'
p640
tp641
Rp642
sa(dp643
S'action'
p644
S'delete'
p645
sS'order'
p646
F1523922282.400191
sS'objid'
p647
g8
(g12
S'%\x00\x00\x00\x00\x00\x00\x00'
p648
tp649
Rp650
sa(dp651
S'action'
p652
S'delete'
p653
sS'order'
p654
F1523922282.405808
sS'objid'
p655
g8
(g12
S'$\x00\x00\x00\x00\x00\x00\x00'
p656
tp657
Rp658
sa(dp659
S'action'
p660
S'delete'
p661
sS'order'
p662
F1523922282.411541
sS'objid'
p663
g8
(g12
S'#\x00\x00\x00\x00\x00\x00\x00'
p664
tp665
Rp666
sa(dp667
S'action'
p668
S'delete'
p669
sS'order'
p670
F1523922282.417283
sS'objid'
p671
g8
(g12
S'"\x00\x00\x00\x00\x00\x00\x00'
p672
tp673
Rp674
sa(dp675
S'action'
p676
S'delete'
p677
sS'order'
p678
F1523922282.423057
sS'objid'
p679
g8
(g12
S'!\x00\x00\x00\x00\x00\x00\x00'
p680
tp681
Rp682
sa(dp683
S'action'
p684
S'delete'
p685
sS'order'
p686
F1523922282.428929
sS'objid'
p687
g8
(g12
S' \x00\x00\x00\x00\x00\x00\x00'
p688
tp689
Rp690
sa(dp691
S'action'
p692
S'delete'
p693
sS'order'
p694
F1523922282.434839
sS'objid'
p695
g8
(g12
S'\x1f\x00\x00\x00\x00\x00\x00\x00'
p696
tp697
Rp698
sa(dp699
S'action'
p700
S'delete'
p701
sS'order'
p702
F1523922282.440812
sS'objid'
p703
g8
(g12
S'\x1e\x00\x00\x00\x00\x00\x00\x00'
p704
tp705
Rp706
sa(dp707
S'action'
p708
S'delete'
p709
sS'order'
p710
F1523922282.446841
sS'objid'
p711
g8
(g12
S'\x1d\x00\x00\x00\x00\x00\x00\x00'
p712
tp713
Rp714
sa(dp715
S'action'
p716
S'delete'
p717
sS'order'
p718
F1523922282.452927
sS'objid'
p719
g8
(g12
S'\x1c\x00\x00\x00\x00\x00\x00\x00'
p720
tp721
Rp722
sa(dp723
S'action'
p724
S'delete'
p725
sS'order'
p726
F1523922282.459068
sS'objid'
p727
g8
(g12
S'\x1b\x00\x00\x00\x00\x00\x00\x00'
p728
tp729
Rp730
sa(dp731
S'action'
p732
S'delete'
p733
sS'order'
p734
F1523922282.465303
sS'objid'
p735
g8
(g12
S'\x1a\x00\x00\x00\x00\x00\x00\x00'
p736
tp737
Rp738
sa(dp739
S'action'
p740
S'delete'
p741
sS'order'
p742
F1523922282.47158
sS'objid'
p743
g8
(g12
S'\x19\x00\x00\x00\x00\x00\x00\x00'
p744
tp745
Rp746
sa(dp747
S'action'
p748
S'delete'
p749
sS'order'
p750
F1523922282.477903
sS'objid'
p751
g8
(g12
S'\x18\x00\x00\x00\x00\x00\x00\x00'
p752
tp753
Rp754
sa(dp755
S'action'
p756
S'delete'
p757
sS'order'
p758
F1523922282.484317
sS'objid'
p759
g8
(g12
S'\x17\x00\x00\x00\x00\x00\x00\x00'
p760
tp761
Rp762
sa(dp763
S'action'
p764
S'delete'
p765
sS'order'
p766
F1523922282.490809
sS'objid'
p767
g8
(g12
S'\x16\x00\x00\x00\x00\x00\x00\x00'
p768
tp769
Rp770
sa(dp771
S'action'
p772
S'delete'
p773
sS'order'
p774
F1523922282.497347
sS'objid'
p775
g8
(g12
S'\x15\x00\x00\x00\x00\x00\x00\x00'
p776
tp777
Rp778
sa(dp779
S'action'
p780
S'delete'
p781
sS'order'
p782
F1523922282.504511
sS'objid'
p783
g8
(g12
S'\x14\x00\x00\x00\x00\x00\x00\x00'
p784
tp785
Rp786
sa(dp787
S'action'
p788
S'delete'
p789
sS'order'
p790
F1523922282.511166
sS'objid'
p791
g8
(g12
S'\x13\x00\x00\x00\x00\x00\x00\x00'
p792
tp793
Rp794
sa(dp795
S'action'
p796
S'delete'
p797
sS'order'
p798
F1523922282.517852
sS'objid'
p799
g8
(g12
S'\x12\x00\x00\x00\x00\x00\x00\x00'
p800
tp801
Rp802
sa(dp803
S'action'
p804
S'delete'
p805
sS'order'
p806
F1523922282.524698
sS'objid'
p807
g8
(g12
S'\x11\x00\x00\x00\x00\x00\x00\x00'
p808
tp809
Rp810
sa(dp811
S'action'
p812
S'delete'
p813
sS'order'
p814
F1523922282.53152
sS'objid'
p815
g8
(g12
S'\x10\x00\x00\x00\x00\x00\x00\x00'
p816
tp817
Rp818
sa(dp819
S'action'
p820
S'delete'
p821
sS'order'
p822
F1523922282.53837
sS'objid'
p823
g8
(g12
S'\x0f\x00\x00\x00\x00\x00\x00\x00'
p824
tp825
Rp826
sa(dp827
S'action'
p828
S'delete'
p829
sS'order'
p830
F1523922282.545355
sS'objid'
p831
g8
(g12
S'\x0e\x00\x00\x00\x00\x00\x00\x00'
p832
tp833
Rp834
sa(dp835
S'action'
p836
S'delete'
p837
sS'order'
p838
F1523922282.55233
sS'objid'
p839
g8
(g12
S'\r\x00\x00\x00\x00\x00\x00\x00'
p840
tp841
Rp842
sa(dp843
S'action'
p844
S'delete'
p845
sS'order'
p846
F1523922282.559376
sS'objid'
p847
g8
(g12
S'\x0c\x00\x00\x00\x00\x00\x00\x00'
p848
tp849
Rp850
sa(dp851
S'action'
p852
S'delete'
p853
sS'order'
p854
F1523922282.566505
sS'objid'
p855
g8
(g12
S'\x0b\x00\x00\x00\x00\x00\x00\x00'
p856
tp857
Rp858
sa(dp859
S'action'
p860
S'delete'
p861
sS'order'
p862
F1523922282.573675
sS'objid'
p863
g8
(g12
S'\n\x00\x00\x00\x00\x00\x00\x00'
p864
tp865
Rp866
sa(dp867
S'action'
p868
S'delete'
p869
sS'order'
p870
F1523922282.58088
sS'objid'
p871
g8
(g12
S'\t\x00\x00\x00\x00\x00\x00\x00'
p872
tp873
Rp874
sa(dp875
S'action'
p876
S'delete'
p877
sS'order'
p878
F1523922282.58819
sS'objid'
p879
g8
(g12
S'\x08\x00\x00\x00\x00\x00\x00\x00'
p880
tp881
Rp882
sa(dp883
S'action'
p884
S'delete'
p885
sS'order'
p886
F1523922282.595571
sS'objid'
p887
g8
(g12
S'\x07\x00\x00\x00\x00\x00\x00\x00'
p888
tp889
Rp890
sa(dp891
S'action'
p892
S'delete'
p893
sS'order'
p894
F1523922282.603473
sS'objid'
p895
g8
(g12
S'\x06\x00\x00\x00\x00\x00\x00\x00'
p896
tp897
Rp898
sa(dp899
S'action'
p900
S'delete'
p901
sS'order'
p902
F1523922282.611
sS'objid'
p903
g8
(g12
S'\x05\x00\x00\x00\x00\x00\x00\x00'
p904
tp905
Rp906
sa(dp907
S'action'
p908
S'delete'
p909
sS'order'
p910
F1523922282.618524
sS'objid'
p911
g8
(g12
S'\x04\x00\x00\x00\x00\x00\x00\x00'
p912
tp913
Rp914
sa(dp915
S'action'
p916
S'delete'
p917
sS'order'
p918
F1523922282.626174
sS'objid'
p919
g8
(g12
S'\x03\x00\x00\x00\x00\x00\x00\x00'
p920
tp921
Rp922
sa(dp923
S'action'
p924
S'delete'
p925
sS'order'
p926
F1523922282.633811
sS'objid'
p927
g8
(g12
S'\x01\x00\x00\x00\x00\x00\x00\x00'
p928
tp929
Rp930
sa(dp931
S'action'
p932
S'delete'
p933
sS'order'
p934
F1523922292.096869
sS'objid'
p935
g8
(g12
S'\x93\x00\x00\x00\x00\x00\x00\x00'
p936
tp937
Rp938
sa(dp939
S'action'
p940
S'delete'
p941
sS'order'
p942
F1523922292.109584
sS'objid'
p943
g8
(g12
S'\x92\x00\x00\x00\x00\x00\x00\x00'
p944
tp945
Rp946
sa(dp947
S'action'
p948
S'delete'
p949
sS'order'
p950
F1523922292.117777
sS'objid'
p951
g8
(g12
S'\x91\x00\x00\x00\x00\x00\x00\x00'
p952
tp953
Rp954
sa(dp955
S'action'
p956
S'delete'
p957
sS'order'
p958
F1523922292.126205
sS'objid'
p959
g8
(g12
S'\x90\x00\x00\x00\x00\x00\x00\x00'
p960
tp961
Rp962
sa(dp963
S'action'
p964
S'delete'
p965
sS'order'
p966
F1523922292.13484
sS'objid'
p967
g8
(g12
S'\x8f\x00\x00\x00\x00\x00\x00\x00'
p968
tp969
Rp970
sa(dp971
S'action'
p972
S'delete'
p973
sS'order'
p974
F1523922292.142832
sS'objid'
p975
g8
(g12
S'\x8e\x00\x00\x00\x00\x00\x00\x00'
p976
tp977
Rp978
sa(dp979
S'action'
p980
S'delete'
p981
sS'order'
p982
F1523922292.1509
sS'objid'
p983
g8
(g12
S'\x8d\x00\x00\x00\x00\x00\x00\x00'
p984
tp985
Rp986
sa(dp987
S'action'
p988
S'delete'
p989
sS'order'
p990
F1523922292.158975
sS'objid'
p991
g8
(g12
S'\x8c\x00\x00\x00\x00\x00\x00\x00'
p992
tp993
Rp994
sa(dp995
S'action'
p996
S'delete'
p997
sS'order'
p998
F1523922292.167134
sS'objid'
p999
g8
(g12
S'\x8b\x00\x00\x00\x00\x00\x00\x00'
p1000
tp1001
Rp1002
sa(dp1003
S'action'
p1004
S'delete'
p1005
sS'order'
p1006
F1523922292.175327
sS'objid'
p1007
g8
(g12
S'\x8a\x00\x00\x00\x00\x00\x00\x00'
p1008
tp1009
Rp1010
sa(dp1011
S'action'
p1012
S'delete'
p1013
sS'order'
p1014
F1523922292.183638
sS'objid'
p1015
g8
(g12
S'\x89\x00\x00\x00\x00\x00\x00\x00'
p1016
tp1017
Rp1018
sa(dp1019
S'action'
p1020
S'delete'
p1021
sS'order'
p1022
F1523922292.192104
sS'objid'
p1023
g8
(g12
S'\x88\x00\x00\x00\x00\x00\x00\x00'
p1024
tp1025
Rp1026
sa(dp1027
S'action'
p1028
S'delete'
p1029
sS'order'
p1030
F1523922292.201028
sS'objid'
p1031
g8
(g12
S'\x87\x00\x00\x00\x00\x00\x00\x00'
p1032
tp1033
Rp1034
sa(dp1035
S'action'
p1036
S'delete'
p1037
sS'order'
p1038
F1523922292.209475
sS'objid'
p1039
g8
(g12
S'\x86\x00\x00\x00\x00\x00\x00\x00'
p1040
tp1041
Rp1042
sa(dp1043
S'action'
p1044
S'delete'
p1045
sS'order'
p1046
F1523922292.218055
sS'objid'
p1047
g8
(g12
S'\x85\x00\x00\x00\x00\x00\x00\x00'
p1048
tp1049
Rp1050
sa(dp1051
S'action'
p1052
S'delete'
p1053
sS'order'
p1054
F1523922292.22662
sS'objid'
p1055
g8
(g12
S'\x84\x00\x00\x00\x00\x00\x00\x00'
p1056
tp1057
Rp1058
sa(dp1059
S'action'
p1060
S'delete'
p1061
sS'order'
p1062
F1523922292.235234
sS'objid'
p1063
g8
(g12
S'\x83\x00\x00\x00\x00\x00\x00\x00'
p1064
tp1065
Rp1066
sa(dp1067
S'action'
p1068
S'delete'
p1069
sS'order'
p1070
F1523922292.243925
sS'objid'
p1071
g8
(g12
S'\x82\x00\x00\x00\x00\x00\x00\x00'
p1072
tp1073
Rp1074
sa(dp1075
S'action'
p1076
S'delete'
p1077
sS'order'
p1078
F1523922292.252712
sS'objid'
p1079
g8
(g12
S'\x81\x00\x00\x00\x00\x00\x00\x00'
p1080
tp1081
Rp1082
sa(dp1083
S'action'
p1084
S'delete'
p1085
sS'order'
p1086
F1523922292.261543
sS'objid'
p1087
g8
(g12
S'\x80\x00\x00\x00\x00\x00\x00\x00'
p1088
tp1089
Rp1090
sa(dp1091
S'action'
p1092
S'delete'
p1093
sS'order'
p1094
F1523922292.270454
sS'objid'
p1095
g8
(g12
S'\x7f\x00\x00\x00\x00\x00\x00\x00'
p1096
tp1097
Rp1098
sa(dp1099
S'action'
p1100
S'delete'
p1101
sS'order'
p1102
F1523922292.279357
sS'objid'
p1103
g8
(g12
S'~\x00\x00\x00\x00\x00\x00\x00'
p1104
tp1105
Rp1106
sa(dp1107
S'action'
p1108
S'delete'
p1109
sS'order'
p1110
F1523922292.288465
sS'objid'
p1111
g8
(g12
S'}\x00\x00\x00\x00\x00\x00\x00'
p1112
tp1113
Rp1114
sa(dp1115
S'action'
p1116
S'delete'
p1117
sS'order'
p1118
F1523922292.297652
sS'objid'
p1119
g8
(g12
S'|\x00\x00\x00\x00\x00\x00\x00'
p1120
tp1121
Rp1122
sa(dp1123
S'action'
p1124
S'delete'
p1125
sS'order'
p1126
F1523922292.307308
sS'objid'
p1127
g8
(g12
S'{\x00\x00\x00\x00\x00\x00\x00'
p1128
tp1129
Rp1130
sa(dp1131
S'action'
p1132
S'delete'
p1133
sS'order'
p1134
F1523922292.316525
sS'objid'
p1135
g8
(g12
S'z\x00\x00\x00\x00\x00\x00\x00'
p1136
tp1137
Rp1138
sa(dp1139
S'action'
p1140
S'delete'
p1141
sS'order'
p1142
F1523922292.325807
sS'objid'
p1143
g8
(g12
S'y\x00\x00\x00\x00\x00\x00\x00'
p1144
tp1145
Rp1146
sa(dp1147
S'action'
p1148
S'delete'
p1149
sS'order'
p1150
F1523922292.335092
sS'objid'
p1151
g8
(g12
S'x\x00\x00\x00\x00\x00\x00\x00'
p1152
tp1153
Rp1154
sa(dp1155
S'action'
p1156
S'delete'
p1157
sS'order'
p1158
F1523922292.344473
sS'objid'
p1159
g8
(g12
S'w\x00\x00\x00\x00\x00\x00\x00'
p1160
tp1161
Rp1162
sa(dp1163
S'action'
p1164
S'delete'
p1165
sS'order'
p1166
F1523922292.353891
sS'objid'
p1167
g8
(g12
S'v\x00\x00\x00\x00\x00\x00\x00'
p1168
tp1169
Rp1170
sa(dp1171
S'action'
p1172
S'delete'
p1173
sS'order'
p1174
F1523922292.363322
sS'objid'
p1175
g8
(g12
S'u\x00\x00\x00\x00\x00\x00\x00'
p1176
tp1177
Rp1178
sa(dp1179
S'action'
p1180
S'delete'
p1181
sS'order'
p1182
F1523922292.372861
sS'objid'
p1183
g8
(g12
S't\x00\x00\x00\x00\x00\x00\x00'
p1184
tp1185
Rp1186
sa(dp1187
S'action'
p1188
S'delete'
p1189
sS'order'
p1190
F1523922292.382487
sS'objid'
p1191
g8
(g12
S's\x00\x00\x00\x00\x00\x00\x00'
p1192
tp1193
Rp1194
sa(dp1195
S'action'
p1196
S'delete'
p1197
sS'order'
p1198
F1523922292.392169
sS'objid'
p1199
g8
(g12
S'r\x00\x00\x00\x00\x00\x00\x00'
p1200
tp1201
Rp1202
sa(dp1203
S'action'
p1204
S'delete'
p1205
sS'order'
p1206
F1523922292.402498
sS'objid'
p1207
g8
(g12
S'q\x00\x00\x00\x00\x00\x00\x00'
p1208
tp1209
Rp1210
sa(dp1211
S'action'
p1212
S'delete'
p1213
sS'order'
p1214
F1523922292.412349
sS'objid'
p1215
g8
(g12
S'p\x00\x00\x00\x00\x00\x00\x00'
p1216
tp1217
Rp1218
sa(dp1219
S'action'
p1220
S'delete'
p1221
sS'order'
p1222
F1523922292.422251
sS'objid'
p1223
g8
(g12
S'o\x00\x00\x00\x00\x00\x00\x00'
p1224
tp1225
Rp1226
sa(dp1227
S'action'
p1228
S'delete'
p1229
sS'order'
p1230
F1523922292.432204
sS'objid'
p1231
g8
(g12
S'n\x00\x00\x00\x00\x00\x00\x00'
p1232
tp1233
Rp1234
sa(dp1235
S'action'
p1236
S'delete'
p1237
sS'order'
p1238
F1523922292.44219
sS'objid'
p1239
g8
(g12
S'm\x00\x00\x00\x00\x00\x00\x00'
p1240
tp1241
Rp1242
sa(dp1243
S'action'
p1244
S'delete'
p1245
sS'order'
p1246
F1523922292.452241
sS'objid'
p1247
g8
(g12
S'l\x00\x00\x00\x00\x00\x00\x00'
p1248
tp1249
Rp1250
sa(dp1251
S'action'
p1252
S'delete'
p1253
sS'order'
p1254
F1523922292.462322
sS'objid'
p1255
g8
(g12
S'k\x00\x00\x00\x00\x00\x00\x00'
p1256
tp1257
Rp1258
sa(dp1259
S'action'
p1260
S'delete'
p1261
sS'order'
p1262
F1523922292.472453
sS'objid'
p1263
g8
(g12
S'j\x00\x00\x00\x00\x00\x00\x00'
p1264
tp1265
Rp1266
sa(dp1267
S'action'
p1268
S'delete'
p1269
sS'order'
p1270
F1523922292.48263
sS'objid'
p1271
g8
(g12
S'i\x00\x00\x00\x00\x00\x00\x00'
p1272
tp1273
Rp1274
sa(dp1275
S'action'
p1276
S'delete'
p1277
sS'order'
p1278
F1523922292.492962
sS'objid'
p1279
g8
(g12
S'h\x00\x00\x00\x00\x00\x00\x00'
p1280
tp1281
Rp1282
sa(dp1283
S'action'
p1284
S'delete'
p1285
sS'order'
p1286
F1523922292.50395
sS'objid'
p1287
g8
(g12
S'g\x00\x00\x00\x00\x00\x00\x00'
p1288
tp1289
Rp1290
sa(dp1291
S'action'
p1292
S'delete'
p1293
sS'order'
p1294
F1523922292.514343
sS'objid'
p1295
g8
(g12
S'f\x00\x00\x00\x00\x00\x00\x00'
p1296
tp1297
Rp1298
sa(dp1299
S'action'
p1300
S'delete'
p1301
sS'order'
p1302
F1523922292.524796
sS'objid'
p1303
g8
(g12
S'e\x00\x00\x00\x00\x00\x00\x00'
p1304
tp1305
Rp1306
sa(dp1307
S'action'
p1308
S'delete'
p1309
sS'order'
p1310
F1523922292.53534
sS'objid'
p1311
g8
(g12
S'd\x00\x00\x00\x00\x00\x00\x00'
p1312
tp1313
Rp1314
sa(dp1315
S'action'
p1316
S'delete'
p1317
sS'order'
p1318
F1523922292.545867
sS'objid'
p1319
g8
(g12
S'c\x00\x00\x00\x00\x00\x00\x00'
p1320
tp1321
Rp1322
sa(dp1323
S'action'
p1324
S'delete'
p1325
sS'order'
p1326
F1523922292.55657
sS'objid'
p1327
g8
(g12
S'a\x00\x00\x00\x00\x00\x00\x00'
p1328
tp1329
Rp1330
sa(dp1331
S'action'
p1332
S'delete'
p1333
sS'order'
p1334
F1523922292.567305
sS'objid'
p1335
g8
(g12
S'`\x00\x00\x00\x00\x00\x00\x00'
p1336
tp1337
Rp1338
sa(dp1339
S'action'
p1340
S'delete'
p1341
sS'order'
p1342
F1523922292.578004
sS'objid'
p1343
g8
(g12
S'_\x00\x00\x00\x00\x00\x00\x00'
p1344
tp1345
Rp1346
sa(dp1347
S'action'
p1348
S'delete'
p1349
sS'order'
p1350
F1523922292.588802
sS'objid'
p1351
g8
(g12
S'^\x00\x00\x00\x00\x00\x00\x00'
p1352
tp1353
Rp1354
sa(dp1355
S'action'
p1356
S'delete'
p1357
sS'order'
p1358
F1523922292.599777
sS'objid'
p1359
g8
(g12
S']\x00\x00\x00\x00\x00\x00\x00'
p1360
tp1361
Rp1362
sa(dp1363
S'action'
p1364
S'delete'
p1365
sS'order'
p1366
F1523922292.611228
sS'objid'
p1367
g8
(g12
S'\\\x00\x00\x00\x00\x00\x00\x00'
p1368
tp1369
Rp1370
sa(dp1371
S'action'
p1372
S'delete'
p1373
sS'order'
p1374
F1523922292.622242
sS'objid'
p1375
g8
(g12
S'[\x00\x00\x00\x00\x00\x00\x00'
p1376
tp1377
Rp1378
sa(dp1379
S'action'
p1380
S'delete'
p1381
sS'order'
p1382
F1523922299.951147
sS'objid'
p1383
g8
(g12
S'\xb3\x00\x00\x00\x00\x00\x00\x00'
p1384
tp1385
Rp1386
sa(dp1387
S'action'
p1388
S'delete'
p1389
sS'order'
p1390
F1523922299.966449
sS'objid'
p1391
g8
(g12
S'\xb2\x00\x00\x00\x00\x00\x00\x00'
p1392
tp1393
Rp1394
sa(dp1395
S'action'
p1396
S'delete'
p1397
sS'order'
p1398
F1523922299.97818
sS'objid'
p1399
g8
(g12
S'\xb1\x00\x00\x00\x00\x00\x00\x00'
p1400
tp1401
Rp1402
sa(dp1403
S'action'
p1404
S'delete'
p1405
sS'order'
p1406
F1523922299.989745
sS'objid'
p1407
g8
(g12
S'\xb0\x00\x00\x00\x00\x00\x00\x00'
p1408
tp1409
Rp1410
sa(dp1411
S'action'
p1412
S'delete'
p1413
sS'order'
p1414
F1523922300.001688
sS'objid'
p1415
g8
(g12
S'\xaf\x00\x00\x00\x00\x00\x00\x00'
p1416
tp1417
Rp1418
sa(dp1419
S'action'
p1420
S'delete'
p1421
sS'order'
p1422
F1523922300.013132
sS'objid'
p1423
g8
(g12
S'\xae\x00\x00\x00\x00\x00\x00\x00'
p1424
tp1425
Rp1426
sa(dp1427
S'action'
p1428
S'delete'
p1429
sS'order'
p1430
F1523922300.024614
sS'objid'
p1431
g8
(g12
S'\xad\x00\x00\x00\x00\x00\x00\x00'
p1432
tp1433
Rp1434
sa(dp1435
S'action'
p1436
S'delete'
p1437
sS'order'
p1438
F1523922300.036288
sS'objid'
p1439
g8
(g12
S'\xac\x00\x00\x00\x00\x00\x00\x00'
p1440
tp1441
Rp1442
sa(dp1443
S'action'
p1444
S'delete'
p1445
sS'order'
p1446
F1523922300.048575
sS'objid'
p1447
g8
(g12
S'\xab\x00\x00\x00\x00\x00\x00\x00'
p1448
tp1449
Rp1450
sa(dp1451
S'action'
p1452
S'delete'
p1453
sS'order'
p1454
F1523922300.060265
sS'objid'
p1455
g8
(g12
S'\xaa\x00\x00\x00\x00\x00\x00\x00'
p1456
tp1457
Rp1458
sa(dp1459
S'action'
p1460
S'delete'
p1461
sS'order'
p1462
F1523922300.072017
sS'objid'
p1463
g8
(g12
S'\xa9\x00\x00\x00\x00\x00\x00\x00'
p1464
tp1465
Rp1466
sa(dp1467
S'action'
p1468
S'delete'
p1469
sS'order'
p1470
F1523922300.08499
sS'objid'
p1471
g8
(g12
S'\xa8\x00\x00\x00\x00\x00\x00\x00'
p1472
tp1473
Rp1474
sa(dp1475
S'action'
p1476
S'delete'
p1477
sS'order'
p1478
F1523922300.097801
sS'objid'
p1479
g8
(g12
S'\xa7\x00\x00\x00\x00\x00\x00\x00'
p1480
tp1481
Rp1482
sa(dp1483
S'action'
p1484
S'delete'
p1485
sS'order'
p1486
F1523922300.110834
sS'objid'
p1487
g8
(g12
S'\xa6\x00\x00\x00\x00\x00\x00\x00'
p1488
tp1489
Rp1490
sa(dp1491
S'action'
p1492
S'delete'
p1493
sS'order'
p1494
F1523922300.122793
sS'objid'
p1495
g8
(g12
S'\xa5\x00\x00\x00\x00\x00\x00\x00'
p1496
tp1497
Rp1498
sa(dp1499
S'action'
p1500
S'delete'
p1501
sS'order'
p1502
F1523922300.135075
sS'objid'
p1503
g8
(g12
S'\xa4\x00\x00\x00\x00\x00\x00\x00'
p1504
tp1505
Rp1506
sa(dp1507
S'action'
p1508
S'delete'
p1509
sS'order'
p1510
F1523922300.147748
sS'objid'
p1511
g8
(g12
S'\xa3\x00\x00\x00\x00\x00\x00\x00'
p1512
tp1513
Rp1514
sa(dp1515
S'action'
p1516
S'delete'
p1517
sS'order'
p1518
F1523922300.159951
sS'objid'
p1519
g8
(g12
S'\xa2\x00\x00\x00\x00\x00\x00\x00'
p1520
tp1521
Rp1522
sa(dp1523
S'action'
p1524
S'delete'
p1525
sS'order'
p1526
F1523922300.172146
sS'objid'
p1527
g8
(g12
S'\xa1\x00\x00\x00\x00\x00\x00\x00'
p1528
tp1529
Rp1530
sa(dp1531
S'action'
p1532
S'delete'
p1533
sS'order'
p1534
F1523922300.184418
sS'objid'
p1535
g8
(g12
S'\xa0\x00\x00\x00\x00\x00\x00\x00'
p1536
tp1537
Rp1538
sa(dp1539
S'action'
p1540
S'delete'
p1541
sS'order'
p1542
F1523922300.19683
sS'objid'
p1543
g8
(g12
S'\x9e\x00\x00\x00\x00\x00\x00\x00'
p1544
tp1545
Rp1546
sa(dp1547
S'action'
p1548
S'delete'
p1549
sS'order'
p1550
F1523922300.209248
sS'objid'
p1551
g8
(g12
S'\x9d\x00\x00\x00\x00\x00\x00\x00'
p1552
tp1553
Rp1554
sa(dp1555
S'action'
p1556
S'delete'
p1557
sS'order'
p1558
F1523922300.221646
sS'objid'
p1559
g8
(g12
S'\x9c\x00\x00\x00\x00\x00\x00\x00'
p1560
tp1561
Rp1562
sa(dp1563
S'action'
p1564
S'delete'
p1565
sS'order'
p1566
F1523922300.234245
sS'objid'
p1567
g8
(g12
S'\x9b\x00\x00\x00\x00\x00\x00\x00'
p1568
tp1569
Rp1570
sa(dp1571
S'action'
p1572
S'delete'
p1573
sS'order'
p1574
F1523922300.247465
sS'objid'
p1575
g8
(g12
S'\x9a\x00\x00\x00\x00\x00\x00\x00'
p1576
tp1577
Rp1578
sa(dp1579
S'action'
p1580
S'delete'
p1581
sS'order'
p1582
F1523922300.260134
sS'objid'
p1583
g8
(g12
S'\x99\x00\x00\x00\x00\x00\x00\x00'
p1584
tp1585
Rp1586
sa(dp1587
S'action'
p1588
S'delete'
p1589
sS'order'
p1590
F1523922300.273362
sS'objid'
p1591
g8
(g12
S'\x98\x00\x00\x00\x00\x00\x00\x00'
p1592
tp1593
Rp1594
sa(dp1595
S'action'
p1596
S'delete'
p1597
sS'order'
p1598
F1523922300.286173
sS'objid'
p1599
g8
(g12
S'\x97\x00\x00\x00\x00\x00\x00\x00'
p1600
tp1601
Rp1602
sa(dp1603
S'action'
p1604
S'delete'
p1605
sS'order'
p1606
F1523922300.298954
sS'objid'
p1607
g8
(g12
S'\x96\x00\x00\x00\x00\x00\x00\x00'
p1608
tp1609
Rp1610
sa(dp1611
S'action'
p1612
S'delete'
p1613
sS'order'
p1614
F1523922300.311828
sS'objid'
p1615
g8
(g12
S'\x95\x00\x00\x00\x00\x00\x00\x00'
p1616
tp1617
Rp1618
sa(dp1619
S'action'
p1620
S'delete'
p1621
sS'order'
p1622
F1523922300.324811
sS'objid'
p1623
g8
(g12
S'\x94\x00\x00\x00\x00\x00\x00\x00'
p1624
tp1625
Rp1626
sa.