(lp0
(dp1
S'action'
p2
S'join'
p3
sS'data_to_add'
p4
(lp5
sS'order'
p6
F1523899120.881679
sS'new_objid'
p7
cnumpy.core.multiarray
scalar
p8
(cnumpy
dtype
p9
(S'i8'
p10
I0
I1
tp11
Rp12
(I3
S'<'
p13
NNNI-1
I-1
I0
tp14
bS'\x14\x00\x00\x00\x00\x00\x00\x00'
p15
tp16
Rp17
sS'objids'
p18
(lp19
g8
(g12
S'\x00\x00\x00\x00\x00\x00\x00\x00'
p20
tp21
Rp22
ag8
(g12
S'\x08\x00\x00\x00\x00\x00\x00\x00'
p23
tp24
Rp25
asa(dp26
S'action'
p27
S'delete'
p28
sS'order'
p29
F1523899126.513513
sS'objid'
p30
g8
(g12
S'\t\x00\x00\x00\x00\x00\x00\x00'
p31
tp32
Rp33
sa(dp34
S'action'
p35
S'delete'
p36
sS'order'
p37
F1523899126.514624
sS'objid'
p38
g8
(g12
S'\x07\x00\x00\x00\x00\x00\x00\x00'
p39
tp40
Rp41
sa(dp42
S'action'
p43
S'delete'
p44
sS'order'
p45
F1523899126.515544
sS'objid'
p46
g8
(g12
S'\x06\x00\x00\x00\x00\x00\x00\x00'
p47
tp48
Rp49
sa(dp50
S'action'
p51
S'delete'
p52
sS'order'
p53
F1523899126.516502
sS'objid'
p54
g8
(g12
S'\x05\x00\x00\x00\x00\x00\x00\x00'
p55
tp56
Rp57
sa(dp58
S'action'
p59
S'delete'
p60
sS'order'
p61
F1523899126.517506
sS'objid'
p62
g8
(g12
S'\x04\x00\x00\x00\x00\x00\x00\x00'
p63
tp64
Rp65
sa(dp66
S'action'
p67
S'delete'
p68
sS'order'
p69
F1523899126.518563
sS'objid'
p70
g8
(g12
S'\x03\x00\x00\x00\x00\x00\x00\x00'
p71
tp72
Rp73
sa(dp74
S'action'
p75
S'delete'
p76
sS'order'
p77
F1523899126.519691
sS'objid'
p78
g8
(g12
S'\x02\x00\x00\x00\x00\x00\x00\x00'
p79
tp80
Rp81
sa(dp82
S'action'
p83
S'delete'
p84
sS'order'
p85
F1523899126.520873
sS'objid'
p86
g8
(g12
S'\x01\x00\x00\x00\x00\x00\x00\x00'
p87
tp88
Rp89
sa.