(lp0
(dp1
S'action'
p2
S'join'
p3
sS'data_to_add'
p4
(lp5
sS'order'
p6
F1523982304.658332
sS'new_objid'
p7
cnumpy.core.multiarray
scalar
p8
(cnumpy
dtype
p9
(S'i8'
p10
I0
I1
tp11
Rp12
(I3
S'<'
p13
NNNI-1
I-1
I0
tp14
bS'\x10\x01\x00\x00\x00\x00\x00\x00'
p15
tp16
Rp17
sS'objids'
p18
(lp19
g8
(g12
S'\x02\x00\x00\x00\x00\x00\x00\x00'
p20
tp21
Rp22
ag8
(g12
S'\x00\x00\x00\x00\x00\x00\x00\x00'
p23
tp24
Rp25
asa(dp26
g2
g3
sg4
(lp27
sg6
F1523982315.806711
sg7
g8
(g12
S'\x11\x01\x00\x00\x00\x00\x00\x00'
p28
tp29
Rp30
sg18
(lp31
g8
(g12
S'\x03\x00\x00\x00\x00\x00\x00\x00'
p32
tp33
Rp34
ag8
(g12
S'\x10\x01\x00\x00\x00\x00\x00\x00'
p35
tp36
Rp37
ag8
(g12
S'\x04\x00\x00\x00\x00\x00\x00\x00'
p38
tp39
Rp40
ag8
(g12
S'\x05\x00\x00\x00\x00\x00\x00\x00'
p41
tp42
Rp43
asa(dp44
S'action'
p45
S'join'
p46
sS'data_to_add'
p47
(lp48
sS'order'
p49
F1523982346.28729
sS'new_objid'
p50
g8
(g12
S'\x13\x01\x00\x00\x00\x00\x00\x00'
p51
tp52
Rp53
sS'objids'
p54
(lp55
g8
(g12
S'\x07\x00\x00\x00\x00\x00\x00\x00'
p56
tp57
Rp58
ag8
(g12
S'\x06\x00\x00\x00\x00\x00\x00\x00'
p59
tp60
Rp61
ag8
(g12
S'\n\x00\x00\x00\x00\x00\x00\x00'
p62
tp63
Rp64
ag8
(g12
S'\x11\x01\x00\x00\x00\x00\x00\x00'
p65
tp66
Rp67
ag8
(g12
S'\x10\x00\x00\x00\x00\x00\x00\x00'
p68
tp69
Rp70
ag8
(g12
S'\x0e\x00\x00\x00\x00\x00\x00\x00'
p71
tp72
Rp73
asa(dp74
S'action'
p75
S'join'
p76
sS'data_to_add'
p77
(lp78
sS'order'
p79
F1523982358.367405
sS'new_objid'
p80
g8
(g12
S'\x14\x01\x00\x00\x00\x00\x00\x00'
p81
tp82
Rp83
sS'objids'
p84
(lp85
g8
(g12
S')\x00\x00\x00\x00\x00\x00\x00'
p86
tp87
Rp88
ag8
(g12
S'\x1c\x00\x00\x00\x00\x00\x00\x00'
p89
tp90
Rp91
ag8
(g12
S"'\x00\x00\x00\x00\x00\x00\x00"
p92
tp93
Rp94
ag8
(g12
S'\x13\x01\x00\x00\x00\x00\x00\x00'
p95
tp96
Rp97
ag8
(g12
S'!\x00\x00\x00\x00\x00\x00\x00'
p98
tp99
Rp100
asa(dp101
S'action'
p102
S'join'
p103
sS'data_to_add'
p104
(lp105
sS'order'
p106
F1523982369.647843
sS'new_objid'
p107
g8
(g12
S'\x15\x01\x00\x00\x00\x00\x00\x00'
p108
tp109
Rp110
sS'objids'
p111
(lp112
g8
(g12
S'\x14\x01\x00\x00\x00\x00\x00\x00'
p113
tp114
Rp115
ag8
(g12
S';\x00\x00\x00\x00\x00\x00\x00'
p116
tp117
Rp118
ag8
(g12
S'4\x00\x00\x00\x00\x00\x00\x00'
p119
tp120
Rp121
ag8
(g12
S'@\x00\x00\x00\x00\x00\x00\x00'
p122
tp123
Rp124
asa(dp125
S'action'
p126
S'join'
p127
sS'data_to_add'
p128
(lp129
sS'order'
p130
F1523982377.488713
sS'new_objid'
p131
g8
(g12
S'\x16\x01\x00\x00\x00\x00\x00\x00'
p132
tp133
Rp134
sS'objids'
p135
(lp136
g8
(g12
S'\x15\x01\x00\x00\x00\x00\x00\x00'
p137
tp138
Rp139
ag8
(g12
S'B\x00\x00\x00\x00\x00\x00\x00'
p140
tp141
Rp142
asa(dp143
S'action'
p144
S'join'
p145
sS'data_to_add'
p146
(lp147
sS'order'
p148
F1523982385.855932
sS'new_objid'
p149
g8
(g12
S'\x17\x01\x00\x00\x00\x00\x00\x00'
p150
tp151
Rp152
sS'objids'
p153
(lp154
g8
(g12
S'K\x00\x00\x00\x00\x00\x00\x00'
p155
tp156
Rp157
ag8
(g12
S'\x16\x01\x00\x00\x00\x00\x00\x00'
p158
tp159
Rp160
ag8
(g12
S'O\x00\x00\x00\x00\x00\x00\x00'
p161
tp162
Rp163
asa(dp164
S'action'
p165
S'join'
p166
sS'data_to_add'
p167
(lp168
sS'order'
p169
F1523982396.709779
sS'new_objid'
p170
g8
(g12
S'\x18\x01\x00\x00\x00\x00\x00\x00'
p171
tp172
Rp173
sS'objids'
p174
(lp175
g8
(g12
S'\x17\x01\x00\x00\x00\x00\x00\x00'
p176
tp177
Rp178
ag8
(g12
S'X\x00\x00\x00\x00\x00\x00\x00'
p179
tp180
Rp181
ag8
(g12
S'^\x00\x00\x00\x00\x00\x00\x00'
p182
tp183
Rp184
ag8
(g12
S'f\x00\x00\x00\x00\x00\x00\x00'
p185
tp186
Rp187
ag8
(g12
S'c\x00\x00\x00\x00\x00\x00\x00'
p188
tp189
Rp190
asa(dp191
S'action'
p192
S'join'
p193
sS'data_to_add'
p194
(lp195
sS'order'
p196
F1523982404.592568
sS'new_objid'
p197
g8
(g12
S'\x19\x01\x00\x00\x00\x00\x00\x00'
p198
tp199
Rp200
sS'objids'
p201
(lp202
g8
(g12
S'\x18\x01\x00\x00\x00\x00\x00\x00'
p203
tp204
Rp205
ag8
(g12
S'j\x00\x00\x00\x00\x00\x00\x00'
p206
tp207
Rp208
asa(dp209
S'cut_frame_global'
p210
I1135
sS'cut_time_epoch'
p211
g8
(g9
(S'f8'
p212
I0
I1
tp213
Rp214
(I3
S'<'
p215
NNNI-1
I-1
I0
tp216
bS'\x8e\xeb\xd3d\xa9\xb4\xd6A'
p217
tp218
Rp219
sS'cut_frame_trajectory'
p220
g8
(g12
S'\x06\x00\x00\x00\x00\x00\x00\x00'
p221
tp222
Rp223
sS'objid'
p224
g8
(g12
S'\x8d\x00\x00\x00\x00\x00\x00\x00'
p225
tp226
Rp227
sS'action'
p228
S'cut'
p229
sS'order'
p230
F1523982416.907385
sS'new_objid'
p231
g8
(g12
S'\x1a\x01\x00\x00\x00\x00\x00\x00'
p232
tp233
Rp234
sa(dp235
S'cut_frame_global'
p236
I1152
sS'cut_time_epoch'
p237
g8
(g214
S'\xce\xb9@e\xa9\xb4\xd6A'
p238
tp239
Rp240
sS'cut_frame_trajectory'
p241
g8
(g12
S'\x11\x00\x00\x00\x00\x00\x00\x00'
p242
tp243
Rp244
sS'objid'
p245
g8
(g12
S'\x1a\x01\x00\x00\x00\x00\x00\x00'
p246
tp247
Rp248
sS'action'
p249
S'cut'
p250
sS'order'
p251
F1523982419.828446
sS'new_objid'
p252
g8
(g12
S'\x1b\x01\x00\x00\x00\x00\x00\x00'
p253
tp254
Rp255
sa(dp256
S'cut_frame_global'
p257
I1151
sS'cut_time_epoch'
p258
g8
(g214
S'\xf9Q:e\xa9\xb4\xd6A'
p259
tp260
Rp261
sS'cut_frame_trajectory'
p262
g8
(g12
S'\x10\x00\x00\x00\x00\x00\x00\x00'
p263
tp264
Rp265
sS'objid'
p266
g8
(g12
S'\x1a\x01\x00\x00\x00\x00\x00\x00'
p267
tp268
Rp269
sS'action'
p270
S'cut'
p271
sS'order'
p272
F1523982421.779944
sS'new_objid'
p273
g8
(g12
S'\x1c\x01\x00\x00\x00\x00\x00\x00'
p274
tp275
Rp276
sa(dp277
S'cut_frame_global'
p278
I1150
sS'cut_time_epoch'
p279
g8
(g214
S'l\xec3e\xa9\xb4\xd6A'
p280
tp281
Rp282
sS'cut_frame_trajectory'
p283
g8
(g12
S'\x0f\x00\x00\x00\x00\x00\x00\x00'
p284
tp285
Rp286
sS'objid'
p287
g8
(g12
S'\x1a\x01\x00\x00\x00\x00\x00\x00'
p288
tp289
Rp290
sS'action'
p291
S'cut'
p292
sS'order'
p293
F1523982422.586275
sS'new_objid'
p294
g8
(g12
S'\x1d\x01\x00\x00\x00\x00\x00\x00'
p295
tp296
Rp297
sa(dp298
S'cut_frame_global'
p299
I1145
sS'cut_time_epoch'
p300
g8
(g214
S'}\xeb\x13e\xa9\xb4\xd6A'
p301
tp302
Rp303
sS'cut_frame_trajectory'
p304
g8
(g12
S'\n\x00\x00\x00\x00\x00\x00\x00'
p305
tp306
Rp307
sS'objid'
p308
g8
(g12
S'\x1a\x01\x00\x00\x00\x00\x00\x00'
p309
tp310
Rp311
sS'action'
p312
S'cut'
p313
sS'order'
p314
F1523982423.548568
sS'new_objid'
p315
g8
(g12
S'\x1e\x01\x00\x00\x00\x00\x00\x00'
p316
tp317
Rp318
sa(dp319
S'cut_frame_global'
p320
I1120
sS'cut_time_epoch'
p321
g8
(g214
S'\\\xecsd\xa9\xb4\xd6A'
p322
tp323
Rp324
sS'cut_frame_trajectory'
p325
g8
(g12
S'\x1d\x00\x00\x00\x00\x00\x00\x00'
p326
tp327
Rp328
sS'objid'
p329
g8
(g12
S'\x85\x00\x00\x00\x00\x00\x00\x00'
p330
tp331
Rp332
sS'action'
p333
S'cut'
p334
sS'order'
p335
F1523982425.930568
sS'new_objid'
p336
g8
(g12
S'\x1f\x01\x00\x00\x00\x00\x00\x00'
p337
tp338
Rp339
sa(dp340
S'action'
p341
S'join'
p342
sS'data_to_add'
p343
(lp344
sS'order'
p345
F1523982441.224346
sS'new_objid'
p346
g8
(g12
S' \x01\x00\x00\x00\x00\x00\x00'
p347
tp348
Rp349
sS'objids'
p350
(lp351
g8
(g12
S'\x19\x01\x00\x00\x00\x00\x00\x00'
p352
tp353
Rp354
ag8
(g12
S'\x85\x00\x00\x00\x00\x00\x00\x00'
p355
tp356
Rp357
ag8
(g12
S'\x1a\x01\x00\x00\x00\x00\x00\x00'
p358
tp359
Rp360
ag8
(g12
S'\x1e\x01\x00\x00\x00\x00\x00\x00'
p361
tp362
Rp363
ag8
(g12
S'\x8c\x00\x00\x00\x00\x00\x00\x00'
p364
tp365
Rp366
ag8
(g12
S'\x92\x00\x00\x00\x00\x00\x00\x00'
p367
tp368
Rp369
asa(dp370
S'action'
p371
S'join'
p372
sS'data_to_add'
p373
(lp374
sS'order'
p375
F1523982451.089178
sS'new_objid'
p376
g8
(g12
S'!\x01\x00\x00\x00\x00\x00\x00'
p377
tp378
Rp379
sS'objids'
p380
(lp381
g8
(g12
S'\xa9\x00\x00\x00\x00\x00\x00\x00'
p382
tp383
Rp384
ag8
(g12
S' \x01\x00\x00\x00\x00\x00\x00'
p385
tp386
Rp387
asa(dp388
S'action'
p389
S'join'
p390
sS'data_to_add'
p391
(lp392
sS'order'
p393
F1523982459.393611
sS'new_objid'
p394
g8
(g12
S'"\x01\x00\x00\x00\x00\x00\x00'
p395
tp396
Rp397
sS'objids'
p398
(lp399
g8
(g12
S'\xb8\x00\x00\x00\x00\x00\x00\x00'
p400
tp401
Rp402
ag8
(g12
S'!\x01\x00\x00\x00\x00\x00\x00'
p403
tp404
Rp405
ag8
(g12
S'\xbf\x00\x00\x00\x00\x00\x00\x00'
p406
tp407
Rp408
asa(dp409
S'action'
p410
S'join'
p411
sS'data_to_add'
p412
(lp413
sS'order'
p414
F1523982481.11383
sS'new_objid'
p415
g8
(g12
S'#\x01\x00\x00\x00\x00\x00\x00'
p416
tp417
Rp418
sS'objids'
p419
(lp420
g8
(g12
S'\xe2\x00\x00\x00\x00\x00\x00\x00'
p421
tp422
Rp423
ag8
(g12
S'\xed\x00\x00\x00\x00\x00\x00\x00'
p424
tp425
Rp426
ag8
(g12
S'"\x01\x00\x00\x00\x00\x00\x00'
p427
tp428
Rp429
asa(dp430
S'action'
p431
S'join'
p432
sS'data_to_add'
p433
(lp434
sS'order'
p435
F1523982489.484804
sS'new_objid'
p436
g8
(g12
S'$\x01\x00\x00\x00\x00\x00\x00'
p437
tp438
Rp439
sS'objids'
p440
(lp441
g8
(g12
S'\xf4\x00\x00\x00\x00\x00\x00\x00'
p442
tp443
Rp444
ag8
(g12
S'\xf1\x00\x00\x00\x00\x00\x00\x00'
p445
tp446
Rp447
ag8
(g12
S'#\x01\x00\x00\x00\x00\x00\x00'
p448
tp449
Rp450
asa(dp451
S'action'
p452
S'join'
p453
sS'data_to_add'
p454
(lp455
sS'order'
p456
F1523982495.474438
sS'new_objid'
p457
g8
(g12
S'%\x01\x00\x00\x00\x00\x00\x00'
p458
tp459
Rp460
sS'objids'
p461
(lp462
g8
(g12
S'\xfd\x00\x00\x00\x00\x00\x00\x00'
p463
tp464
Rp465
ag8
(g12
S'$\x01\x00\x00\x00\x00\x00\x00'
p466
tp467
Rp468
asa(dp469
S'action'
p470
S'delete'
p471
sS'order'
p472
F1523982514.517325
sS'objid'
p473
g8
(g12
S'\x05\x01\x00\x00\x00\x00\x00\x00'
p474
tp475
Rp476
sa(dp477
S'action'
p478
S'delete'
p479
sS'order'
p480
F1523982514.521984
sS'objid'
p481
g8
(g12
S'\x04\x01\x00\x00\x00\x00\x00\x00'
p482
tp483
Rp484
sa(dp485
S'action'
p486
S'delete'
p487
sS'order'
p488
F1523982514.527372
sS'objid'
p489
g8
(g12
S'\x03\x01\x00\x00\x00\x00\x00\x00'
p490
tp491
Rp492
sa(dp493
S'action'
p494
S'delete'
p495
sS'order'
p496
F1523982514.532227
sS'objid'
p497
g8
(g12
S'\x02\x01\x00\x00\x00\x00\x00\x00'
p498
tp499
Rp500
sa(dp501
S'action'
p502
S'delete'
p503
sS'order'
p504
F1523982514.536801
sS'objid'
p505
g8
(g12
S'\x01\x01\x00\x00\x00\x00\x00\x00'
p506
tp507
Rp508
sa(dp509
S'action'
p510
S'delete'
p511
sS'order'
p512
F1523982514.541364
sS'objid'
p513
g8
(g12
S'\x00\x01\x00\x00\x00\x00\x00\x00'
p514
tp515
Rp516
sa(dp517
S'action'
p518
S'delete'
p519
sS'order'
p520
F1523982514.546136
sS'objid'
p521
g8
(g12
S'\xff\x00\x00\x00\x00\x00\x00\x00'
p522
tp523
Rp524
sa(dp525
S'action'
p526
S'delete'
p527
sS'order'
p528
F1523982514.550975
sS'objid'
p529
g8
(g12
S'\xfe\x00\x00\x00\x00\x00\x00\x00'
p530
tp531
Rp532
sa(dp533
S'action'
p534
S'delete'
p535
sS'order'
p536
F1523982514.555822
sS'objid'
p537
g8
(g12
S'\xfc\x00\x00\x00\x00\x00\x00\x00'
p538
tp539
Rp540
sa(dp541
S'action'
p542
S'delete'
p543
sS'order'
p544
F1523982514.563622
sS'objid'
p545
g8
(g12
S'\xfb\x00\x00\x00\x00\x00\x00\x00'
p546
tp547
Rp548
sa(dp549
S'action'
p550
S'delete'
p551
sS'order'
p552
F1523982514.572131
sS'objid'
p553
g8
(g12
S'\xfa\x00\x00\x00\x00\x00\x00\x00'
p554
tp555
Rp556
sa(dp557
S'action'
p558
S'delete'
p559
sS'order'
p560
F1523982514.581274
sS'objid'
p561
g8
(g12
S'\xf9\x00\x00\x00\x00\x00\x00\x00'
p562
tp563
Rp564
sa(dp565
S'action'
p566
S'delete'
p567
sS'order'
p568
F1523982514.586494
sS'objid'
p569
g8
(g12
S'\xf8\x00\x00\x00\x00\x00\x00\x00'
p570
tp571
Rp572
sa(dp573
S'action'
p574
S'delete'
p575
sS'order'
p576
F1523982514.5917
sS'objid'
p577
g8
(g12
S'\xf7\x00\x00\x00\x00\x00\x00\x00'
p578
tp579
Rp580
sa(dp581
S'action'
p582
S'delete'
p583
sS'order'
p584
F1523982514.596776
sS'objid'
p585
g8
(g12
S'\xf6\x00\x00\x00\x00\x00\x00\x00'
p586
tp587
Rp588
sa(dp589
S'action'
p590
S'delete'
p591
sS'order'
p592
F1523982514.60191
sS'objid'
p593
g8
(g12
S'\xf5\x00\x00\x00\x00\x00\x00\x00'
p594
tp595
Rp596
sa(dp597
S'action'
p598
S'delete'
p599
sS'order'
p600
F1523982514.607197
sS'objid'
p601
g8
(g12
S'\xf3\x00\x00\x00\x00\x00\x00\x00'
p602
tp603
Rp604
sa(dp605
S'action'
p606
S'delete'
p607
sS'order'
p608
F1523982514.612507
sS'objid'
p609
g8
(g12
S'\xf2\x00\x00\x00\x00\x00\x00\x00'
p610
tp611
Rp612
sa(dp613
S'action'
p614
S'delete'
p615
sS'order'
p616
F1523982514.617812
sS'objid'
p617
g8
(g12
S'\xf0\x00\x00\x00\x00\x00\x00\x00'
p618
tp619
Rp620
sa(dp621
S'action'
p622
S'delete'
p623
sS'order'
p624
F1523982514.623203
sS'objid'
p625
g8
(g12
S'\xef\x00\x00\x00\x00\x00\x00\x00'
p626
tp627
Rp628
sa(dp629
S'action'
p630
S'delete'
p631
sS'order'
p632
F1523982514.628685
sS'objid'
p633
g8
(g12
S'\xee\x00\x00\x00\x00\x00\x00\x00'
p634
tp635
Rp636
sa(dp637
S'action'
p638
S'delete'
p639
sS'order'
p640
F1523982514.634168
sS'objid'
p641
g8
(g12
S'\xec\x00\x00\x00\x00\x00\x00\x00'
p642
tp643
Rp644
sa(dp645
S'action'
p646
S'delete'
p647
sS'order'
p648
F1523982514.639708
sS'objid'
p649
g8
(g12
S'\xeb\x00\x00\x00\x00\x00\x00\x00'
p650
tp651
Rp652
sa(dp653
S'action'
p654
S'delete'
p655
sS'order'
p656
F1523982514.645376
sS'objid'
p657
g8
(g12
S'\xea\x00\x00\x00\x00\x00\x00\x00'
p658
tp659
Rp660
sa(dp661
S'action'
p662
S'delete'
p663
sS'order'
p664
F1523982514.651061
sS'objid'
p665
g8
(g12
S'\xe9\x00\x00\x00\x00\x00\x00\x00'
p666
tp667
Rp668
sa(dp669
S'action'
p670
S'delete'
p671
sS'order'
p672
F1523982514.658084
sS'objid'
p673
g8
(g12
S'\xe8\x00\x00\x00\x00\x00\x00\x00'
p674
tp675
Rp676
sa(dp677
S'action'
p678
S'delete'
p679
sS'order'
p680
F1523982514.66829
sS'objid'
p681
g8
(g12
S'\xe7\x00\x00\x00\x00\x00\x00\x00'
p682
tp683
Rp684
sa(dp685
S'action'
p686
S'delete'
p687
sS'order'
p688
F1523982514.678167
sS'objid'
p689
g8
(g12
S'\xe6\x00\x00\x00\x00\x00\x00\x00'
p690
tp691
Rp692
sa(dp693
S'action'
p694
S'delete'
p695
sS'order'
p696
F1523982514.684256
sS'objid'
p697
g8
(g12
S'\xe5\x00\x00\x00\x00\x00\x00\x00'
p698
tp699
Rp700
sa(dp701
S'action'
p702
S'delete'
p703
sS'order'
p704
F1523982514.690191
sS'objid'
p705
g8
(g12
S'\xe4\x00\x00\x00\x00\x00\x00\x00'
p706
tp707
Rp708
sa(dp709
S'action'
p710
S'delete'
p711
sS'order'
p712
F1523982514.696191
sS'objid'
p713
g8
(g12
S'\xe3\x00\x00\x00\x00\x00\x00\x00'
p714
tp715
Rp716
sa(dp717
S'action'
p718
S'delete'
p719
sS'order'
p720
F1523982514.702277
sS'objid'
p721
g8
(g12
S'\xe1\x00\x00\x00\x00\x00\x00\x00'
p722
tp723
Rp724
sa(dp725
S'action'
p726
S'delete'
p727
sS'order'
p728
F1523982514.708424
sS'objid'
p729
g8
(g12
S'\xe0\x00\x00\x00\x00\x00\x00\x00'
p730
tp731
Rp732
sa(dp733
S'action'
p734
S'delete'
p735
sS'order'
p736
F1523982514.714581
sS'objid'
p737
g8
(g12
S'\xdf\x00\x00\x00\x00\x00\x00\x00'
p738
tp739
Rp740
sa(dp741
S'action'
p742
S'delete'
p743
sS'order'
p744
F1523982514.720833
sS'objid'
p745
g8
(g12
S'\xde\x00\x00\x00\x00\x00\x00\x00'
p746
tp747
Rp748
sa(dp749
S'action'
p750
S'delete'
p751
sS'order'
p752
F1523982514.72714
sS'objid'
p753
g8
(g12
S'\xdd\x00\x00\x00\x00\x00\x00\x00'
p754
tp755
Rp756
sa(dp757
S'action'
p758
S'delete'
p759
sS'order'
p760
F1523982514.733495
sS'objid'
p761
g8
(g12
S'\xdc\x00\x00\x00\x00\x00\x00\x00'
p762
tp763
Rp764
sa(dp765
S'action'
p766
S'delete'
p767
sS'order'
p768
F1523982514.739948
sS'objid'
p769
g8
(g12
S'\xdb\x00\x00\x00\x00\x00\x00\x00'
p770
tp771
Rp772
sa(dp773
S'action'
p774
S'delete'
p775
sS'order'
p776
F1523982514.746412
sS'objid'
p777
g8
(g12
S'\xda\x00\x00\x00\x00\x00\x00\x00'
p778
tp779
Rp780
sa(dp781
S'action'
p782
S'delete'
p783
sS'order'
p784
F1523982514.752947
sS'objid'
p785
g8
(g12
S'\xd9\x00\x00\x00\x00\x00\x00\x00'
p786
tp787
Rp788
sa(dp789
S'action'
p790
S'delete'
p791
sS'order'
p792
F1523982514.759543
sS'objid'
p793
g8
(g12
S'\xd8\x00\x00\x00\x00\x00\x00\x00'
p794
tp795
Rp796
sa(dp797
S'action'
p798
S'delete'
p799
sS'order'
p800
F1523982514.766223
sS'objid'
p801
g8
(g12
S'\xd7\x00\x00\x00\x00\x00\x00\x00'
p802
tp803
Rp804
sa(dp805
S'action'
p806
S'delete'
p807
sS'order'
p808
F1523982514.77298
sS'objid'
p809
g8
(g12
S'\xd6\x00\x00\x00\x00\x00\x00\x00'
p810
tp811
Rp812
sa(dp813
S'action'
p814
S'delete'
p815
sS'order'
p816
F1523982514.77982
sS'objid'
p817
g8
(g12
S'\xd5\x00\x00\x00\x00\x00\x00\x00'
p818
tp819
Rp820
sa(dp821
S'action'
p822
S'delete'
p823
sS'order'
p824
F1523982514.789362
sS'objid'
p825
g8
(g12
S'\xd4\x00\x00\x00\x00\x00\x00\x00'
p826
tp827
Rp828
sa(dp829
S'action'
p830
S'delete'
p831
sS'order'
p832
F1523982514.796221
sS'objid'
p833
g8
(g12
S'\xd3\x00\x00\x00\x00\x00\x00\x00'
p834
tp835
Rp836
sa(dp837
S'action'
p838
S'delete'
p839
sS'order'
p840
F1523982514.803146
sS'objid'
p841
g8
(g12
S'\xd2\x00\x00\x00\x00\x00\x00\x00'
p842
tp843
Rp844
sa(dp845
S'action'
p846
S'delete'
p847
sS'order'
p848
F1523982514.81013
sS'objid'
p849
g8
(g12
S'\xd1\x00\x00\x00\x00\x00\x00\x00'
p850
tp851
Rp852
sa(dp853
S'action'
p854
S'delete'
p855
sS'order'
p856
F1523982514.817168
sS'objid'
p857
g8
(g12
S'\xd0\x00\x00\x00\x00\x00\x00\x00'
p858
tp859
Rp860
sa(dp861
S'action'
p862
S'delete'
p863
sS'order'
p864
F1523982514.824267
sS'objid'
p865
g8
(g12
S'\xcf\x00\x00\x00\x00\x00\x00\x00'
p866
tp867
Rp868
sa(dp869
S'action'
p870
S'delete'
p871
sS'order'
p872
F1523982514.831434
sS'objid'
p873
g8
(g12
S'\xce\x00\x00\x00\x00\x00\x00\x00'
p874
tp875
Rp876
sa(dp877
S'action'
p878
S'delete'
p879
sS'order'
p880
F1523982514.838636
sS'objid'
p881
g8
(g12
S'\xcd\x00\x00\x00\x00\x00\x00\x00'
p882
tp883
Rp884
sa(dp885
S'action'
p886
S'delete'
p887
sS'order'
p888
F1523982514.84591
sS'objid'
p889
g8
(g12
S'\xcc\x00\x00\x00\x00\x00\x00\x00'
p890
tp891
Rp892
sa(dp893
S'action'
p894
S'delete'
p895
sS'order'
p896
F1523982514.853251
sS'objid'
p897
g8
(g12
S'\xcb\x00\x00\x00\x00\x00\x00\x00'
p898
tp899
Rp900
sa(dp901
S'action'
p902
S'delete'
p903
sS'order'
p904
F1523982514.860651
sS'objid'
p905
g8
(g12
S'\xca\x00\x00\x00\x00\x00\x00\x00'
p906
tp907
Rp908
sa(dp909
S'action'
p910
S'delete'
p911
sS'order'
p912
F1523982514.868125
sS'objid'
p913
g8
(g12
S'\xc9\x00\x00\x00\x00\x00\x00\x00'
p914
tp915
Rp916
sa(dp917
S'action'
p918
S'delete'
p919
sS'order'
p920
F1523982514.875736
sS'objid'
p921
g8
(g12
S'\xc8\x00\x00\x00\x00\x00\x00\x00'
p922
tp923
Rp924
sa(dp925
S'action'
p926
S'delete'
p927
sS'order'
p928
F1523982514.883386
sS'objid'
p929
g8
(g12
S'\xc7\x00\x00\x00\x00\x00\x00\x00'
p930
tp931
Rp932
sa(dp933
S'action'
p934
S'delete'
p935
sS'order'
p936
F1523982514.891009
sS'objid'
p937
g8
(g12
S'\xc6\x00\x00\x00\x00\x00\x00\x00'
p938
tp939
Rp940
sa(dp941
S'action'
p942
S'delete'
p943
sS'order'
p944
F1523982514.898698
sS'objid'
p945
g8
(g12
S'\xc5\x00\x00\x00\x00\x00\x00\x00'
p946
tp947
Rp948
sa(dp949
S'action'
p950
S'delete'
p951
sS'order'
p952
F1523982514.906449
sS'objid'
p953
g8
(g12
S'\xc4\x00\x00\x00\x00\x00\x00\x00'
p954
tp955
Rp956
sa(dp957
S'action'
p958
S'delete'
p959
sS'order'
p960
F1523982514.914222
sS'objid'
p961
g8
(g12
S'\xc3\x00\x00\x00\x00\x00\x00\x00'
p962
tp963
Rp964
sa(dp965
S'action'
p966
S'delete'
p967
sS'order'
p968
F1523982514.922108
sS'objid'
p969
g8
(g12
S'\xc2\x00\x00\x00\x00\x00\x00\x00'
p970
tp971
Rp972
sa(dp973
S'action'
p974
S'delete'
p975
sS'order'
p976
F1523982514.931408
sS'objid'
p977
g8
(g12
S'\xc1\x00\x00\x00\x00\x00\x00\x00'
p978
tp979
Rp980
sa(dp981
S'action'
p982
S'delete'
p983
sS'order'
p984
F1523982514.939371
sS'objid'
p985
g8
(g12
S'\xc0\x00\x00\x00\x00\x00\x00\x00'
p986
tp987
Rp988
sa(dp989
S'action'
p990
S'delete'
p991
sS'order'
p992
F1523982514.947407
sS'objid'
p993
g8
(g12
S'\xbe\x00\x00\x00\x00\x00\x00\x00'
p994
tp995
Rp996
sa(dp997
S'action'
p998
S'delete'
p999
sS'order'
p1000
F1523982514.955491
sS'objid'
p1001
g8
(g12
S'\xbd\x00\x00\x00\x00\x00\x00\x00'
p1002
tp1003
Rp1004
sa(dp1005
S'action'
p1006
S'delete'
p1007
sS'order'
p1008
F1523982514.963677
sS'objid'
p1009
g8
(g12
S'\xbc\x00\x00\x00\x00\x00\x00\x00'
p1010
tp1011
Rp1012
sa(dp1013
S'action'
p1014
S'delete'
p1015
sS'order'
p1016
F1523982514.97198
sS'objid'
p1017
g8
(g12
S'\xbb\x00\x00\x00\x00\x00\x00\x00'
p1018
tp1019
Rp1020
sa(dp1021
S'action'
p1022
S'delete'
p1023
sS'order'
p1024
F1523982514.980343
sS'objid'
p1025
g8
(g12
S'\xba\x00\x00\x00\x00\x00\x00\x00'
p1026
tp1027
Rp1028
sa(dp1029
S'action'
p1030
S'delete'
p1031
sS'order'
p1032
F1523982514.988676
sS'objid'
p1033
g8
(g12
S'\xb9\x00\x00\x00\x00\x00\x00\x00'
p1034
tp1035
Rp1036
sa(dp1037
S'action'
p1038
S'delete'
p1039
sS'order'
p1040
F1523982514.997086
sS'objid'
p1041
g8
(g12
S'\xb7\x00\x00\x00\x00\x00\x00\x00'
p1042
tp1043
Rp1044
sa(dp1045
S'action'
p1046
S'delete'
p1047
sS'order'
p1048
F1523982515.00559
sS'objid'
p1049
g8
(g12
S'\xb6\x00\x00\x00\x00\x00\x00\x00'
p1050
tp1051
Rp1052
sa(dp1053
S'action'
p1054
S'delete'
p1055
sS'order'
p1056
F1523982515.014079
sS'objid'
p1057
g8
(g12
S'\xb5\x00\x00\x00\x00\x00\x00\x00'
p1058
tp1059
Rp1060
sa(dp1061
S'action'
p1062
S'delete'
p1063
sS'order'
p1064
F1523982515.02266
sS'objid'
p1065
g8
(g12
S'\xb4\x00\x00\x00\x00\x00\x00\x00'
p1066
tp1067
Rp1068
sa(dp1069
S'action'
p1070
S'delete'
p1071
sS'order'
p1072
F1523982515.031297
sS'objid'
p1073
g8
(g12
S'\xb3\x00\x00\x00\x00\x00\x00\x00'
p1074
tp1075
Rp1076
sa(dp1077
S'action'
p1078
S'delete'
p1079
sS'order'
p1080
F1523982515.039998
sS'objid'
p1081
g8
(g12
S'\xb2\x00\x00\x00\x00\x00\x00\x00'
p1082
tp1083
Rp1084
sa(dp1085
S'action'
p1086
S'delete'
p1087
sS'order'
p1088
F1523982515.048712
sS'objid'
p1089
g8
(g12
S'\xb1\x00\x00\x00\x00\x00\x00\x00'
p1090
tp1091
Rp1092
sa(dp1093
S'action'
p1094
S'delete'
p1095
sS'order'
p1096
F1523982515.057511
sS'objid'
p1097
g8
(g12
S'\xb0\x00\x00\x00\x00\x00\x00\x00'
p1098
tp1099
Rp1100
sa(dp1101
S'action'
p1102
S'delete'
p1103
sS'order'
p1104
F1523982515.06638
sS'objid'
p1105
g8
(g12
S'\xaf\x00\x00\x00\x00\x00\x00\x00'
p1106
tp1107
Rp1108
sa(dp1109
S'action'
p1110
S'delete'
p1111
sS'order'
p1112
F1523982515.075431
sS'objid'
p1113
g8
(g12
S'\xae\x00\x00\x00\x00\x00\x00\x00'
p1114
tp1115
Rp1116
sa(dp1117
S'action'
p1118
S'delete'
p1119
sS'order'
p1120
F1523982515.084447
sS'objid'
p1121
g8
(g12
S'\xad\x00\x00\x00\x00\x00\x00\x00'
p1122
tp1123
Rp1124
sa(dp1125
S'action'
p1126
S'delete'
p1127
sS'order'
p1128
F1523982515.093456
sS'objid'
p1129
g8
(g12
S'\xac\x00\x00\x00\x00\x00\x00\x00'
p1130
tp1131
Rp1132
sa(dp1133
S'action'
p1134
S'delete'
p1135
sS'order'
p1136
F1523982515.103922
sS'objid'
p1137
g8
(g12
S'\xab\x00\x00\x00\x00\x00\x00\x00'
p1138
tp1139
Rp1140
sa(dp1141
S'action'
p1142
S'delete'
p1143
sS'order'
p1144
F1523982515.113037
sS'objid'
p1145
g8
(g12
S'\xaa\x00\x00\x00\x00\x00\x00\x00'
p1146
tp1147
Rp1148
sa(dp1149
S'action'
p1150
S'delete'
p1151
sS'order'
p1152
F1523982532.546669
sS'objid'
p1153
g8
(g12
S'\x1f\x01\x00\x00\x00\x00\x00\x00'
p1154
tp1155
Rp1156
sa(dp1157
S'action'
p1158
S'delete'
p1159
sS'order'
p1160
F1523982532.557538
sS'objid'
p1161
g8
(g12
S'\x1d\x01\x00\x00\x00\x00\x00\x00'
p1162
tp1163
Rp1164
sa(dp1165
S'action'
p1166
S'delete'
p1167
sS'order'
p1168
F1523982532.568739
sS'objid'
p1169
g8
(g12
S'\x1c\x01\x00\x00\x00\x00\x00\x00'
p1170
tp1171
Rp1172
sa(dp1173
S'action'
p1174
S'delete'
p1175
sS'order'
p1176
F1523982532.582613
sS'objid'
p1177
g8
(g12
S'\x1b\x01\x00\x00\x00\x00\x00\x00'
p1178
tp1179
Rp1180
sa(dp1181
S'action'
p1182
S'delete'
p1183
sS'order'
p1184
F1523982532.592455
sS'objid'
p1185
g8
(g12
S'\xa8\x00\x00\x00\x00\x00\x00\x00'
p1186
tp1187
Rp1188
sa(dp1189
S'action'
p1190
S'delete'
p1191
sS'order'
p1192
F1523982532.601967
sS'objid'
p1193
g8
(g12
S'\xa7\x00\x00\x00\x00\x00\x00\x00'
p1194
tp1195
Rp1196
sa(dp1197
S'action'
p1198
S'delete'
p1199
sS'order'
p1200
F1523982532.611566
sS'objid'
p1201
g8
(g12
S'\xa6\x00\x00\x00\x00\x00\x00\x00'
p1202
tp1203
Rp1204
sa(dp1205
S'action'
p1206
S'delete'
p1207
sS'order'
p1208
F1523982532.621206
sS'objid'
p1209
g8
(g12
S'\xa5\x00\x00\x00\x00\x00\x00\x00'
p1210
tp1211
Rp1212
sa(dp1213
S'action'
p1214
S'delete'
p1215
sS'order'
p1216
F1523982532.630925
sS'objid'
p1217
g8
(g12
S'\xa4\x00\x00\x00\x00\x00\x00\x00'
p1218
tp1219
Rp1220
sa(dp1221
S'action'
p1222
S'delete'
p1223
sS'order'
p1224
F1523982532.640675
sS'objid'
p1225
g8
(g12
S'\xa3\x00\x00\x00\x00\x00\x00\x00'
p1226
tp1227
Rp1228
sa(dp1229
S'action'
p1230
S'delete'
p1231
sS'order'
p1232
F1523982532.650504
sS'objid'
p1233
g8
(g12
S'\xa2\x00\x00\x00\x00\x00\x00\x00'
p1234
tp1235
Rp1236
sa(dp1237
S'action'
p1238
S'delete'
p1239
sS'order'
p1240
F1523982532.660425
sS'objid'
p1241
g8
(g12
S'\xa1\x00\x00\x00\x00\x00\x00\x00'
p1242
tp1243
Rp1244
sa(dp1245
S'action'
p1246
S'delete'
p1247
sS'order'
p1248
F1523982532.670315
sS'objid'
p1249
g8
(g12
S'\xa0\x00\x00\x00\x00\x00\x00\x00'
p1250
tp1251
Rp1252
sa(dp1253
S'action'
p1254
S'delete'
p1255
sS'order'
p1256
F1523982532.68042
sS'objid'
p1257
g8
(g12
S'\x9f\x00\x00\x00\x00\x00\x00\x00'
p1258
tp1259
Rp1260
sa(dp1261
S'action'
p1262
S'delete'
p1263
sS'order'
p1264
F1523982532.690539
sS'objid'
p1265
g8
(g12
S'\x9e\x00\x00\x00\x00\x00\x00\x00'
p1266
tp1267
Rp1268
sa(dp1269
S'action'
p1270
S'delete'
p1271
sS'order'
p1272
F1523982532.700631
sS'objid'
p1273
g8
(g12
S'\x9d\x00\x00\x00\x00\x00\x00\x00'
p1274
tp1275
Rp1276
sa(dp1277
S'action'
p1278
S'delete'
p1279
sS'order'
p1280
F1523982532.710786
sS'objid'
p1281
g8
(g12
S'\x9c\x00\x00\x00\x00\x00\x00\x00'
p1282
tp1283
Rp1284
sa(dp1285
S'action'
p1286
S'delete'
p1287
sS'order'
p1288
F1523982532.720983
sS'objid'
p1289
g8
(g12
S'\x9b\x00\x00\x00\x00\x00\x00\x00'
p1290
tp1291
Rp1292
sa(dp1293
S'action'
p1294
S'delete'
p1295
sS'order'
p1296
F1523982532.731234
sS'objid'
p1297
g8
(g12
S'\x9a\x00\x00\x00\x00\x00\x00\x00'
p1298
tp1299
Rp1300
sa(dp1301
S'action'
p1302
S'delete'
p1303
sS'order'
p1304
F1523982532.74159
sS'objid'
p1305
g8
(g12
S'\x99\x00\x00\x00\x00\x00\x00\x00'
p1306
tp1307
Rp1308
sa(dp1309
S'action'
p1310
S'delete'
p1311
sS'order'
p1312
F1523982532.75196
sS'objid'
p1313
g8
(g12
S'\x98\x00\x00\x00\x00\x00\x00\x00'
p1314
tp1315
Rp1316
sa(dp1317
S'action'
p1318
S'delete'
p1319
sS'order'
p1320
F1523982532.762351
sS'objid'
p1321
g8
(g12
S'\x97\x00\x00\x00\x00\x00\x00\x00'
p1322
tp1323
Rp1324
sa(dp1325
S'action'
p1326
S'delete'
p1327
sS'order'
p1328
F1523982532.772864
sS'objid'
p1329
g8
(g12
S'\x96\x00\x00\x00\x00\x00\x00\x00'
p1330
tp1331
Rp1332
sa(dp1333
S'action'
p1334
S'delete'
p1335
sS'order'
p1336
F1523982532.783495
sS'objid'
p1337
g8
(g12
S'\x95\x00\x00\x00\x00\x00\x00\x00'
p1338
tp1339
Rp1340
sa(dp1341
S'action'
p1342
S'delete'
p1343
sS'order'
p1344
F1523982532.794117
sS'objid'
p1345
g8
(g12
S'\x94\x00\x00\x00\x00\x00\x00\x00'
p1346
tp1347
Rp1348
sa(dp1349
S'action'
p1350
S'delete'
p1351
sS'order'
p1352
F1523982532.804817
sS'objid'
p1353
g8
(g12
S'\x93\x00\x00\x00\x00\x00\x00\x00'
p1354
tp1355
Rp1356
sa(dp1357
S'action'
p1358
S'delete'
p1359
sS'order'
p1360
F1523982532.815491
sS'objid'
p1361
g8
(g12
S'\x91\x00\x00\x00\x00\x00\x00\x00'
p1362
tp1363
Rp1364
sa(dp1365
S'action'
p1366
S'delete'
p1367
sS'order'
p1368
F1523982532.826272
sS'objid'
p1369
g8
(g12
S'\x90\x00\x00\x00\x00\x00\x00\x00'
p1370
tp1371
Rp1372
sa(dp1373
S'action'
p1374
S'delete'
p1375
sS'order'
p1376
F1523982532.837197
sS'objid'
p1377
g8
(g12
S'\x8f\x00\x00\x00\x00\x00\x00\x00'
p1378
tp1379
Rp1380
sa(dp1381
S'action'
p1382
S'delete'
p1383
sS'order'
p1384
F1523982532.848151
sS'objid'
p1385
g8
(g12
S'\x8e\x00\x00\x00\x00\x00\x00\x00'
p1386
tp1387
Rp1388
sa(dp1389
S'action'
p1390
S'delete'
p1391
sS'order'
p1392
F1523982532.859137
sS'objid'
p1393
g8
(g12
S'\x8d\x00\x00\x00\x00\x00\x00\x00'
p1394
tp1395
Rp1396
sa(dp1397
S'action'
p1398
S'delete'
p1399
sS'order'
p1400
F1523982532.87019
sS'objid'
p1401
g8
(g12
S'\x8b\x00\x00\x00\x00\x00\x00\x00'
p1402
tp1403
Rp1404
sa(dp1405
S'action'
p1406
S'delete'
p1407
sS'order'
p1408
F1523982532.881471
sS'objid'
p1409
g8
(g12
S'\x8a\x00\x00\x00\x00\x00\x00\x00'
p1410
tp1411
Rp1412
sa(dp1413
S'action'
p1414
S'delete'
p1415
sS'order'
p1416
F1523982532.892815
sS'objid'
p1417
g8
(g12
S'\x89\x00\x00\x00\x00\x00\x00\x00'
p1418
tp1419
Rp1420
sa(dp1421
S'action'
p1422
S'delete'
p1423
sS'order'
p1424
F1523982532.904197
sS'objid'
p1425
g8
(g12
S'\x88\x00\x00\x00\x00\x00\x00\x00'
p1426
tp1427
Rp1428
sa(dp1429
S'action'
p1430
S'delete'
p1431
sS'order'
p1432
F1523982532.91546
sS'objid'
p1433
g8
(g12
S'\x87\x00\x00\x00\x00\x00\x00\x00'
p1434
tp1435
Rp1436
sa(dp1437
S'action'
p1438
S'delete'
p1439
sS'order'
p1440
F1523982532.92677
sS'objid'
p1441
g8
(g12
S'\x86\x00\x00\x00\x00\x00\x00\x00'
p1442
tp1443
Rp1444
sa(dp1445
S'action'
p1446
S'delete'
p1447
sS'order'
p1448
F1523982532.938235
sS'objid'
p1449
g8
(g12
S'\x84\x00\x00\x00\x00\x00\x00\x00'
p1450
tp1451
Rp1452
sa(dp1453
S'action'
p1454
S'delete'
p1455
sS'order'
p1456
F1523982532.949696
sS'objid'
p1457
g8
(g12
S'\x83\x00\x00\x00\x00\x00\x00\x00'
p1458
tp1459
Rp1460
sa(dp1461
S'action'
p1462
S'delete'
p1463
sS'order'
p1464
F1523982532.961222
sS'objid'
p1465
g8
(g12
S'\x82\x00\x00\x00\x00\x00\x00\x00'
p1466
tp1467
Rp1468
sa(dp1469
S'action'
p1470
S'delete'
p1471
sS'order'
p1472
F1523982532.97283
sS'objid'
p1473
g8
(g12
S'\x81\x00\x00\x00\x00\x00\x00\x00'
p1474
tp1475
Rp1476
sa(dp1477
S'action'
p1478
S'delete'
p1479
sS'order'
p1480
F1523982532.984607
sS'objid'
p1481
g8
(g12
S'\x80\x00\x00\x00\x00\x00\x00\x00'
p1482
tp1483
Rp1484
sa(dp1485
S'action'
p1486
S'delete'
p1487
sS'order'
p1488
F1523982532.996442
sS'objid'
p1489
g8
(g12
S'\x7f\x00\x00\x00\x00\x00\x00\x00'
p1490
tp1491
Rp1492
sa(dp1493
S'action'
p1494
S'delete'
p1495
sS'order'
p1496
F1523982533.008214
sS'objid'
p1497
g8
(g12
S'~\x00\x00\x00\x00\x00\x00\x00'
p1498
tp1499
Rp1500
sa(dp1501
S'action'
p1502
S'delete'
p1503
sS'order'
p1504
F1523982533.020026
sS'objid'
p1505
g8
(g12
S'}\x00\x00\x00\x00\x00\x00\x00'
p1506
tp1507
Rp1508
sa(dp1509
S'action'
p1510
S'delete'
p1511
sS'order'
p1512
F1523982533.031921
sS'objid'
p1513
g8
(g12
S'|\x00\x00\x00\x00\x00\x00\x00'
p1514
tp1515
Rp1516
sa(dp1517
S'action'
p1518
S'delete'
p1519
sS'order'
p1520
F1523982533.043895
sS'objid'
p1521
g8
(g12
S'{\x00\x00\x00\x00\x00\x00\x00'
p1522
tp1523
Rp1524
sa(dp1525
S'action'
p1526
S'delete'
p1527
sS'order'
p1528
F1523982533.05586
sS'objid'
p1529
g8
(g12
S'z\x00\x00\x00\x00\x00\x00\x00'
p1530
tp1531
Rp1532
sa(dp1533
S'action'
p1534
S'delete'
p1535
sS'order'
p1536
F1523982533.067883
sS'objid'
p1537
g8
(g12
S'y\x00\x00\x00\x00\x00\x00\x00'
p1538
tp1539
Rp1540
sa(dp1541
S'action'
p1542
S'delete'
p1543
sS'order'
p1544
F1523982533.080065
sS'objid'
p1545
g8
(g12
S'x\x00\x00\x00\x00\x00\x00\x00'
p1546
tp1547
Rp1548
sa(dp1549
S'action'
p1550
S'delete'
p1551
sS'order'
p1552
F1523982533.09241
sS'objid'
p1553
g8
(g12
S'w\x00\x00\x00\x00\x00\x00\x00'
p1554
tp1555
Rp1556
sa(dp1557
S'action'
p1558
S'delete'
p1559
sS'order'
p1560
F1523982533.104696
sS'objid'
p1561
g8
(g12
S'v\x00\x00\x00\x00\x00\x00\x00'
p1562
tp1563
Rp1564
sa(dp1565
S'action'
p1566
S'delete'
p1567
sS'order'
p1568
F1523982533.116992
sS'objid'
p1569
g8
(g12
S'u\x00\x00\x00\x00\x00\x00\x00'
p1570
tp1571
Rp1572
sa(dp1573
S'action'
p1574
S'delete'
p1575
sS'order'
p1576
F1523982533.129342
sS'objid'
p1577
g8
(g12
S't\x00\x00\x00\x00\x00\x00\x00'
p1578
tp1579
Rp1580
sa(dp1581
S'action'
p1582
S'delete'
p1583
sS'order'
p1584
F1523982533.141713
sS'objid'
p1585
g8
(g12
S's\x00\x00\x00\x00\x00\x00\x00'
p1586
tp1587
Rp1588
sa(dp1589
S'action'
p1590
S'delete'
p1591
sS'order'
p1592
F1523982533.154171
sS'objid'
p1593
g8
(g12
S'r\x00\x00\x00\x00\x00\x00\x00'
p1594
tp1595
Rp1596
sa(dp1597
S'action'
p1598
S'delete'
p1599
sS'order'
p1600
F1523982533.166735
sS'objid'
p1601
g8
(g12
S'q\x00\x00\x00\x00\x00\x00\x00'
p1602
tp1603
Rp1604
sa(dp1605
S'action'
p1606
S'delete'
p1607
sS'order'
p1608
F1523982533.179377
sS'objid'
p1609
g8
(g12
S'p\x00\x00\x00\x00\x00\x00\x00'
p1610
tp1611
Rp1612
sa(dp1613
S'action'
p1614
S'delete'
p1615
sS'order'
p1616
F1523982533.192206
sS'objid'
p1617
g8
(g12
S'o\x00\x00\x00\x00\x00\x00\x00'
p1618
tp1619
Rp1620
sa(dp1621
S'action'
p1622
S'delete'
p1623
sS'order'
p1624
F1523982533.204961
sS'objid'
p1625
g8
(g12
S'n\x00\x00\x00\x00\x00\x00\x00'
p1626
tp1627
Rp1628
sa(dp1629
S'action'
p1630
S'delete'
p1631
sS'order'
p1632
F1523982533.217708
sS'objid'
p1633
g8
(g12
S'm\x00\x00\x00\x00\x00\x00\x00'
p1634
tp1635
Rp1636
sa(dp1637
S'action'
p1638
S'delete'
p1639
sS'order'
p1640
F1523982533.230529
sS'objid'
p1641
g8
(g12
S'l\x00\x00\x00\x00\x00\x00\x00'
p1642
tp1643
Rp1644
sa(dp1645
S'action'
p1646
S'delete'
p1647
sS'order'
p1648
F1523982533.2436
sS'objid'
p1649
g8
(g12
S'k\x00\x00\x00\x00\x00\x00\x00'
p1650
tp1651
Rp1652
sa(dp1653
S'action'
p1654
S'delete'
p1655
sS'order'
p1656
F1523982533.256525
sS'objid'
p1657
g8
(g12
S'i\x00\x00\x00\x00\x00\x00\x00'
p1658
tp1659
Rp1660
sa(dp1661
S'action'
p1662
S'delete'
p1663
sS'order'
p1664
F1523982533.269516
sS'objid'
p1665
g8
(g12
S'h\x00\x00\x00\x00\x00\x00\x00'
p1666
tp1667
Rp1668
sa(dp1669
S'action'
p1670
S'delete'
p1671
sS'order'
p1672
F1523982533.282622
sS'objid'
p1673
g8
(g12
S'g\x00\x00\x00\x00\x00\x00\x00'
p1674
tp1675
Rp1676
sa(dp1677
S'action'
p1678
S'delete'
p1679
sS'order'
p1680
F1523982533.295886
sS'objid'
p1681
g8
(g12
S'e\x00\x00\x00\x00\x00\x00\x00'
p1682
tp1683
Rp1684
sa(dp1685
S'action'
p1686
S'delete'
p1687
sS'order'
p1688
F1523982533.309091
sS'objid'
p1689
g8
(g12
S'd\x00\x00\x00\x00\x00\x00\x00'
p1690
tp1691
Rp1692
sa(dp1693
S'action'
p1694
S'delete'
p1695
sS'order'
p1696
F1523982533.322292
sS'objid'
p1697
g8
(g12
S'b\x00\x00\x00\x00\x00\x00\x00'
p1698
tp1699
Rp1700
sa(dp1701
S'action'
p1702
S'delete'
p1703
sS'order'
p1704
F1523982533.335534
sS'objid'
p1705
g8
(g12
S'a\x00\x00\x00\x00\x00\x00\x00'
p1706
tp1707
Rp1708
sa(dp1709
S'action'
p1710
S'delete'
p1711
sS'order'
p1712
F1523982533.348885
sS'objid'
p1713
g8
(g12
S'`\x00\x00\x00\x00\x00\x00\x00'
p1714
tp1715
Rp1716
sa(dp1717
S'action'
p1718
S'delete'
p1719
sS'order'
p1720
F1523982533.362233
sS'objid'
p1721
g8
(g12
S'_\x00\x00\x00\x00\x00\x00\x00'
p1722
tp1723
Rp1724
sa(dp1725
S'action'
p1726
S'delete'
p1727
sS'order'
p1728
F1523982533.37565
sS'objid'
p1729
g8
(g12
S']\x00\x00\x00\x00\x00\x00\x00'
p1730
tp1731
Rp1732
sa(dp1733
S'action'
p1734
S'delete'
p1735
sS'order'
p1736
F1523982533.389297
sS'objid'
p1737
g8
(g12
S'\\\x00\x00\x00\x00\x00\x00\x00'
p1738
tp1739
Rp1740
sa(dp1741
S'action'
p1742
S'delete'
p1743
sS'order'
p1744
F1523982533.402947
sS'objid'
p1745
g8
(g12
S'[\x00\x00\x00\x00\x00\x00\x00'
p1746
tp1747
Rp1748
sa(dp1749
S'action'
p1750
S'delete'
p1751
sS'order'
p1752
F1523982533.416574
sS'objid'
p1753
g8
(g12
S'Z\x00\x00\x00\x00\x00\x00\x00'
p1754
tp1755
Rp1756
sa(dp1757
S'action'
p1758
S'delete'
p1759
sS'order'
p1760
F1523982533.430245
sS'objid'
p1761
g8
(g12
S'Y\x00\x00\x00\x00\x00\x00\x00'
p1762
tp1763
Rp1764
sa(dp1765
S'action'
p1766
S'delete'
p1767
sS'order'
p1768
F1523982533.443974
sS'objid'
p1769
g8
(g12
S'W\x00\x00\x00\x00\x00\x00\x00'
p1770
tp1771
Rp1772
sa(dp1773
S'action'
p1774
S'delete'
p1775
sS'order'
p1776
F1523982533.45773
sS'objid'
p1777
g8
(g12
S'V\x00\x00\x00\x00\x00\x00\x00'
p1778
tp1779
Rp1780
sa(dp1781
S'action'
p1782
S'delete'
p1783
sS'order'
p1784
F1523982533.471608
sS'objid'
p1785
g8
(g12
S'U\x00\x00\x00\x00\x00\x00\x00'
p1786
tp1787
Rp1788
sa(dp1789
S'action'
p1790
S'delete'
p1791
sS'order'
p1792
F1523982533.485534
sS'objid'
p1793
g8
(g12
S'T\x00\x00\x00\x00\x00\x00\x00'
p1794
tp1795
Rp1796
sa(dp1797
S'action'
p1798
S'delete'
p1799
sS'order'
p1800
F1523982545.70753
sS'objid'
p1801
g8
(g12
S'S\x00\x00\x00\x00\x00\x00\x00'
p1802
tp1803
Rp1804
sa(dp1805
S'action'
p1806
S'delete'
p1807
sS'order'
p1808
F1523982545.72604
sS'objid'
p1809
g8
(g12
S'R\x00\x00\x00\x00\x00\x00\x00'
p1810
tp1811
Rp1812
sa(dp1813
S'action'
p1814
S'delete'
p1815
sS'order'
p1816
F1523982545.741095
sS'objid'
p1817
g8
(g12
S'Q\x00\x00\x00\x00\x00\x00\x00'
p1818
tp1819
Rp1820
sa(dp1821
S'action'
p1822
S'delete'
p1823
sS'order'
p1824
F1523982545.755905
sS'objid'
p1825
g8
(g12
S'P\x00\x00\x00\x00\x00\x00\x00'
p1826
tp1827
Rp1828
sa(dp1829
S'action'
p1830
S'delete'
p1831
sS'order'
p1832
F1523982545.776526
sS'objid'
p1833
g8
(g12
S'N\x00\x00\x00\x00\x00\x00\x00'
p1834
tp1835
Rp1836
sa(dp1837
S'action'
p1838
S'delete'
p1839
sS'order'
p1840
F1523982545.790959
sS'objid'
p1841
g8
(g12
S'M\x00\x00\x00\x00\x00\x00\x00'
p1842
tp1843
Rp1844
sa(dp1845
S'action'
p1846
S'delete'
p1847
sS'order'
p1848
F1523982545.805705
sS'objid'
p1849
g8
(g12
S'L\x00\x00\x00\x00\x00\x00\x00'
p1850
tp1851
Rp1852
sa(dp1853
S'action'
p1854
S'delete'
p1855
sS'order'
p1856
F1523982545.825025
sS'objid'
p1857
g8
(g12
S'J\x00\x00\x00\x00\x00\x00\x00'
p1858
tp1859
Rp1860
sa(dp1861
S'action'
p1862
S'delete'
p1863
sS'order'
p1864
F1523982545.839547
sS'objid'
p1865
g8
(g12
S'I\x00\x00\x00\x00\x00\x00\x00'
p1866
tp1867
Rp1868
sa(dp1869
S'action'
p1870
S'delete'
p1871
sS'order'
p1872
F1523982545.854112
sS'objid'
p1873
g8
(g12
S'H\x00\x00\x00\x00\x00\x00\x00'
p1874
tp1875
Rp1876
sa(dp1877
S'action'
p1878
S'delete'
p1879
sS'order'
p1880
F1523982545.868737
sS'objid'
p1881
g8
(g12
S'G\x00\x00\x00\x00\x00\x00\x00'
p1882
tp1883
Rp1884
sa(dp1885
S'action'
p1886
S'delete'
p1887
sS'order'
p1888
F1523982545.883476
sS'objid'
p1889
g8
(g12
S'F\x00\x00\x00\x00\x00\x00\x00'
p1890
tp1891
Rp1892
sa(dp1893
S'action'
p1894
S'delete'
p1895
sS'order'
p1896
F1523982545.898305
sS'objid'
p1897
g8
(g12
S'E\x00\x00\x00\x00\x00\x00\x00'
p1898
tp1899
Rp1900
sa(dp1901
S'action'
p1902
S'delete'
p1903
sS'order'
p1904
F1523982545.913652
sS'objid'
p1905
g8
(g12
S'D\x00\x00\x00\x00\x00\x00\x00'
p1906
tp1907
Rp1908
sa(dp1909
S'action'
p1910
S'delete'
p1911
sS'order'
p1912
F1523982545.932596
sS'objid'
p1913
g8
(g12
S'C\x00\x00\x00\x00\x00\x00\x00'
p1914
tp1915
Rp1916
sa(dp1917
S'action'
p1918
S'delete'
p1919
sS'order'
p1920
F1523982545.947557
sS'objid'
p1921
g8
(g12
S'A\x00\x00\x00\x00\x00\x00\x00'
p1922
tp1923
Rp1924
sa(dp1925
S'action'
p1926
S'delete'
p1927
sS'order'
p1928
F1523982545.96253
sS'objid'
p1929
g8
(g12
S'?\x00\x00\x00\x00\x00\x00\x00'
p1930
tp1931
Rp1932
sa(dp1933
S'action'
p1934
S'delete'
p1935
sS'order'
p1936
F1523982545.977684
sS'objid'
p1937
g8
(g12
S'>\x00\x00\x00\x00\x00\x00\x00'
p1938
tp1939
Rp1940
sa(dp1941
S'action'
p1942
S'delete'
p1943
sS'order'
p1944
F1523982545.992829
sS'objid'
p1945
g8
(g12
S'=\x00\x00\x00\x00\x00\x00\x00'
p1946
tp1947
Rp1948
sa(dp1949
S'action'
p1950
S'delete'
p1951
sS'order'
p1952
F1523982546.008433
sS'objid'
p1953
g8
(g12
S'<\x00\x00\x00\x00\x00\x00\x00'
p1954
tp1955
Rp1956
sa(dp1957
S'action'
p1958
S'delete'
p1959
sS'order'
p1960
F1523982546.027202
sS'objid'
p1961
g8
(g12
S':\x00\x00\x00\x00\x00\x00\x00'
p1962
tp1963
Rp1964
sa(dp1965
S'action'
p1966
S'delete'
p1967
sS'order'
p1968
F1523982546.042501
sS'objid'
p1969
g8
(g12
S'9\x00\x00\x00\x00\x00\x00\x00'
p1970
tp1971
Rp1972
sa(dp1973
S'action'
p1974
S'delete'
p1975
sS'order'
p1976
F1523982546.057859
sS'objid'
p1977
g8
(g12
S'8\x00\x00\x00\x00\x00\x00\x00'
p1978
tp1979
Rp1980
sa(dp1981
S'action'
p1982
S'delete'
p1983
sS'order'
p1984
F1523982546.07325
sS'objid'
p1985
g8
(g12
S'7\x00\x00\x00\x00\x00\x00\x00'
p1986
tp1987
Rp1988
sa(dp1989
S'action'
p1990
S'delete'
p1991
sS'order'
p1992
F1523982546.088687
sS'objid'
p1993
g8
(g12
S'6\x00\x00\x00\x00\x00\x00\x00'
p1994
tp1995
Rp1996
sa(dp1997
S'action'
p1998
S'delete'
p1999
sS'order'
p2000
F1523982546.104338
sS'objid'
p2001
g8
(g12
S'5\x00\x00\x00\x00\x00\x00\x00'
p2002
tp2003
Rp2004
sa(dp2005
S'action'
p2006
S'delete'
p2007
sS'order'
p2008
F1523982546.120678
sS'objid'
p2009
g8
(g12
S'3\x00\x00\x00\x00\x00\x00\x00'
p2010
tp2011
Rp2012
sa(dp2013
S'action'
p2014
S'delete'
p2015
sS'order'
p2016
F1523982546.145148
sS'objid'
p2017
g8
(g12
S'2\x00\x00\x00\x00\x00\x00\x00'
p2018
tp2019
Rp2020
sa(dp2021
S'action'
p2022
S'delete'
p2023
sS'order'
p2024
F1523982546.160844
sS'objid'
p2025
g8
(g12
S'1\x00\x00\x00\x00\x00\x00\x00'
p2026
tp2027
Rp2028
sa(dp2029
S'action'
p2030
S'delete'
p2031
sS'order'
p2032
F1523982546.176602
sS'objid'
p2033
g8
(g12
S'0\x00\x00\x00\x00\x00\x00\x00'
p2034
tp2035
Rp2036
sa(dp2037
S'action'
p2038
S'delete'
p2039
sS'order'
p2040
F1523982546.192461
sS'objid'
p2041
g8
(g12
S'/\x00\x00\x00\x00\x00\x00\x00'
p2042
tp2043
Rp2044
sa(dp2045
S'action'
p2046
S'delete'
p2047
sS'order'
p2048
F1523982546.208567
sS'objid'
p2049
g8
(g12
S'.\x00\x00\x00\x00\x00\x00\x00'
p2050
tp2051
Rp2052
sa(dp2053
S'action'
p2054
S'delete'
p2055
sS'order'
p2056
F1523982546.226488
sS'objid'
p2057
g8
(g12
S'-\x00\x00\x00\x00\x00\x00\x00'
p2058
tp2059
Rp2060
sa(dp2061
S'action'
p2062
S'delete'
p2063
sS'order'
p2064
F1523982546.242489
sS'objid'
p2065
g8
(g12
S',\x00\x00\x00\x00\x00\x00\x00'
p2066
tp2067
Rp2068
sa(dp2069
S'action'
p2070
S'delete'
p2071
sS'order'
p2072
F1523982546.258543
sS'objid'
p2073
g8
(g12
S'+\x00\x00\x00\x00\x00\x00\x00'
p2074
tp2075
Rp2076
sa(dp2077
S'action'
p2078
S'delete'
p2079
sS'order'
p2080
F1523982546.274652
sS'objid'
p2081
g8
(g12
S'*\x00\x00\x00\x00\x00\x00\x00'
p2082
tp2083
Rp2084
sa(dp2085
S'action'
p2086
S'delete'
p2087
sS'order'
p2088
F1523982546.290834
sS'objid'
p2089
g8
(g12
S'(\x00\x00\x00\x00\x00\x00\x00'
p2090
tp2091
Rp2092
sa(dp2093
S'action'
p2094
S'delete'
p2095
sS'order'
p2096
F1523982546.307225
sS'objid'
p2097
g8
(g12
S'&\x00\x00\x00\x00\x00\x00\x00'
p2098
tp2099
Rp2100
sa(dp2101
S'action'
p2102
S'delete'
p2103
sS'order'
p2104
F1523982546.324937
sS'objid'
p2105
g8
(g12
S'%\x00\x00\x00\x00\x00\x00\x00'
p2106
tp2107
Rp2108
sa(dp2109
S'action'
p2110
S'delete'
p2111
sS'order'
p2112
F1523982546.34133
sS'objid'
p2113
g8
(g12
S'$\x00\x00\x00\x00\x00\x00\x00'
p2114
tp2115
Rp2116
sa(dp2117
S'action'
p2118
S'delete'
p2119
sS'order'
p2120
F1523982546.357706
sS'objid'
p2121
g8
(g12
S'#\x00\x00\x00\x00\x00\x00\x00'
p2122
tp2123
Rp2124
sa(dp2125
S'action'
p2126
S'delete'
p2127
sS'order'
p2128
F1523982546.37417
sS'objid'
p2129
g8
(g12
S'"\x00\x00\x00\x00\x00\x00\x00'
p2130
tp2131
Rp2132
sa(dp2133
S'action'
p2134
S'delete'
p2135
sS'order'
p2136
F1523982546.390749
sS'objid'
p2137
g8
(g12
S' \x00\x00\x00\x00\x00\x00\x00'
p2138
tp2139
Rp2140
sa(dp2141
S'action'
p2142
S'delete'
p2143
sS'order'
p2144
F1523982546.407443
sS'objid'
p2145
g8
(g12
S'\x1f\x00\x00\x00\x00\x00\x00\x00'
p2146
tp2147
Rp2148
sa(dp2149
S'action'
p2150
S'delete'
p2151
sS'order'
p2152
F1523982546.426054
sS'objid'
p2153
g8
(g12
S'\x1e\x00\x00\x00\x00\x00\x00\x00'
p2154
tp2155
Rp2156
sa(dp2157
S'action'
p2158
S'delete'
p2159
sS'order'
p2160
F1523982546.450078
sS'objid'
p2161
g8
(g12
S'\x1d\x00\x00\x00\x00\x00\x00\x00'
p2162
tp2163
Rp2164
sa(dp2165
S'action'
p2166
S'delete'
p2167
sS'order'
p2168
F1523982546.466835
sS'objid'
p2169
g8
(g12
S'\x1b\x00\x00\x00\x00\x00\x00\x00'
p2170
tp2171
Rp2172
sa(dp2173
S'action'
p2174
S'delete'
p2175
sS'order'
p2176
F1523982546.483674
sS'objid'
p2177
g8
(g12
S'\x1a\x00\x00\x00\x00\x00\x00\x00'
p2178
tp2179
Rp2180
sa(dp2181
S'action'
p2182
S'delete'
p2183
sS'order'
p2184
F1523982546.500523
sS'objid'
p2185
g8
(g12
S'\x19\x00\x00\x00\x00\x00\x00\x00'
p2186
tp2187
Rp2188
sa(dp2189
S'action'
p2190
S'delete'
p2191
sS'order'
p2192
F1523982546.518208
sS'objid'
p2193
g8
(g12
S'\x18\x00\x00\x00\x00\x00\x00\x00'
p2194
tp2195
Rp2196
sa(dp2197
S'action'
p2198
S'delete'
p2199
sS'order'
p2200
F1523982546.543537
sS'objid'
p2201
g8
(g12
S'\x17\x00\x00\x00\x00\x00\x00\x00'
p2202
tp2203
Rp2204
sa(dp2205
S'action'
p2206
S'delete'
p2207
sS'order'
p2208
F1523982546.560592
sS'objid'
p2209
g8
(g12
S'\x16\x00\x00\x00\x00\x00\x00\x00'
p2210
tp2211
Rp2212
sa(dp2213
S'action'
p2214
S'delete'
p2215
sS'order'
p2216
F1523982546.577676
sS'objid'
p2217
g8
(g12
S'\x15\x00\x00\x00\x00\x00\x00\x00'
p2218
tp2219
Rp2220
sa(dp2221
S'action'
p2222
S'delete'
p2223
sS'order'
p2224
F1523982546.595194
sS'objid'
p2225
g8
(g12
S'\x14\x00\x00\x00\x00\x00\x00\x00'
p2226
tp2227
Rp2228
sa(dp2229
S'action'
p2230
S'delete'
p2231
sS'order'
p2232
F1523982546.612798
sS'objid'
p2233
g8
(g12
S'\x13\x00\x00\x00\x00\x00\x00\x00'
p2234
tp2235
Rp2236
sa(dp2237
S'action'
p2238
S'delete'
p2239
sS'order'
p2240
F1523982546.635946
sS'objid'
p2241
g8
(g12
S'\x12\x00\x00\x00\x00\x00\x00\x00'
p2242
tp2243
Rp2244
sa(dp2245
S'action'
p2246
S'delete'
p2247
sS'order'
p2248
F1523982546.655568
sS'objid'
p2249
g8
(g12
S'\x11\x00\x00\x00\x00\x00\x00\x00'
p2250
tp2251
Rp2252
sa(dp2253
S'action'
p2254
S'delete'
p2255
sS'order'
p2256
F1523982546.673118
sS'objid'
p2257
g8
(g12
S'\x0f\x00\x00\x00\x00\x00\x00\x00'
p2258
tp2259
Rp2260
sa(dp2261
S'action'
p2262
S'delete'
p2263
sS'order'
p2264
F1523982546.690733
sS'objid'
p2265
g8
(g12
S'\r\x00\x00\x00\x00\x00\x00\x00'
p2266
tp2267
Rp2268
sa(dp2269
S'action'
p2270
S'delete'
p2271
sS'order'
p2272
F1523982546.708474
sS'objid'
p2273
g8
(g12
S'\x0c\x00\x00\x00\x00\x00\x00\x00'
p2274
tp2275
Rp2276
sa(dp2277
S'action'
p2278
S'delete'
p2279
sS'order'
p2280
F1523982546.726705
sS'objid'
p2281
g8
(g12
S'\x0b\x00\x00\x00\x00\x00\x00\x00'
p2282
tp2283
Rp2284
sa(dp2285
S'action'
p2286
S'delete'
p2287
sS'order'
p2288
F1523982546.751261
sS'objid'
p2289
g8
(g12
S'\t\x00\x00\x00\x00\x00\x00\x00'
p2290
tp2291
Rp2292
sa(dp2293
S'action'
p2294
S'delete'
p2295
sS'order'
p2296
F1523982546.769193
sS'objid'
p2297
g8
(g12
S'\x08\x00\x00\x00\x00\x00\x00\x00'
p2298
tp2299
Rp2300
sa(dp2301
S'action'
p2302
S'delete'
p2303
sS'order'
p2304
F1523982553.075293
sS'objid'
p2305
g8
(g12
S'\x01\x00\x00\x00\x00\x00\x00\x00'
p2306
tp2307
Rp2308
sa.