(lp0
(dp1
S'action'
p2
S'join'
p3
sS'data_to_add'
p4
(lp5
sS'order'
p6
F1523916153.753498
sS'new_objid'
p7
cnumpy.core.multiarray
scalar
p8
(cnumpy
dtype
p9
(S'i8'
p10
I0
I1
tp11
Rp12
(I3
S'<'
p13
NNNI-1
I-1
I0
tp14
bS'$\x00\x00\x00\x00\x00\x00\x00'
p15
tp16
Rp17
sS'objids'
p18
(lp19
g8
(g12
S'\x00\x00\x00\x00\x00\x00\x00\x00'
p20
tp21
Rp22
ag8
(g12
S'\x01\x00\x00\x00\x00\x00\x00\x00'
p23
tp24
Rp25
ag8
(g12
S'\x02\x00\x00\x00\x00\x00\x00\x00'
p26
tp27
Rp28
asa(dp29
S'action'
p30
S'delete'
p31
sS'order'
p32
F1523916166.526503
sS'objid'
p33
g8
(g12
S'\x19\x00\x00\x00\x00\x00\x00\x00'
p34
tp35
Rp36
sa(dp37
S'action'
p38
S'delete'
p39
sS'order'
p40
F1523916166.528281
sS'objid'
p41
g8
(g12
S'\x18\x00\x00\x00\x00\x00\x00\x00'
p42
tp43
Rp44
sa(dp45
S'action'
p46
S'delete'
p47
sS'order'
p48
F1523916166.529919
sS'objid'
p49
g8
(g12
S'\x17\x00\x00\x00\x00\x00\x00\x00'
p50
tp51
Rp52
sa(dp53
S'action'
p54
S'delete'
p55
sS'order'
p56
F1523916166.531639
sS'objid'
p57
g8
(g12
S'\x16\x00\x00\x00\x00\x00\x00\x00'
p58
tp59
Rp60
sa(dp61
S'action'
p62
S'delete'
p63
sS'order'
p64
F1523916166.533428
sS'objid'
p65
g8
(g12
S'\x15\x00\x00\x00\x00\x00\x00\x00'
p66
tp67
Rp68
sa(dp69
S'action'
p70
S'delete'
p71
sS'order'
p72
F1523916166.536693
sS'objid'
p73
g8
(g12
S'\x14\x00\x00\x00\x00\x00\x00\x00'
p74
tp75
Rp76
sa(dp77
S'action'
p78
S'delete'
p79
sS'order'
p80
F1523916166.538845
sS'objid'
p81
g8
(g12
S'\x13\x00\x00\x00\x00\x00\x00\x00'
p82
tp83
Rp84
sa(dp85
S'action'
p86
S'delete'
p87
sS'order'
p88
F1523916166.540112
sS'objid'
p89
g8
(g12
S'\x12\x00\x00\x00\x00\x00\x00\x00'
p90
tp91
Rp92
sa(dp93
S'action'
p94
S'delete'
p95
sS'order'
p96
F1523916166.541393
sS'objid'
p97
g8
(g12
S'\x11\x00\x00\x00\x00\x00\x00\x00'
p98
tp99
Rp100
sa(dp101
S'action'
p102
S'delete'
p103
sS'order'
p104
F1523916166.54273
sS'objid'
p105
g8
(g12
S'\x10\x00\x00\x00\x00\x00\x00\x00'
p106
tp107
Rp108
sa(dp109
S'action'
p110
S'delete'
p111
sS'order'
p112
F1523916166.544152
sS'objid'
p113
g8
(g12
S'\x0f\x00\x00\x00\x00\x00\x00\x00'
p114
tp115
Rp116
sa(dp117
S'action'
p118
S'delete'
p119
sS'order'
p120
F1523916166.545627
sS'objid'
p121
g8
(g12
S'\x0e\x00\x00\x00\x00\x00\x00\x00'
p122
tp123
Rp124
sa(dp125
S'action'
p126
S'delete'
p127
sS'order'
p128
F1523916166.547168
sS'objid'
p129
g8
(g12
S'\r\x00\x00\x00\x00\x00\x00\x00'
p130
tp131
Rp132
sa(dp133
S'action'
p134
S'delete'
p135
sS'order'
p136
F1523916166.548749
sS'objid'
p137
g8
(g12
S'\x0c\x00\x00\x00\x00\x00\x00\x00'
p138
tp139
Rp140
sa(dp141
S'action'
p142
S'delete'
p143
sS'order'
p144
F1523916166.550379
sS'objid'
p145
g8
(g12
S'\x0b\x00\x00\x00\x00\x00\x00\x00'
p146
tp147
Rp148
sa(dp149
S'action'
p150
S'delete'
p151
sS'order'
p152
F1523916166.552214
sS'objid'
p153
g8
(g12
S'\n\x00\x00\x00\x00\x00\x00\x00'
p154
tp155
Rp156
sa(dp157
S'action'
p158
S'delete'
p159
sS'order'
p160
F1523916166.554977
sS'objid'
p161
g8
(g12
S'\t\x00\x00\x00\x00\x00\x00\x00'
p162
tp163
Rp164
sa(dp165
S'action'
p166
S'delete'
p167
sS'order'
p168
F1523916166.557154
sS'objid'
p169
g8
(g12
S'\x08\x00\x00\x00\x00\x00\x00\x00'
p170
tp171
Rp172
sa(dp173
S'action'
p174
S'delete'
p175
sS'order'
p176
F1523916166.559018
sS'objid'
p177
g8
(g12
S'\x07\x00\x00\x00\x00\x00\x00\x00'
p178
tp179
Rp180
sa(dp181
S'action'
p182
S'delete'
p183
sS'order'
p184
F1523916166.560961
sS'objid'
p185
g8
(g12
S'\x06\x00\x00\x00\x00\x00\x00\x00'
p186
tp187
Rp188
sa(dp189
S'action'
p190
S'delete'
p191
sS'order'
p192
F1523916166.562966
sS'objid'
p193
g8
(g12
S'\x05\x00\x00\x00\x00\x00\x00\x00'
p194
tp195
Rp196
sa(dp197
S'action'
p198
S'delete'
p199
sS'order'
p200
F1523916166.565042
sS'objid'
p201
g8
(g12
S'\x04\x00\x00\x00\x00\x00\x00\x00'
p202
tp203
Rp204
sa(dp205
S'action'
p206
S'delete'
p207
sS'order'
p208
F1523916166.567136
sS'objid'
p209
g8
(g12
S'\x03\x00\x00\x00\x00\x00\x00\x00'
p210
tp211
Rp212
sa.