(lp0
(dp1
S'action'
p2
S'delete'
p3
sS'order'
p4
F1523929076.870472
sS'objid'
p5
cnumpy.core.multiarray
scalar
p6
(cnumpy
dtype
p7
(S'i8'
p8
I0
I1
tp9
Rp10
(I3
S'<'
p11
NNNI-1
I-1
I0
tp12
bS'5\x01\x00\x00\x00\x00\x00\x00'
p13
tp14
Rp15
sa(dp16
S'action'
p17
S'delete'
p18
sS'order'
p19
F1523929076.871538
sS'objid'
p20
g6
(g10
S'4\x01\x00\x00\x00\x00\x00\x00'
p21
tp22
Rp23
sa(dp24
S'action'
p25
S'delete'
p26
sS'order'
p27
F1523929076.872473
sS'objid'
p28
g6
(g10
S'3\x01\x00\x00\x00\x00\x00\x00'
p29
tp30
Rp31
sa(dp32
S'action'
p33
S'delete'
p34
sS'order'
p35
F1523929076.873412
sS'objid'
p36
g6
(g10
S'2\x01\x00\x00\x00\x00\x00\x00'
p37
tp38
Rp39
sa(dp40
S'action'
p41
S'delete'
p42
sS'order'
p43
F1523929076.874404
sS'objid'
p44
g6
(g10
S'1\x01\x00\x00\x00\x00\x00\x00'
p45
tp46
Rp47
sa(dp48
S'action'
p49
S'delete'
p50
sS'order'
p51
F1523929076.875473
sS'objid'
p52
g6
(g10
S'0\x01\x00\x00\x00\x00\x00\x00'
p53
tp54
Rp55
sa(dp56
S'action'
p57
S'delete'
p58
sS'order'
p59
F1523929076.87659
sS'objid'
p60
g6
(g10
S'/\x01\x00\x00\x00\x00\x00\x00'
p61
tp62
Rp63
sa(dp64
S'action'
p65
S'delete'
p66
sS'order'
p67
F1523929076.877779
sS'objid'
p68
g6
(g10
S'.\x01\x00\x00\x00\x00\x00\x00'
p69
tp70
Rp71
sa(dp72
S'action'
p73
S'delete'
p74
sS'order'
p75
F1523929076.879028
sS'objid'
p76
g6
(g10
S'-\x01\x00\x00\x00\x00\x00\x00'
p77
tp78
Rp79
sa(dp80
S'action'
p81
S'delete'
p82
sS'order'
p83
F1523929076.880271
sS'objid'
p84
g6
(g10
S',\x01\x00\x00\x00\x00\x00\x00'
p85
tp86
Rp87
sa(dp88
S'action'
p89
S'delete'
p90
sS'order'
p91
F1523929076.881574
sS'objid'
p92
g6
(g10
S'+\x01\x00\x00\x00\x00\x00\x00'
p93
tp94
Rp95
sa(dp96
S'action'
p97
S'delete'
p98
sS'order'
p99
F1523929076.882918
sS'objid'
p100
g6
(g10
S'*\x01\x00\x00\x00\x00\x00\x00'
p101
tp102
Rp103
sa(dp104
S'action'
p105
S'delete'
p106
sS'order'
p107
F1523929076.884331
sS'objid'
p108
g6
(g10
S')\x01\x00\x00\x00\x00\x00\x00'
p109
tp110
Rp111
sa(dp112
S'action'
p113
S'delete'
p114
sS'order'
p115
F1523929076.885787
sS'objid'
p116
g6
(g10
S'(\x01\x00\x00\x00\x00\x00\x00'
p117
tp118
Rp119
sa(dp120
S'action'
p121
S'delete'
p122
sS'order'
p123
F1523929076.887293
sS'objid'
p124
g6
(g10
S"'\x01\x00\x00\x00\x00\x00\x00"
p125
tp126
Rp127
sa(dp128
S'action'
p129
S'delete'
p130
sS'order'
p131
F1523929076.888852
sS'objid'
p132
g6
(g10
S'&\x01\x00\x00\x00\x00\x00\x00'
p133
tp134
Rp135
sa(dp136
S'action'
p137
S'delete'
p138
sS'order'
p139
F1523929076.890472
sS'objid'
p140
g6
(g10
S'%\x01\x00\x00\x00\x00\x00\x00'
p141
tp142
Rp143
sa(dp144
S'action'
p145
S'delete'
p146
sS'order'
p147
F1523929076.892151
sS'objid'
p148
g6
(g10
S'$\x01\x00\x00\x00\x00\x00\x00'
p149
tp150
Rp151
sa(dp152
S'action'
p153
S'delete'
p154
sS'order'
p155
F1523929076.893874
sS'objid'
p156
g6
(g10
S'#\x01\x00\x00\x00\x00\x00\x00'
p157
tp158
Rp159
sa(dp160
S'action'
p161
S'delete'
p162
sS'order'
p163
F1523929076.895666
sS'objid'
p164
g6
(g10
S'"\x01\x00\x00\x00\x00\x00\x00'
p165
tp166
Rp167
sa(dp168
S'action'
p169
S'delete'
p170
sS'order'
p171
F1523929076.897555
sS'objid'
p172
g6
(g10
S'!\x01\x00\x00\x00\x00\x00\x00'
p173
tp174
Rp175
sa(dp176
S'action'
p177
S'delete'
p178
sS'order'
p179
F1523929076.899454
sS'objid'
p180
g6
(g10
S' \x01\x00\x00\x00\x00\x00\x00'
p181
tp182
Rp183
sa(dp184
S'action'
p185
S'delete'
p186
sS'order'
p187
F1523929076.901425
sS'objid'
p188
g6
(g10
S'\x1f\x01\x00\x00\x00\x00\x00\x00'
p189
tp190
Rp191
sa(dp192
S'action'
p193
S'delete'
p194
sS'order'
p195
F1523929076.903446
sS'objid'
p196
g6
(g10
S'\x1e\x01\x00\x00\x00\x00\x00\x00'
p197
tp198
Rp199
sa(dp200
S'action'
p201
S'delete'
p202
sS'order'
p203
F1523929076.905533
sS'objid'
p204
g6
(g10
S'\x1d\x01\x00\x00\x00\x00\x00\x00'
p205
tp206
Rp207
sa(dp208
S'action'
p209
S'delete'
p210
sS'order'
p211
F1523929076.907678
sS'objid'
p212
g6
(g10
S'\x1c\x01\x00\x00\x00\x00\x00\x00'
p213
tp214
Rp215
sa(dp216
S'action'
p217
S'delete'
p218
sS'order'
p219
F1523929076.90987
sS'objid'
p220
g6
(g10
S'\x1b\x01\x00\x00\x00\x00\x00\x00'
p221
tp222
Rp223
sa(dp224
S'action'
p225
S'delete'
p226
sS'order'
p227
F1523929076.912117
sS'objid'
p228
g6
(g10
S'\x1a\x01\x00\x00\x00\x00\x00\x00'
p229
tp230
Rp231
sa(dp232
S'action'
p233
S'delete'
p234
sS'order'
p235
F1523929076.914439
sS'objid'
p236
g6
(g10
S'\x02\x00\x00\x00\x00\x00\x00\x00'
p237
tp238
Rp239
sa(dp240
S'action'
p241
S'delete'
p242
sS'order'
p243
F1523929085.649292
sS'objid'
p244
g6
(g10
S'\x19\x01\x00\x00\x00\x00\x00\x00'
p245
tp246
Rp247
sa(dp248
S'action'
p249
S'delete'
p250
sS'order'
p251
F1523929085.652642
sS'objid'
p252
g6
(g10
S'\x18\x01\x00\x00\x00\x00\x00\x00'
p253
tp254
Rp255
sa(dp256
S'action'
p257
S'delete'
p258
sS'order'
p259
F1523929085.655915
sS'objid'
p260
g6
(g10
S'\x17\x01\x00\x00\x00\x00\x00\x00'
p261
tp262
Rp263
sa(dp264
S'action'
p265
S'delete'
p266
sS'order'
p267
F1523929085.659933
sS'objid'
p268
g6
(g10
S'\x16\x01\x00\x00\x00\x00\x00\x00'
p269
tp270
Rp271
sa(dp272
S'action'
p273
S'delete'
p274
sS'order'
p275
F1523929085.663853
sS'objid'
p276
g6
(g10
S'\x15\x01\x00\x00\x00\x00\x00\x00'
p277
tp278
Rp279
sa(dp280
S'action'
p281
S'delete'
p282
sS'order'
p283
F1523929085.666478
sS'objid'
p284
g6
(g10
S'\x14\x01\x00\x00\x00\x00\x00\x00'
p285
tp286
Rp287
sa(dp288
S'action'
p289
S'delete'
p290
sS'order'
p291
F1523929085.6692
sS'objid'
p292
g6
(g10
S'\x13\x01\x00\x00\x00\x00\x00\x00'
p293
tp294
Rp295
sa(dp296
S'action'
p297
S'delete'
p298
sS'order'
p299
F1523929085.671955
sS'objid'
p300
g6
(g10
S'\x12\x01\x00\x00\x00\x00\x00\x00'
p301
tp302
Rp303
sa(dp304
S'action'
p305
S'delete'
p306
sS'order'
p307
F1523929085.674752
sS'objid'
p308
g6
(g10
S'\x11\x01\x00\x00\x00\x00\x00\x00'
p309
tp310
Rp311
sa(dp312
S'action'
p313
S'delete'
p314
sS'order'
p315
F1523929085.677842
sS'objid'
p316
g6
(g10
S'\x10\x01\x00\x00\x00\x00\x00\x00'
p317
tp318
Rp319
sa(dp320
S'action'
p321
S'delete'
p322
sS'order'
p323
F1523929085.680771
sS'objid'
p324
g6
(g10
S'\x0f\x01\x00\x00\x00\x00\x00\x00'
p325
tp326
Rp327
sa(dp328
S'action'
p329
S'delete'
p330
sS'order'
p331
F1523929085.683766
sS'objid'
p332
g6
(g10
S'\x0e\x01\x00\x00\x00\x00\x00\x00'
p333
tp334
Rp335
sa(dp336
S'action'
p337
S'delete'
p338
sS'order'
p339
F1523929085.686941
sS'objid'
p340
g6
(g10
S'\r\x01\x00\x00\x00\x00\x00\x00'
p341
tp342
Rp343
sa(dp344
S'action'
p345
S'delete'
p346
sS'order'
p347
F1523929085.690038
sS'objid'
p348
g6
(g10
S'\x0c\x01\x00\x00\x00\x00\x00\x00'
p349
tp350
Rp351
sa(dp352
S'action'
p353
S'delete'
p354
sS'order'
p355
F1523929085.693199
sS'objid'
p356
g6
(g10
S'\x0b\x01\x00\x00\x00\x00\x00\x00'
p357
tp358
Rp359
sa(dp360
S'action'
p361
S'delete'
p362
sS'order'
p363
F1523929085.69642
sS'objid'
p364
g6
(g10
S'\n\x01\x00\x00\x00\x00\x00\x00'
p365
tp366
Rp367
sa(dp368
S'action'
p369
S'delete'
p370
sS'order'
p371
F1523929085.699696
sS'objid'
p372
g6
(g10
S'\t\x01\x00\x00\x00\x00\x00\x00'
p373
tp374
Rp375
sa(dp376
S'action'
p377
S'delete'
p378
sS'order'
p379
F1523929085.703032
sS'objid'
p380
g6
(g10
S'\x08\x01\x00\x00\x00\x00\x00\x00'
p381
tp382
Rp383
sa(dp384
S'action'
p385
S'delete'
p386
sS'order'
p387
F1523929085.706432
sS'objid'
p388
g6
(g10
S'\x07\x01\x00\x00\x00\x00\x00\x00'
p389
tp390
Rp391
sa(dp392
S'action'
p393
S'delete'
p394
sS'order'
p395
F1523929085.709893
sS'objid'
p396
g6
(g10
S'\x06\x01\x00\x00\x00\x00\x00\x00'
p397
tp398
Rp399
sa(dp400
S'action'
p401
S'delete'
p402
sS'order'
p403
F1523929085.713403
sS'objid'
p404
g6
(g10
S'\x05\x01\x00\x00\x00\x00\x00\x00'
p405
tp406
Rp407
sa(dp408
S'action'
p409
S'delete'
p410
sS'order'
p411
F1523929085.71697
sS'objid'
p412
g6
(g10
S'\x04\x01\x00\x00\x00\x00\x00\x00'
p413
tp414
Rp415
sa(dp416
S'action'
p417
S'delete'
p418
sS'order'
p419
F1523929085.720579
sS'objid'
p420
g6
(g10
S'\x03\x01\x00\x00\x00\x00\x00\x00'
p421
tp422
Rp423
sa(dp424
S'action'
p425
S'delete'
p426
sS'order'
p427
F1523929085.72425
sS'objid'
p428
g6
(g10
S'\x02\x01\x00\x00\x00\x00\x00\x00'
p429
tp430
Rp431
sa(dp432
S'action'
p433
S'delete'
p434
sS'order'
p435
F1523929085.727999
sS'objid'
p436
g6
(g10
S'\x01\x01\x00\x00\x00\x00\x00\x00'
p437
tp438
Rp439
sa(dp440
S'action'
p441
S'delete'
p442
sS'order'
p443
F1523929085.731798
sS'objid'
p444
g6
(g10
S'\x00\x01\x00\x00\x00\x00\x00\x00'
p445
tp446
Rp447
sa(dp448
S'action'
p449
S'delete'
p450
sS'order'
p451
F1523929085.735638
sS'objid'
p452
g6
(g10
S'\xff\x00\x00\x00\x00\x00\x00\x00'
p453
tp454
Rp455
sa(dp456
S'action'
p457
S'delete'
p458
sS'order'
p459
F1523929085.739582
sS'objid'
p460
g6
(g10
S'\xfe\x00\x00\x00\x00\x00\x00\x00'
p461
tp462
Rp463
sa(dp464
S'action'
p465
S'delete'
p466
sS'order'
p467
F1523929085.743605
sS'objid'
p468
g6
(g10
S'\xfd\x00\x00\x00\x00\x00\x00\x00'
p469
tp470
Rp471
sa(dp472
S'action'
p473
S'delete'
p474
sS'order'
p475
F1523929085.747658
sS'objid'
p476
g6
(g10
S'\xfc\x00\x00\x00\x00\x00\x00\x00'
p477
tp478
Rp479
sa(dp480
S'action'
p481
S'delete'
p482
sS'order'
p483
F1523929085.751808
sS'objid'
p484
g6
(g10
S'\xfb\x00\x00\x00\x00\x00\x00\x00'
p485
tp486
Rp487
sa(dp488
S'action'
p489
S'delete'
p490
sS'order'
p491
F1523929093.501266
sS'objid'
p492
g6
(g10
S'\xfa\x00\x00\x00\x00\x00\x00\x00'
p493
tp494
Rp495
sa(dp496
S'action'
p497
S'delete'
p498
sS'order'
p499
F1523929093.506725
sS'objid'
p500
g6
(g10
S'\xf9\x00\x00\x00\x00\x00\x00\x00'
p501
tp502
Rp503
sa(dp504
S'action'
p505
S'delete'
p506
sS'order'
p507
F1523929093.512453
sS'objid'
p508
g6
(g10
S'\xf8\x00\x00\x00\x00\x00\x00\x00'
p509
tp510
Rp511
sa(dp512
S'action'
p513
S'delete'
p514
sS'order'
p515
F1523929093.518055
sS'objid'
p516
g6
(g10
S'\xf7\x00\x00\x00\x00\x00\x00\x00'
p517
tp518
Rp519
sa(dp520
S'action'
p521
S'delete'
p522
sS'order'
p523
F1523929093.522445
sS'objid'
p524
g6
(g10
S'\xf6\x00\x00\x00\x00\x00\x00\x00'
p525
tp526
Rp527
sa(dp528
S'action'
p529
S'delete'
p530
sS'order'
p531
F1523929093.526937
sS'objid'
p532
g6
(g10
S'\xf5\x00\x00\x00\x00\x00\x00\x00'
p533
tp534
Rp535
sa(dp536
S'action'
p537
S'delete'
p538
sS'order'
p539
F1523929093.531509
sS'objid'
p540
g6
(g10
S'\xf4\x00\x00\x00\x00\x00\x00\x00'
p541
tp542
Rp543
sa(dp544
S'action'
p545
S'delete'
p546
sS'order'
p547
F1523929093.536083
sS'objid'
p548
g6
(g10
S'\xf3\x00\x00\x00\x00\x00\x00\x00'
p549
tp550
Rp551
sa(dp552
S'action'
p553
S'delete'
p554
sS'order'
p555
F1523929093.540768
sS'objid'
p556
g6
(g10
S'\xf2\x00\x00\x00\x00\x00\x00\x00'
p557
tp558
Rp559
sa(dp560
S'action'
p561
S'delete'
p562
sS'order'
p563
F1523929093.545434
sS'objid'
p564
g6
(g10
S'\xf1\x00\x00\x00\x00\x00\x00\x00'
p565
tp566
Rp567
sa(dp568
S'action'
p569
S'delete'
p570
sS'order'
p571
F1523929093.550184
sS'objid'
p572
g6
(g10
S'\xf0\x00\x00\x00\x00\x00\x00\x00'
p573
tp574
Rp575
sa(dp576
S'action'
p577
S'delete'
p578
sS'order'
p579
F1523929093.554972
sS'objid'
p580
g6
(g10
S'\xef\x00\x00\x00\x00\x00\x00\x00'
p581
tp582
Rp583
sa(dp584
S'action'
p585
S'delete'
p586
sS'order'
p587
F1523929093.559865
sS'objid'
p588
g6
(g10
S'\xee\x00\x00\x00\x00\x00\x00\x00'
p589
tp590
Rp591
sa(dp592
S'action'
p593
S'delete'
p594
sS'order'
p595
F1523929093.564791
sS'objid'
p596
g6
(g10
S'\xed\x00\x00\x00\x00\x00\x00\x00'
p597
tp598
Rp599
sa(dp600
S'action'
p601
S'delete'
p602
sS'order'
p603
F1523929093.569754
sS'objid'
p604
g6
(g10
S'\xec\x00\x00\x00\x00\x00\x00\x00'
p605
tp606
Rp607
sa(dp608
S'action'
p609
S'delete'
p610
sS'order'
p611
F1523929093.574787
sS'objid'
p612
g6
(g10
S'\xeb\x00\x00\x00\x00\x00\x00\x00'
p613
tp614
Rp615
sa(dp616
S'action'
p617
S'delete'
p618
sS'order'
p619
F1523929093.579914
sS'objid'
p620
g6
(g10
S'\xea\x00\x00\x00\x00\x00\x00\x00'
p621
tp622
Rp623
sa(dp624
S'action'
p625
S'delete'
p626
sS'order'
p627
F1523929093.585056
sS'objid'
p628
g6
(g10
S'\xe9\x00\x00\x00\x00\x00\x00\x00'
p629
tp630
Rp631
sa(dp632
S'action'
p633
S'delete'
p634
sS'order'
p635
F1523929093.590291
sS'objid'
p636
g6
(g10
S'\xe8\x00\x00\x00\x00\x00\x00\x00'
p637
tp638
Rp639
sa(dp640
S'action'
p641
S'delete'
p642
sS'order'
p643
F1523929093.595556
sS'objid'
p644
g6
(g10
S'\xe7\x00\x00\x00\x00\x00\x00\x00'
p645
tp646
Rp647
sa(dp648
S'action'
p649
S'delete'
p650
sS'order'
p651
F1523929093.600915
sS'objid'
p652
g6
(g10
S'\xe6\x00\x00\x00\x00\x00\x00\x00'
p653
tp654
Rp655
sa(dp656
S'action'
p657
S'delete'
p658
sS'order'
p659
F1523929093.606397
sS'objid'
p660
g6
(g10
S'\xe5\x00\x00\x00\x00\x00\x00\x00'
p661
tp662
Rp663
sa(dp664
S'action'
p665
S'delete'
p666
sS'order'
p667
F1523929093.611885
sS'objid'
p668
g6
(g10
S'\xe4\x00\x00\x00\x00\x00\x00\x00'
p669
tp670
Rp671
sa(dp672
S'action'
p673
S'delete'
p674
sS'order'
p675
F1523929093.617365
sS'objid'
p676
g6
(g10
S'\xe3\x00\x00\x00\x00\x00\x00\x00'
p677
tp678
Rp679
sa(dp680
S'action'
p681
S'delete'
p682
sS'order'
p683
F1523929093.622928
sS'objid'
p684
g6
(g10
S'\xe2\x00\x00\x00\x00\x00\x00\x00'
p685
tp686
Rp687
sa(dp688
S'action'
p689
S'delete'
p690
sS'order'
p691
F1523929093.628548
sS'objid'
p692
g6
(g10
S'\xe1\x00\x00\x00\x00\x00\x00\x00'
p693
tp694
Rp695
sa(dp696
S'action'
p697
S'delete'
p698
sS'order'
p699
F1523929093.634184
sS'objid'
p700
g6
(g10
S'\xe0\x00\x00\x00\x00\x00\x00\x00'
p701
tp702
Rp703
sa(dp704
S'action'
p705
S'delete'
p706
sS'order'
p707
F1523929093.639921
sS'objid'
p708
g6
(g10
S'\xdf\x00\x00\x00\x00\x00\x00\x00'
p709
tp710
Rp711
sa(dp712
S'action'
p713
S'delete'
p714
sS'order'
p715
F1523929093.645703
sS'objid'
p716
g6
(g10
S'\xde\x00\x00\x00\x00\x00\x00\x00'
p717
tp718
Rp719
sa(dp720
S'action'
p721
S'delete'
p722
sS'order'
p723
F1523929101.412751
sS'objid'
p724
g6
(g10
S'\xdd\x00\x00\x00\x00\x00\x00\x00'
p725
tp726
Rp727
sa(dp728
S'action'
p729
S'delete'
p730
sS'order'
p731
F1523929101.418939
sS'objid'
p732
g6
(g10
S'\xdc\x00\x00\x00\x00\x00\x00\x00'
p733
tp734
Rp735
sa(dp736
S'action'
p737
S'delete'
p738
sS'order'
p739
F1523929101.427293
sS'objid'
p740
g6
(g10
S'\xdb\x00\x00\x00\x00\x00\x00\x00'
p741
tp742
Rp743
sa(dp744
S'action'
p745
S'delete'
p746
sS'order'
p747
F1523929101.433379
sS'objid'
p748
g6
(g10
S'\xda\x00\x00\x00\x00\x00\x00\x00'
p749
tp750
Rp751
sa(dp752
S'action'
p753
S'delete'
p754
sS'order'
p755
F1523929101.439634
sS'objid'
p756
g6
(g10
S'\xd9\x00\x00\x00\x00\x00\x00\x00'
p757
tp758
Rp759
sa(dp760
S'action'
p761
S'delete'
p762
sS'order'
p763
F1523929101.445868
sS'objid'
p764
g6
(g10
S'\xd8\x00\x00\x00\x00\x00\x00\x00'
p765
tp766
Rp767
sa(dp768
S'action'
p769
S'delete'
p770
sS'order'
p771
F1523929101.452227
sS'objid'
p772
g6
(g10
S'\xd7\x00\x00\x00\x00\x00\x00\x00'
p773
tp774
Rp775
sa(dp776
S'action'
p777
S'delete'
p778
sS'order'
p779
F1523929101.46036
sS'objid'
p780
g6
(g10
S'\xd6\x00\x00\x00\x00\x00\x00\x00'
p781
tp782
Rp783
sa(dp784
S'action'
p785
S'delete'
p786
sS'order'
p787
F1523929101.467226
sS'objid'
p788
g6
(g10
S'\xd5\x00\x00\x00\x00\x00\x00\x00'
p789
tp790
Rp791
sa(dp792
S'action'
p793
S'delete'
p794
sS'order'
p795
F1523929101.473599
sS'objid'
p796
g6
(g10
S'\xd4\x00\x00\x00\x00\x00\x00\x00'
p797
tp798
Rp799
sa(dp800
S'action'
p801
S'delete'
p802
sS'order'
p803
F1523929101.480006
sS'objid'
p804
g6
(g10
S'\xd3\x00\x00\x00\x00\x00\x00\x00'
p805
tp806
Rp807
sa(dp808
S'action'
p809
S'delete'
p810
sS'order'
p811
F1523929101.486484
sS'objid'
p812
g6
(g10
S'\xd2\x00\x00\x00\x00\x00\x00\x00'
p813
tp814
Rp815
sa(dp816
S'action'
p817
S'delete'
p818
sS'order'
p819
F1523929101.492956
sS'objid'
p820
g6
(g10
S'\xd1\x00\x00\x00\x00\x00\x00\x00'
p821
tp822
Rp823
sa(dp824
S'action'
p825
S'delete'
p826
sS'order'
p827
F1523929101.499549
sS'objid'
p828
g6
(g10
S'\xd0\x00\x00\x00\x00\x00\x00\x00'
p829
tp830
Rp831
sa(dp832
S'action'
p833
S'delete'
p834
sS'order'
p835
F1523929101.50615
sS'objid'
p836
g6
(g10
S'\xcf\x00\x00\x00\x00\x00\x00\x00'
p837
tp838
Rp839
sa(dp840
S'action'
p841
S'delete'
p842
sS'order'
p843
F1523929101.512835
sS'objid'
p844
g6
(g10
S'\xce\x00\x00\x00\x00\x00\x00\x00'
p845
tp846
Rp847
sa(dp848
S'action'
p849
S'delete'
p850
sS'order'
p851
F1523929101.51956
sS'objid'
p852
g6
(g10
S'\xcd\x00\x00\x00\x00\x00\x00\x00'
p853
tp854
Rp855
sa(dp856
S'action'
p857
S'delete'
p858
sS'order'
p859
F1523929101.526345
sS'objid'
p860
g6
(g10
S'\xcc\x00\x00\x00\x00\x00\x00\x00'
p861
tp862
Rp863
sa(dp864
S'action'
p865
S'delete'
p866
sS'order'
p867
F1523929101.533174
sS'objid'
p868
g6
(g10
S'\xcb\x00\x00\x00\x00\x00\x00\x00'
p869
tp870
Rp871
sa(dp872
S'action'
p873
S'delete'
p874
sS'order'
p875
F1523929101.540127
sS'objid'
p876
g6
(g10
S'\xca\x00\x00\x00\x00\x00\x00\x00'
p877
tp878
Rp879
sa(dp880
S'action'
p881
S'delete'
p882
sS'order'
p883
F1523929101.54708
sS'objid'
p884
g6
(g10
S'\xc9\x00\x00\x00\x00\x00\x00\x00'
p885
tp886
Rp887
sa(dp888
S'action'
p889
S'delete'
p890
sS'order'
p891
F1523929101.554234
sS'objid'
p892
g6
(g10
S'\xc8\x00\x00\x00\x00\x00\x00\x00'
p893
tp894
Rp895
sa(dp896
S'action'
p897
S'delete'
p898
sS'order'
p899
F1523929101.561352
sS'objid'
p900
g6
(g10
S'\xc7\x00\x00\x00\x00\x00\x00\x00'
p901
tp902
Rp903
sa(dp904
S'action'
p905
S'delete'
p906
sS'order'
p907
F1523929101.568507
sS'objid'
p908
g6
(g10
S'\xc6\x00\x00\x00\x00\x00\x00\x00'
p909
tp910
Rp911
sa(dp912
S'action'
p913
S'delete'
p914
sS'order'
p915
F1523929101.575681
sS'objid'
p916
g6
(g10
S'\xc5\x00\x00\x00\x00\x00\x00\x00'
p917
tp918
Rp919
sa(dp920
S'action'
p921
S'delete'
p922
sS'order'
p923
F1523929101.582936
sS'objid'
p924
g6
(g10
S'\xc4\x00\x00\x00\x00\x00\x00\x00'
p925
tp926
Rp927
sa(dp928
S'action'
p929
S'delete'
p930
sS'order'
p931
F1523929101.590246
sS'objid'
p932
g6
(g10
S'\xc3\x00\x00\x00\x00\x00\x00\x00'
p933
tp934
Rp935
sa(dp936
S'action'
p937
S'delete'
p938
sS'order'
p939
F1523929101.597622
sS'objid'
p940
g6
(g10
S'\xc2\x00\x00\x00\x00\x00\x00\x00'
p941
tp942
Rp943
sa(dp944
S'action'
p945
S'delete'
p946
sS'order'
p947
F1523929101.605065
sS'objid'
p948
g6
(g10
S'\xc1\x00\x00\x00\x00\x00\x00\x00'
p949
tp950
Rp951
sa(dp952
S'action'
p953
S'delete'
p954
sS'order'
p955
F1523929101.612568
sS'objid'
p956
g6
(g10
S'\xc0\x00\x00\x00\x00\x00\x00\x00'
p957
tp958
Rp959
sa(dp960
S'action'
p961
S'delete'
p962
sS'order'
p963
F1523929107.351193
sS'objid'
p964
g6
(g10
S'\xbf\x00\x00\x00\x00\x00\x00\x00'
p965
tp966
Rp967
sa(dp968
S'action'
p969
S'delete'
p970
sS'order'
p971
F1523929107.361208
sS'objid'
p972
g6
(g10
S'\xbe\x00\x00\x00\x00\x00\x00\x00'
p973
tp974
Rp975
sa(dp976
S'action'
p977
S'delete'
p978
sS'order'
p979
F1523929107.37437
sS'objid'
p980
g6
(g10
S'\xbd\x00\x00\x00\x00\x00\x00\x00'
p981
tp982
Rp983
sa(dp984
S'action'
p985
S'delete'
p986
sS'order'
p987
F1523929107.382214
sS'objid'
p988
g6
(g10
S'\xbc\x00\x00\x00\x00\x00\x00\x00'
p989
tp990
Rp991
sa(dp992
S'action'
p993
S'delete'
p994
sS'order'
p995
F1523929107.389995
sS'objid'
p996
g6
(g10
S'\xbb\x00\x00\x00\x00\x00\x00\x00'
p997
tp998
Rp999
sa(dp1000
S'action'
p1001
S'delete'
p1002
sS'order'
p1003
F1523929107.397864
sS'objid'
p1004
g6
(g10
S'\xba\x00\x00\x00\x00\x00\x00\x00'
p1005
tp1006
Rp1007
sa(dp1008
S'action'
p1009
S'delete'
p1010
sS'order'
p1011
F1523929107.405745
sS'objid'
p1012
g6
(g10
S'\xb9\x00\x00\x00\x00\x00\x00\x00'
p1013
tp1014
Rp1015
sa(dp1016
S'action'
p1017
S'delete'
p1018
sS'order'
p1019
F1523929107.413682
sS'objid'
p1020
g6
(g10
S'\xb8\x00\x00\x00\x00\x00\x00\x00'
p1021
tp1022
Rp1023
sa(dp1024
S'action'
p1025
S'delete'
p1026
sS'order'
p1027
F1523929107.421682
sS'objid'
p1028
g6
(g10
S'\xb7\x00\x00\x00\x00\x00\x00\x00'
p1029
tp1030
Rp1031
sa(dp1032
S'action'
p1033
S'delete'
p1034
sS'order'
p1035
F1523929107.429738
sS'objid'
p1036
g6
(g10
S'\xb6\x00\x00\x00\x00\x00\x00\x00'
p1037
tp1038
Rp1039
sa(dp1040
S'action'
p1041
S'delete'
p1042
sS'order'
p1043
F1523929107.438017
sS'objid'
p1044
g6
(g10
S'\xb5\x00\x00\x00\x00\x00\x00\x00'
p1045
tp1046
Rp1047
sa(dp1048
S'action'
p1049
S'delete'
p1050
sS'order'
p1051
F1523929107.446251
sS'objid'
p1052
g6
(g10
S'\xb4\x00\x00\x00\x00\x00\x00\x00'
p1053
tp1054
Rp1055
sa(dp1056
S'action'
p1057
S'delete'
p1058
sS'order'
p1059
F1523929107.45457
sS'objid'
p1060
g6
(g10
S'\xb3\x00\x00\x00\x00\x00\x00\x00'
p1061
tp1062
Rp1063
sa(dp1064
S'action'
p1065
S'delete'
p1066
sS'order'
p1067
F1523929107.462965
sS'objid'
p1068
g6
(g10
S'\xb2\x00\x00\x00\x00\x00\x00\x00'
p1069
tp1070
Rp1071
sa(dp1072
S'action'
p1073
S'delete'
p1074
sS'order'
p1075
F1523929107.471326
sS'objid'
p1076
g6
(g10
S'\xb1\x00\x00\x00\x00\x00\x00\x00'
p1077
tp1078
Rp1079
sa(dp1080
S'action'
p1081
S'delete'
p1082
sS'order'
p1083
F1523929107.479765
sS'objid'
p1084
g6
(g10
S'\xb0\x00\x00\x00\x00\x00\x00\x00'
p1085
tp1086
Rp1087
sa(dp1088
S'action'
p1089
S'delete'
p1090
sS'order'
p1091
F1523929107.488215
sS'objid'
p1092
g6
(g10
S'\xaf\x00\x00\x00\x00\x00\x00\x00'
p1093
tp1094
Rp1095
sa(dp1096
S'action'
p1097
S'delete'
p1098
sS'order'
p1099
F1523929107.496742
sS'objid'
p1100
g6
(g10
S'\xae\x00\x00\x00\x00\x00\x00\x00'
p1101
tp1102
Rp1103
sa(dp1104
S'action'
p1105
S'delete'
p1106
sS'order'
p1107
F1523929107.505297
sS'objid'
p1108
g6
(g10
S'\xad\x00\x00\x00\x00\x00\x00\x00'
p1109
tp1110
Rp1111
sa(dp1112
S'action'
p1113
S'delete'
p1114
sS'order'
p1115
F1523929107.513927
sS'objid'
p1116
g6
(g10
S'\xac\x00\x00\x00\x00\x00\x00\x00'
p1117
tp1118
Rp1119
sa(dp1120
S'action'
p1121
S'delete'
p1122
sS'order'
p1123
F1523929107.522631
sS'objid'
p1124
g6
(g10
S'\xab\x00\x00\x00\x00\x00\x00\x00'
p1125
tp1126
Rp1127
sa(dp1128
S'action'
p1129
S'delete'
p1130
sS'order'
p1131
F1523929107.531455
sS'objid'
p1132
g6
(g10
S'\xaa\x00\x00\x00\x00\x00\x00\x00'
p1133
tp1134
Rp1135
sa(dp1136
S'action'
p1137
S'delete'
p1138
sS'order'
p1139
F1523929107.540238
sS'objid'
p1140
g6
(g10
S'\xa9\x00\x00\x00\x00\x00\x00\x00'
p1141
tp1142
Rp1143
sa(dp1144
S'action'
p1145
S'delete'
p1146
sS'order'
p1147
F1523929107.549182
sS'objid'
p1148
g6
(g10
S'\xa8\x00\x00\x00\x00\x00\x00\x00'
p1149
tp1150
Rp1151
sa(dp1152
S'action'
p1153
S'delete'
p1154
sS'order'
p1155
F1523929107.558216
sS'objid'
p1156
g6
(g10
S'\xa7\x00\x00\x00\x00\x00\x00\x00'
p1157
tp1158
Rp1159
sa(dp1160
S'action'
p1161
S'delete'
p1162
sS'order'
p1163
F1523929107.567291
sS'objid'
p1164
g6
(g10
S'\xa6\x00\x00\x00\x00\x00\x00\x00'
p1165
tp1166
Rp1167
sa(dp1168
S'action'
p1169
S'delete'
p1170
sS'order'
p1171
F1523929107.576326
sS'objid'
p1172
g6
(g10
S'\xa5\x00\x00\x00\x00\x00\x00\x00'
p1173
tp1174
Rp1175
sa(dp1176
S'action'
p1177
S'delete'
p1178
sS'order'
p1179
F1523929107.585469
sS'objid'
p1180
g6
(g10
S'\xa4\x00\x00\x00\x00\x00\x00\x00'
p1181
tp1182
Rp1183
sa(dp1184
S'action'
p1185
S'delete'
p1186
sS'order'
p1187
F1523929107.594606
sS'objid'
p1188
g6
(g10
S'\xa3\x00\x00\x00\x00\x00\x00\x00'
p1189
tp1190
Rp1191
sa(dp1192
S'action'
p1193
S'delete'
p1194
sS'order'
p1195
F1523929107.603793
sS'objid'
p1196
g6
(g10
S'\xa2\x00\x00\x00\x00\x00\x00\x00'
p1197
tp1198
Rp1199
sa(dp1200
S'action'
p1201
S'delete'
p1202
sS'order'
p1203
F1523929107.61307
sS'objid'
p1204
g6
(g10
S'\xa1\x00\x00\x00\x00\x00\x00\x00'
p1205
tp1206
Rp1207
sa(dp1208
S'action'
p1209
S'delete'
p1210
sS'order'
p1211
F1523929107.62238
sS'objid'
p1212
g6
(g10
S'\xa0\x00\x00\x00\x00\x00\x00\x00'
p1213
tp1214
Rp1215
sa(dp1216
S'action'
p1217
S'delete'
p1218
sS'order'
p1219
F1523929107.631777
sS'objid'
p1220
g6
(g10
S'\x9f\x00\x00\x00\x00\x00\x00\x00'
p1221
tp1222
Rp1223
sa(dp1224
S'action'
p1225
S'delete'
p1226
sS'order'
p1227
F1523929115.38223
sS'objid'
p1228
g6
(g10
S'\x9e\x00\x00\x00\x00\x00\x00\x00'
p1229
tp1230
Rp1231
sa(dp1232
S'action'
p1233
S'delete'
p1234
sS'order'
p1235
F1523929115.404676
sS'objid'
p1236
g6
(g10
S'\x9d\x00\x00\x00\x00\x00\x00\x00'
p1237
tp1238
Rp1239
sa(dp1240
S'action'
p1241
S'delete'
p1242
sS'order'
p1243
F1523929115.418204
sS'objid'
p1244
g6
(g10
S'\x9c\x00\x00\x00\x00\x00\x00\x00'
p1245
tp1246
Rp1247
sa(dp1248
S'action'
p1249
S'delete'
p1250
sS'order'
p1251
F1523929115.430072
sS'objid'
p1252
g6
(g10
S'\x9b\x00\x00\x00\x00\x00\x00\x00'
p1253
tp1254
Rp1255
sa(dp1256
S'action'
p1257
S'delete'
p1258
sS'order'
p1259
F1523929115.439766
sS'objid'
p1260
g6
(g10
S'\x9a\x00\x00\x00\x00\x00\x00\x00'
p1261
tp1262
Rp1263
sa(dp1264
S'action'
p1265
S'delete'
p1266
sS'order'
p1267
F1523929115.449479
sS'objid'
p1268
g6
(g10
S'\x99\x00\x00\x00\x00\x00\x00\x00'
p1269
tp1270
Rp1271
sa(dp1272
S'action'
p1273
S'delete'
p1274
sS'order'
p1275
F1523929115.459276
sS'objid'
p1276
g6
(g10
S'\x98\x00\x00\x00\x00\x00\x00\x00'
p1277
tp1278
Rp1279
sa(dp1280
S'action'
p1281
S'delete'
p1282
sS'order'
p1283
F1523929115.469154
sS'objid'
p1284
g6
(g10
S'\x97\x00\x00\x00\x00\x00\x00\x00'
p1285
tp1286
Rp1287
sa(dp1288
S'action'
p1289
S'delete'
p1290
sS'order'
p1291
F1523929115.479028
sS'objid'
p1292
g6
(g10
S'\x96\x00\x00\x00\x00\x00\x00\x00'
p1293
tp1294
Rp1295
sa(dp1296
S'action'
p1297
S'delete'
p1298
sS'order'
p1299
F1523929115.488973
sS'objid'
p1300
g6
(g10
S'\x95\x00\x00\x00\x00\x00\x00\x00'
p1301
tp1302
Rp1303
sa(dp1304
S'action'
p1305
S'delete'
p1306
sS'order'
p1307
F1523929115.499114
sS'objid'
p1308
g6
(g10
S'\x94\x00\x00\x00\x00\x00\x00\x00'
p1309
tp1310
Rp1311
sa(dp1312
S'action'
p1313
S'delete'
p1314
sS'order'
p1315
F1523929115.509428
sS'objid'
p1316
g6
(g10
S'\x93\x00\x00\x00\x00\x00\x00\x00'
p1317
tp1318
Rp1319
sa(dp1320
S'action'
p1321
S'delete'
p1322
sS'order'
p1323
F1523929115.519593
sS'objid'
p1324
g6
(g10
S'\x92\x00\x00\x00\x00\x00\x00\x00'
p1325
tp1326
Rp1327
sa(dp1328
S'action'
p1329
S'delete'
p1330
sS'order'
p1331
F1523929115.529764
sS'objid'
p1332
g6
(g10
S'\x91\x00\x00\x00\x00\x00\x00\x00'
p1333
tp1334
Rp1335
sa(dp1336
S'action'
p1337
S'delete'
p1338
sS'order'
p1339
F1523929115.540056
sS'objid'
p1340
g6
(g10
S'\x90\x00\x00\x00\x00\x00\x00\x00'
p1341
tp1342
Rp1343
sa(dp1344
S'action'
p1345
S'delete'
p1346
sS'order'
p1347
F1523929115.55037
sS'objid'
p1348
g6
(g10
S'\x8f\x00\x00\x00\x00\x00\x00\x00'
p1349
tp1350
Rp1351
sa(dp1352
S'action'
p1353
S'delete'
p1354
sS'order'
p1355
F1523929115.560892
sS'objid'
p1356
g6
(g10
S'\x8e\x00\x00\x00\x00\x00\x00\x00'
p1357
tp1358
Rp1359
sa(dp1360
S'action'
p1361
S'delete'
p1362
sS'order'
p1363
F1523929115.571317
sS'objid'
p1364
g6
(g10
S'\x8d\x00\x00\x00\x00\x00\x00\x00'
p1365
tp1366
Rp1367
sa(dp1368
S'action'
p1369
S'delete'
p1370
sS'order'
p1371
F1523929115.581869
sS'objid'
p1372
g6
(g10
S'\x8c\x00\x00\x00\x00\x00\x00\x00'
p1373
tp1374
Rp1375
sa(dp1376
S'action'
p1377
S'delete'
p1378
sS'order'
p1379
F1523929115.592498
sS'objid'
p1380
g6
(g10
S'\x8b\x00\x00\x00\x00\x00\x00\x00'
p1381
tp1382
Rp1383
sa(dp1384
S'action'
p1385
S'delete'
p1386
sS'order'
p1387
F1523929115.603299
sS'objid'
p1388
g6
(g10
S'\x8a\x00\x00\x00\x00\x00\x00\x00'
p1389
tp1390
Rp1391
sa(dp1392
S'action'
p1393
S'delete'
p1394
sS'order'
p1395
F1523929115.61416
sS'objid'
p1396
g6
(g10
S'\x89\x00\x00\x00\x00\x00\x00\x00'
p1397
tp1398
Rp1399
sa(dp1400
S'action'
p1401
S'delete'
p1402
sS'order'
p1403
F1523929115.624961
sS'objid'
p1404
g6
(g10
S'\x88\x00\x00\x00\x00\x00\x00\x00'
p1405
tp1406
Rp1407
sa(dp1408
S'action'
p1409
S'delete'
p1410
sS'order'
p1411
F1523929115.635882
sS'objid'
p1412
g6
(g10
S'\x87\x00\x00\x00\x00\x00\x00\x00'
p1413
tp1414
Rp1415
sa(dp1416
S'action'
p1417
S'delete'
p1418
sS'order'
p1419
F1523929115.646742
sS'objid'
p1420
g6
(g10
S'\x86\x00\x00\x00\x00\x00\x00\x00'
p1421
tp1422
Rp1423
sa(dp1424
S'action'
p1425
S'delete'
p1426
sS'order'
p1427
F1523929115.657685
sS'objid'
p1428
g6
(g10
S'\x85\x00\x00\x00\x00\x00\x00\x00'
p1429
tp1430
Rp1431
sa(dp1432
S'action'
p1433
S'delete'
p1434
sS'order'
p1435
F1523929115.668707
sS'objid'
p1436
g6
(g10
S'\x84\x00\x00\x00\x00\x00\x00\x00'
p1437
tp1438
Rp1439
sa(dp1440
S'action'
p1441
S'delete'
p1442
sS'order'
p1443
F1523929115.679756
sS'objid'
p1444
g6
(g10
S'\x83\x00\x00\x00\x00\x00\x00\x00'
p1445
tp1446
Rp1447
sa(dp1448
S'action'
p1449
S'delete'
p1450
sS'order'
p1451
F1523929115.690838
sS'objid'
p1452
g6
(g10
S'\x82\x00\x00\x00\x00\x00\x00\x00'
p1453
tp1454
Rp1455
sa(dp1456
S'action'
p1457
S'delete'
p1458
sS'order'
p1459
F1523929115.702122
sS'objid'
p1460
g6
(g10
S'\x81\x00\x00\x00\x00\x00\x00\x00'
p1461
tp1462
Rp1463
sa(dp1464
S'action'
p1465
S'delete'
p1466
sS'order'
p1467
F1523929115.713497
sS'objid'
p1468
g6
(g10
S'\x80\x00\x00\x00\x00\x00\x00\x00'
p1469
tp1470
Rp1471
sa(dp1472
S'action'
p1473
S'delete'
p1474
sS'order'
p1475
F1523929123.269605
sS'objid'
p1476
g6
(g10
S'\x7f\x00\x00\x00\x00\x00\x00\x00'
p1477
tp1478
Rp1479
sa(dp1480
S'action'
p1481
S'delete'
p1482
sS'order'
p1483
F1523929123.286258
sS'objid'
p1484
g6
(g10
S'~\x00\x00\x00\x00\x00\x00\x00'
p1485
tp1486
Rp1487
sa(dp1488
S'action'
p1489
S'delete'
p1490
sS'order'
p1491
F1523929123.297841
sS'objid'
p1492
g6
(g10
S'}\x00\x00\x00\x00\x00\x00\x00'
p1493
tp1494
Rp1495
sa(dp1496
S'action'
p1497
S'delete'
p1498
sS'order'
p1499
F1523929123.309554
sS'objid'
p1500
g6
(g10
S'|\x00\x00\x00\x00\x00\x00\x00'
p1501
tp1502
Rp1503
sa(dp1504
S'action'
p1505
S'delete'
p1506
sS'order'
p1507
F1523929123.321306
sS'objid'
p1508
g6
(g10
S'{\x00\x00\x00\x00\x00\x00\x00'
p1509
tp1510
Rp1511
sa(dp1512
S'action'
p1513
S'delete'
p1514
sS'order'
p1515
F1523929123.333058
sS'objid'
p1516
g6
(g10
S'z\x00\x00\x00\x00\x00\x00\x00'
p1517
tp1518
Rp1519
sa(dp1520
S'action'
p1521
S'delete'
p1522
sS'order'
p1523
F1523929123.345147
sS'objid'
p1524
g6
(g10
S'y\x00\x00\x00\x00\x00\x00\x00'
p1525
tp1526
Rp1527
sa(dp1528
S'action'
p1529
S'delete'
p1530
sS'order'
p1531
F1523929123.366944
sS'objid'
p1532
g6
(g10
S'x\x00\x00\x00\x00\x00\x00\x00'
p1533
tp1534
Rp1535
sa(dp1536
S'action'
p1537
S'delete'
p1538
sS'order'
p1539
F1523929123.379306
sS'objid'
p1540
g6
(g10
S'w\x00\x00\x00\x00\x00\x00\x00'
p1541
tp1542
Rp1543
sa(dp1544
S'action'
p1545
S'delete'
p1546
sS'order'
p1547
F1523929123.391177
sS'objid'
p1548
g6
(g10
S'v\x00\x00\x00\x00\x00\x00\x00'
p1549
tp1550
Rp1551
sa(dp1552
S'action'
p1553
S'delete'
p1554
sS'order'
p1555
F1523929123.403113
sS'objid'
p1556
g6
(g10
S'u\x00\x00\x00\x00\x00\x00\x00'
p1557
tp1558
Rp1559
sa(dp1560
S'action'
p1561
S'delete'
p1562
sS'order'
p1563
F1523929123.415157
sS'objid'
p1564
g6
(g10
S't\x00\x00\x00\x00\x00\x00\x00'
p1565
tp1566
Rp1567
sa(dp1568
S'action'
p1569
S'delete'
p1570
sS'order'
p1571
F1523929123.427217
sS'objid'
p1572
g6
(g10
S's\x00\x00\x00\x00\x00\x00\x00'
p1573
tp1574
Rp1575
sa(dp1576
S'action'
p1577
S'delete'
p1578
sS'order'
p1579
F1523929123.439322
sS'objid'
p1580
g6
(g10
S'r\x00\x00\x00\x00\x00\x00\x00'
p1581
tp1582
Rp1583
sa(dp1584
S'action'
p1585
S'delete'
p1586
sS'order'
p1587
F1523929123.458939
sS'objid'
p1588
g6
(g10
S'q\x00\x00\x00\x00\x00\x00\x00'
p1589
tp1590
Rp1591
sa(dp1592
S'action'
p1593
S'delete'
p1594
sS'order'
p1595
F1523929123.474246
sS'objid'
p1596
g6
(g10
S'p\x00\x00\x00\x00\x00\x00\x00'
p1597
tp1598
Rp1599
sa(dp1600
S'action'
p1601
S'delete'
p1602
sS'order'
p1603
F1523929123.486508
sS'objid'
p1604
g6
(g10
S'o\x00\x00\x00\x00\x00\x00\x00'
p1605
tp1606
Rp1607
sa(dp1608
S'action'
p1609
S'delete'
p1610
sS'order'
p1611
F1523929123.498915
sS'objid'
p1612
g6
(g10
S'n\x00\x00\x00\x00\x00\x00\x00'
p1613
tp1614
Rp1615
sa(dp1616
S'action'
p1617
S'delete'
p1618
sS'order'
p1619
F1523929123.511334
sS'objid'
p1620
g6
(g10
S'm\x00\x00\x00\x00\x00\x00\x00'
p1621
tp1622
Rp1623
sa(dp1624
S'action'
p1625
S'delete'
p1626
sS'order'
p1627
F1523929123.523801
sS'objid'
p1628
g6
(g10
S'l\x00\x00\x00\x00\x00\x00\x00'
p1629
tp1630
Rp1631
sa(dp1632
S'action'
p1633
S'delete'
p1634
sS'order'
p1635
F1523929123.536325
sS'objid'
p1636
g6
(g10
S'k\x00\x00\x00\x00\x00\x00\x00'
p1637
tp1638
Rp1639
sa(dp1640
S'action'
p1641
S'delete'
p1642
sS'order'
p1643
F1523929123.551428
sS'objid'
p1644
g6
(g10
S'j\x00\x00\x00\x00\x00\x00\x00'
p1645
tp1646
Rp1647
sa(dp1648
S'action'
p1649
S'delete'
p1650
sS'order'
p1651
F1523929123.572359
sS'objid'
p1652
g6
(g10
S'i\x00\x00\x00\x00\x00\x00\x00'
p1653
tp1654
Rp1655
sa(dp1656
S'action'
p1657
S'delete'
p1658
sS'order'
p1659
F1523929123.585027
sS'objid'
p1660
g6
(g10
S'h\x00\x00\x00\x00\x00\x00\x00'
p1661
tp1662
Rp1663
sa(dp1664
S'action'
p1665
S'delete'
p1666
sS'order'
p1667
F1523929123.597799
sS'objid'
p1668
g6
(g10
S'g\x00\x00\x00\x00\x00\x00\x00'
p1669
tp1670
Rp1671
sa(dp1672
S'action'
p1673
S'delete'
p1674
sS'order'
p1675
F1523929123.610562
sS'objid'
p1676
g6
(g10
S'f\x00\x00\x00\x00\x00\x00\x00'
p1677
tp1678
Rp1679
sa(dp1680
S'action'
p1681
S'delete'
p1682
sS'order'
p1683
F1523929123.623447
sS'objid'
p1684
g6
(g10
S'e\x00\x00\x00\x00\x00\x00\x00'
p1685
tp1686
Rp1687
sa(dp1688
S'action'
p1689
S'delete'
p1690
sS'order'
p1691
F1523929123.636361
sS'objid'
p1692
g6
(g10
S'd\x00\x00\x00\x00\x00\x00\x00'
p1693
tp1694
Rp1695
sa(dp1696
S'action'
p1697
S'delete'
p1698
sS'order'
p1699
F1523929130.757414
sS'objid'
p1700
g6
(g10
S'c\x00\x00\x00\x00\x00\x00\x00'
p1701
tp1702
Rp1703
sa(dp1704
S'action'
p1705
S'delete'
p1706
sS'order'
p1707
F1523929130.773994
sS'objid'
p1708
g6
(g10
S'b\x00\x00\x00\x00\x00\x00\x00'
p1709
tp1710
Rp1711
sa(dp1712
S'action'
p1713
S'delete'
p1714
sS'order'
p1715
F1523929130.787583
sS'objid'
p1716
g6
(g10
S'a\x00\x00\x00\x00\x00\x00\x00'
p1717
tp1718
Rp1719
sa(dp1720
S'action'
p1721
S'delete'
p1722
sS'order'
p1723
F1523929130.800798
sS'objid'
p1724
g6
(g10
S'`\x00\x00\x00\x00\x00\x00\x00'
p1725
tp1726
Rp1727
sa(dp1728
S'action'
p1729
S'delete'
p1730
sS'order'
p1731
F1523929130.814063
sS'objid'
p1732
g6
(g10
S'_\x00\x00\x00\x00\x00\x00\x00'
p1733
tp1734
Rp1735
sa(dp1736
S'action'
p1737
S'delete'
p1738
sS'order'
p1739
F1523929130.82734
sS'objid'
p1740
g6
(g10
S'^\x00\x00\x00\x00\x00\x00\x00'
p1741
tp1742
Rp1743
sa(dp1744
S'action'
p1745
S'delete'
p1746
sS'order'
p1747
F1523929130.840551
sS'objid'
p1748
g6
(g10
S']\x00\x00\x00\x00\x00\x00\x00'
p1749
tp1750
Rp1751
sa(dp1752
S'action'
p1753
S'delete'
p1754
sS'order'
p1755
F1523929130.85387
sS'objid'
p1756
g6
(g10
S'\\\x00\x00\x00\x00\x00\x00\x00'
p1757
tp1758
Rp1759
sa(dp1760
S'action'
p1761
S'delete'
p1762
sS'order'
p1763
F1523929130.867167
sS'objid'
p1764
g6
(g10
S'[\x00\x00\x00\x00\x00\x00\x00'
p1765
tp1766
Rp1767
sa(dp1768
S'action'
p1769
S'delete'
p1770
sS'order'
p1771
F1523929130.880503
sS'objid'
p1772
g6
(g10
S'Z\x00\x00\x00\x00\x00\x00\x00'
p1773
tp1774
Rp1775
sa(dp1776
S'action'
p1777
S'delete'
p1778
sS'order'
p1779
F1523929130.893949
sS'objid'
p1780
g6
(g10
S'Y\x00\x00\x00\x00\x00\x00\x00'
p1781
tp1782
Rp1783
sa(dp1784
S'action'
p1785
S'delete'
p1786
sS'order'
p1787
F1523929130.907593
sS'objid'
p1788
g6
(g10
S'X\x00\x00\x00\x00\x00\x00\x00'
p1789
tp1790
Rp1791
sa(dp1792
S'action'
p1793
S'delete'
p1794
sS'order'
p1795
F1523929130.921296
sS'objid'
p1796
g6
(g10
S'W\x00\x00\x00\x00\x00\x00\x00'
p1797
tp1798
Rp1799
sa(dp1800
S'action'
p1801
S'delete'
p1802
sS'order'
p1803
F1523929130.934886
sS'objid'
p1804
g6
(g10
S'V\x00\x00\x00\x00\x00\x00\x00'
p1805
tp1806
Rp1807
sa(dp1808
S'action'
p1809
S'delete'
p1810
sS'order'
p1811
F1523929130.948535
sS'objid'
p1812
g6
(g10
S'U\x00\x00\x00\x00\x00\x00\x00'
p1813
tp1814
Rp1815
sa(dp1816
S'action'
p1817
S'delete'
p1818
sS'order'
p1819
F1523929130.962299
sS'objid'
p1820
g6
(g10
S'T\x00\x00\x00\x00\x00\x00\x00'
p1821
tp1822
Rp1823
sa(dp1824
S'action'
p1825
S'delete'
p1826
sS'order'
p1827
F1523929130.976104
sS'objid'
p1828
g6
(g10
S'S\x00\x00\x00\x00\x00\x00\x00'
p1829
tp1830
Rp1831
sa(dp1832
S'action'
p1833
S'delete'
p1834
sS'order'
p1835
F1523929130.989951
sS'objid'
p1836
g6
(g10
S'R\x00\x00\x00\x00\x00\x00\x00'
p1837
tp1838
Rp1839
sa(dp1840
S'action'
p1841
S'delete'
p1842
sS'order'
p1843
F1523929131.003906
sS'objid'
p1844
g6
(g10
S'Q\x00\x00\x00\x00\x00\x00\x00'
p1845
tp1846
Rp1847
sa(dp1848
S'action'
p1849
S'delete'
p1850
sS'order'
p1851
F1523929131.018062
sS'objid'
p1852
g6
(g10
S'P\x00\x00\x00\x00\x00\x00\x00'
p1853
tp1854
Rp1855
sa(dp1856
S'action'
p1857
S'delete'
p1858
sS'order'
p1859
F1523929131.032056
sS'objid'
p1860
g6
(g10
S'O\x00\x00\x00\x00\x00\x00\x00'
p1861
tp1862
Rp1863
sa(dp1864
S'action'
p1865
S'delete'
p1866
sS'order'
p1867
F1523929131.046132
sS'objid'
p1868
g6
(g10
S'N\x00\x00\x00\x00\x00\x00\x00'
p1869
tp1870
Rp1871
sa(dp1872
S'action'
p1873
S'delete'
p1874
sS'order'
p1875
F1523929131.060242
sS'objid'
p1876
g6
(g10
S'M\x00\x00\x00\x00\x00\x00\x00'
p1877
tp1878
Rp1879
sa(dp1880
S'action'
p1881
S'delete'
p1882
sS'order'
p1883
F1523929131.074442
sS'objid'
p1884
g6
(g10
S'L\x00\x00\x00\x00\x00\x00\x00'
p1885
tp1886
Rp1887
sa(dp1888
S'action'
p1889
S'delete'
p1890
sS'order'
p1891
F1523929131.08872
sS'objid'
p1892
g6
(g10
S'K\x00\x00\x00\x00\x00\x00\x00'
p1893
tp1894
Rp1895
sa(dp1896
S'action'
p1897
S'delete'
p1898
sS'order'
p1899
F1523929131.103003
sS'objid'
p1900
g6
(g10
S'J\x00\x00\x00\x00\x00\x00\x00'
p1901
tp1902
Rp1903
sa(dp1904
S'action'
p1905
S'delete'
p1906
sS'order'
p1907
F1523929131.117511
sS'objid'
p1908
g6
(g10
S'I\x00\x00\x00\x00\x00\x00\x00'
p1909
tp1910
Rp1911
sa(dp1912
S'action'
p1913
S'delete'
p1914
sS'order'
p1915
F1523929131.132076
sS'objid'
p1916
g6
(g10
S'H\x00\x00\x00\x00\x00\x00\x00'
p1917
tp1918
Rp1919
sa(dp1920
S'action'
p1921
S'delete'
p1922
sS'order'
p1923
F1523929131.146493
sS'objid'
p1924
g6
(g10
S'G\x00\x00\x00\x00\x00\x00\x00'
p1925
tp1926
Rp1927
sa(dp1928
S'action'
p1929
S'delete'
p1930
sS'order'
p1931
F1523929136.781862
sS'objid'
p1932
g6
(g10
S'F\x00\x00\x00\x00\x00\x00\x00'
p1933
tp1934
Rp1935
sa(dp1936
S'action'
p1937
S'delete'
p1938
sS'order'
p1939
F1523929136.802602
sS'objid'
p1940
g6
(g10
S'E\x00\x00\x00\x00\x00\x00\x00'
p1941
tp1942
Rp1943
sa(dp1944
S'action'
p1945
S'delete'
p1946
sS'order'
p1947
F1523929136.819772
sS'objid'
p1948
g6
(g10
S'D\x00\x00\x00\x00\x00\x00\x00'
p1949
tp1950
Rp1951
sa(dp1952
S'action'
p1953
S'delete'
p1954
sS'order'
p1955
F1523929136.844429
sS'objid'
p1956
g6
(g10
S'C\x00\x00\x00\x00\x00\x00\x00'
p1957
tp1958
Rp1959
sa(dp1960
S'action'
p1961
S'delete'
p1962
sS'order'
p1963
F1523929136.859858
sS'objid'
p1964
g6
(g10
S'B\x00\x00\x00\x00\x00\x00\x00'
p1965
tp1966
Rp1967
sa(dp1968
S'action'
p1969
S'delete'
p1970
sS'order'
p1971
F1523929136.88012
sS'objid'
p1972
g6
(g10
S'A\x00\x00\x00\x00\x00\x00\x00'
p1973
tp1974
Rp1975
sa(dp1976
S'action'
p1977
S'delete'
p1978
sS'order'
p1979
F1523929136.895128
sS'objid'
p1980
g6
(g10
S'@\x00\x00\x00\x00\x00\x00\x00'
p1981
tp1982
Rp1983
sa(dp1984
S'action'
p1985
S'delete'
p1986
sS'order'
p1987
F1523929136.910092
sS'objid'
p1988
g6
(g10
S'?\x00\x00\x00\x00\x00\x00\x00'
p1989
tp1990
Rp1991
sa(dp1992
S'action'
p1993
S'delete'
p1994
sS'order'
p1995
F1523929136.925222
sS'objid'
p1996
g6
(g10
S'>\x00\x00\x00\x00\x00\x00\x00'
p1997
tp1998
Rp1999
sa(dp2000
S'action'
p2001
S'delete'
p2002
sS'order'
p2003
F1523929136.940925
sS'objid'
p2004
g6
(g10
S'=\x00\x00\x00\x00\x00\x00\x00'
p2005
tp2006
Rp2007
sa(dp2008
S'action'
p2009
S'delete'
p2010
sS'order'
p2011
F1523929136.956722
sS'objid'
p2012
g6
(g10
S'<\x00\x00\x00\x00\x00\x00\x00'
p2013
tp2014
Rp2015
sa(dp2016
S'action'
p2017
S'delete'
p2018
sS'order'
p2019
F1523929136.971934
sS'objid'
p2020
g6
(g10
S';\x00\x00\x00\x00\x00\x00\x00'
p2021
tp2022
Rp2023
sa(dp2024
S'action'
p2025
S'delete'
p2026
sS'order'
p2027
F1523929136.98722
sS'objid'
p2028
g6
(g10
S':\x00\x00\x00\x00\x00\x00\x00'
p2029
tp2030
Rp2031
sa(dp2032
S'action'
p2033
S'delete'
p2034
sS'order'
p2035
F1523929137.002497
sS'objid'
p2036
g6
(g10
S'9\x00\x00\x00\x00\x00\x00\x00'
p2037
tp2038
Rp2039
sa(dp2040
S'action'
p2041
S'delete'
p2042
sS'order'
p2043
F1523929137.017902
sS'objid'
p2044
g6
(g10
S'8\x00\x00\x00\x00\x00\x00\x00'
p2045
tp2046
Rp2047
sa(dp2048
S'action'
p2049
S'delete'
p2050
sS'order'
p2051
F1523929137.033675
sS'objid'
p2052
g6
(g10
S'7\x00\x00\x00\x00\x00\x00\x00'
p2053
tp2054
Rp2055
sa(dp2056
S'action'
p2057
S'delete'
p2058
sS'order'
p2059
F1523929137.054031
sS'objid'
p2060
g6
(g10
S'6\x00\x00\x00\x00\x00\x00\x00'
p2061
tp2062
Rp2063
sa(dp2064
S'action'
p2065
S'delete'
p2066
sS'order'
p2067
F1523929137.073433
sS'objid'
p2068
g6
(g10
S'5\x00\x00\x00\x00\x00\x00\x00'
p2069
tp2070
Rp2071
sa(dp2072
S'action'
p2073
S'delete'
p2074
sS'order'
p2075
F1523929137.089062
sS'objid'
p2076
g6
(g10
S'4\x00\x00\x00\x00\x00\x00\x00'
p2077
tp2078
Rp2079
sa(dp2080
S'action'
p2081
S'delete'
p2082
sS'order'
p2083
F1523929137.104715
sS'objid'
p2084
g6
(g10
S'3\x00\x00\x00\x00\x00\x00\x00'
p2085
tp2086
Rp2087
sa(dp2088
S'action'
p2089
S'delete'
p2090
sS'order'
p2091
F1523929137.120428
sS'objid'
p2092
g6
(g10
S'2\x00\x00\x00\x00\x00\x00\x00'
p2093
tp2094
Rp2095
sa(dp2096
S'action'
p2097
S'delete'
p2098
sS'order'
p2099
F1523929137.13655
sS'objid'
p2100
g6
(g10
S'1\x00\x00\x00\x00\x00\x00\x00'
p2101
tp2102
Rp2103
sa(dp2104
S'action'
p2105
S'delete'
p2106
sS'order'
p2107
F1523929147.053962
sS'objid'
p2108
g6
(g10
S'0\x00\x00\x00\x00\x00\x00\x00'
p2109
tp2110
Rp2111
sa(dp2112
S'action'
p2113
S'delete'
p2114
sS'order'
p2115
F1523929147.072811
sS'objid'
p2116
g6
(g10
S'/\x00\x00\x00\x00\x00\x00\x00'
p2117
tp2118
Rp2119
sa(dp2120
S'action'
p2121
S'delete'
p2122
sS'order'
p2123
F1523929147.089038
sS'objid'
p2124
g6
(g10
S'.\x00\x00\x00\x00\x00\x00\x00'
p2125
tp2126
Rp2127
sa(dp2128
S'action'
p2129
S'delete'
p2130
sS'order'
p2131
F1523929147.105127
sS'objid'
p2132
g6
(g10
S'-\x00\x00\x00\x00\x00\x00\x00'
p2133
tp2134
Rp2135
sa(dp2136
S'action'
p2137
S'delete'
p2138
sS'order'
p2139
F1523929147.121285
sS'objid'
p2140
g6
(g10
S',\x00\x00\x00\x00\x00\x00\x00'
p2141
tp2142
Rp2143
sa(dp2144
S'action'
p2145
S'delete'
p2146
sS'order'
p2147
F1523929147.137684
sS'objid'
p2148
g6
(g10
S'+\x00\x00\x00\x00\x00\x00\x00'
p2149
tp2150
Rp2151
sa(dp2152
S'action'
p2153
S'delete'
p2154
sS'order'
p2155
F1523929147.153916
sS'objid'
p2156
g6
(g10
S'*\x00\x00\x00\x00\x00\x00\x00'
p2157
tp2158
Rp2159
sa(dp2160
S'action'
p2161
S'delete'
p2162
sS'order'
p2163
F1523929147.170115
sS'objid'
p2164
g6
(g10
S')\x00\x00\x00\x00\x00\x00\x00'
p2165
tp2166
Rp2167
sa(dp2168
S'action'
p2169
S'delete'
p2170
sS'order'
p2171
F1523929147.186435
sS'objid'
p2172
g6
(g10
S'(\x00\x00\x00\x00\x00\x00\x00'
p2173
tp2174
Rp2175
sa(dp2176
S'action'
p2177
S'delete'
p2178
sS'order'
p2179
F1523929147.202763
sS'objid'
p2180
g6
(g10
S"'\x00\x00\x00\x00\x00\x00\x00"
p2181
tp2182
Rp2183
sa(dp2184
S'action'
p2185
S'delete'
p2186
sS'order'
p2187
F1523929147.21916
sS'objid'
p2188
g6
(g10
S'&\x00\x00\x00\x00\x00\x00\x00'
p2189
tp2190
Rp2191
sa(dp2192
S'action'
p2193
S'delete'
p2194
sS'order'
p2195
F1523929147.235876
sS'objid'
p2196
g6
(g10
S'%\x00\x00\x00\x00\x00\x00\x00'
p2197
tp2198
Rp2199
sa(dp2200
S'action'
p2201
S'delete'
p2202
sS'order'
p2203
F1523929147.258059
sS'objid'
p2204
g6
(g10
S'$\x00\x00\x00\x00\x00\x00\x00'
p2205
tp2206
Rp2207
sa(dp2208
S'action'
p2209
S'delete'
p2210
sS'order'
p2211
F1523929147.27465
sS'objid'
p2212
g6
(g10
S'#\x00\x00\x00\x00\x00\x00\x00'
p2213
tp2214
Rp2215
sa(dp2216
S'action'
p2217
S'delete'
p2218
sS'order'
p2219
F1523929147.291304
sS'objid'
p2220
g6
(g10
S'"\x00\x00\x00\x00\x00\x00\x00'
p2221
tp2222
Rp2223
sa(dp2224
S'action'
p2225
S'delete'
p2226
sS'order'
p2227
F1523929147.308176
sS'objid'
p2228
g6
(g10
S'!\x00\x00\x00\x00\x00\x00\x00'
p2229
tp2230
Rp2231
sa(dp2232
S'action'
p2233
S'delete'
p2234
sS'order'
p2235
F1523929147.325189
sS'objid'
p2236
g6
(g10
S' \x00\x00\x00\x00\x00\x00\x00'
p2237
tp2238
Rp2239
sa(dp2240
S'action'
p2241
S'delete'
p2242
sS'order'
p2243
F1523929147.342428
sS'objid'
p2244
g6
(g10
S'\x1f\x00\x00\x00\x00\x00\x00\x00'
p2245
tp2246
Rp2247
sa(dp2248
S'action'
p2249
S'delete'
p2250
sS'order'
p2251
F1523929147.359638
sS'objid'
p2252
g6
(g10
S'\x1e\x00\x00\x00\x00\x00\x00\x00'
p2253
tp2254
Rp2255
sa(dp2256
S'action'
p2257
S'delete'
p2258
sS'order'
p2259
F1523929147.376704
sS'objid'
p2260
g6
(g10
S'\x1d\x00\x00\x00\x00\x00\x00\x00'
p2261
tp2262
Rp2263
sa(dp2264
S'action'
p2265
S'delete'
p2266
sS'order'
p2267
F1523929147.393861
sS'objid'
p2268
g6
(g10
S'\x1c\x00\x00\x00\x00\x00\x00\x00'
p2269
tp2270
Rp2271
sa(dp2272
S'action'
p2273
S'delete'
p2274
sS'order'
p2275
F1523929147.411293
sS'objid'
p2276
g6
(g10
S'\x1b\x00\x00\x00\x00\x00\x00\x00'
p2277
tp2278
Rp2279
sa(dp2280
S'action'
p2281
S'delete'
p2282
sS'order'
p2283
F1523929147.428558
sS'objid'
p2284
g6
(g10
S'\x1a\x00\x00\x00\x00\x00\x00\x00'
p2285
tp2286
Rp2287
sa(dp2288
S'action'
p2289
S'delete'
p2290
sS'order'
p2291
F1523929147.446044
sS'objid'
p2292
g6
(g10
S'\x19\x00\x00\x00\x00\x00\x00\x00'
p2293
tp2294
Rp2295
sa(dp2296
S'action'
p2297
S'delete'
p2298
sS'order'
p2299
F1523929147.463652
sS'objid'
p2300
g6
(g10
S'\x18\x00\x00\x00\x00\x00\x00\x00'
p2301
tp2302
Rp2303
sa(dp2304
S'action'
p2305
S'delete'
p2306
sS'order'
p2307
F1523929147.48109
sS'objid'
p2308
g6
(g10
S'\x17\x00\x00\x00\x00\x00\x00\x00'
p2309
tp2310
Rp2311
sa(dp2312
S'action'
p2313
S'delete'
p2314
sS'order'
p2315
F1523929147.498647
sS'objid'
p2316
g6
(g10
S'\x16\x00\x00\x00\x00\x00\x00\x00'
p2317
tp2318
Rp2319
sa(dp2320
S'action'
p2321
S'delete'
p2322
sS'order'
p2323
F1523929147.516254
sS'objid'
p2324
g6
(g10
S'\x15\x00\x00\x00\x00\x00\x00\x00'
p2325
tp2326
Rp2327
sa(dp2328
S'action'
p2329
S'delete'
p2330
sS'order'
p2331
F1523929147.533985
sS'objid'
p2332
g6
(g10
S'\x14\x00\x00\x00\x00\x00\x00\x00'
p2333
tp2334
Rp2335
sa(dp2336
S'action'
p2337
S'delete'
p2338
sS'order'
p2339
F1523929147.551898
sS'objid'
p2340
g6
(g10
S'\x13\x00\x00\x00\x00\x00\x00\x00'
p2341
tp2342
Rp2343
sa(dp2344
S'action'
p2345
S'delete'
p2346
sS'order'
p2347
F1523929147.569616
sS'objid'
p2348
g6
(g10
S'\x12\x00\x00\x00\x00\x00\x00\x00'
p2349
tp2350
Rp2351
sa(dp2352
S'action'
p2353
S'delete'
p2354
sS'order'
p2355
F1523929147.587395
sS'objid'
p2356
g6
(g10
S'\x11\x00\x00\x00\x00\x00\x00\x00'
p2357
tp2358
Rp2359
sa(dp2360
S'action'
p2361
S'delete'
p2362
sS'order'
p2363
F1523929147.60522
sS'objid'
p2364
g6
(g10
S'\x10\x00\x00\x00\x00\x00\x00\x00'
p2365
tp2366
Rp2367
sa(dp2368
S'action'
p2369
S'delete'
p2370
sS'order'
p2371
F1523929147.623163
sS'objid'
p2372
g6
(g10
S'\x0f\x00\x00\x00\x00\x00\x00\x00'
p2373
tp2374
Rp2375
sa(dp2376
S'action'
p2377
S'delete'
p2378
sS'order'
p2379
F1523929147.641241
sS'objid'
p2380
g6
(g10
S'\x0e\x00\x00\x00\x00\x00\x00\x00'
p2381
tp2382
Rp2383
sa(dp2384
S'action'
p2385
S'delete'
p2386
sS'order'
p2387
F1523929147.659547
sS'objid'
p2388
g6
(g10
S'\r\x00\x00\x00\x00\x00\x00\x00'
p2389
tp2390
Rp2391
sa(dp2392
S'action'
p2393
S'delete'
p2394
sS'order'
p2395
F1523929147.677641
sS'objid'
p2396
g6
(g10
S'\x0c\x00\x00\x00\x00\x00\x00\x00'
p2397
tp2398
Rp2399
sa(dp2400
S'action'
p2401
S'delete'
p2402
sS'order'
p2403
F1523929147.695768
sS'objid'
p2404
g6
(g10
S'\x0b\x00\x00\x00\x00\x00\x00\x00'
p2405
tp2406
Rp2407
sa(dp2408
S'action'
p2409
S'delete'
p2410
sS'order'
p2411
F1523929147.713985
sS'objid'
p2412
g6
(g10
S'\n\x00\x00\x00\x00\x00\x00\x00'
p2413
tp2414
Rp2415
sa(dp2416
S'action'
p2417
S'delete'
p2418
sS'order'
p2419
F1523929147.73228
sS'objid'
p2420
g6
(g10
S'\t\x00\x00\x00\x00\x00\x00\x00'
p2421
tp2422
Rp2423
sa(dp2424
S'action'
p2425
S'delete'
p2426
sS'order'
p2427
F1523929147.750843
sS'objid'
p2428
g6
(g10
S'\x08\x00\x00\x00\x00\x00\x00\x00'
p2429
tp2430
Rp2431
sa(dp2432
S'action'
p2433
S'delete'
p2434
sS'order'
p2435
F1523929147.769382
sS'objid'
p2436
g6
(g10
S'\x07\x00\x00\x00\x00\x00\x00\x00'
p2437
tp2438
Rp2439
sa(dp2440
S'action'
p2441
S'delete'
p2442
sS'order'
p2443
F1523929147.787924
sS'objid'
p2444
g6
(g10
S'\x06\x00\x00\x00\x00\x00\x00\x00'
p2445
tp2446
Rp2447
sa(dp2448
S'action'
p2449
S'delete'
p2450
sS'order'
p2451
F1523929147.806499
sS'objid'
p2452
g6
(g10
S'\x05\x00\x00\x00\x00\x00\x00\x00'
p2453
tp2454
Rp2455
sa(dp2456
S'action'
p2457
S'delete'
p2458
sS'order'
p2459
F1523929147.825149
sS'objid'
p2460
g6
(g10
S'\x04\x00\x00\x00\x00\x00\x00\x00'
p2461
tp2462
Rp2463
sa(dp2464
S'action'
p2465
S'delete'
p2466
sS'order'
p2467
F1523929147.843875
sS'objid'
p2468
g6
(g10
S'\x03\x00\x00\x00\x00\x00\x00\x00'
p2469
tp2470
Rp2471
sa(dp2472
S'action'
p2473
S'delete'
p2474
sS'order'
p2475
F1523929147.862798
sS'objid'
p2476
g6
(g10
S'\x01\x00\x00\x00\x00\x00\x00\x00'
p2477
tp2478
Rp2479
sa.