(lp0
(dp1
S'action'
p2
S'join'
p3
sS'data_to_add'
p4
(lp5
sS'order'
p6
F1523899324.622314
sS'new_objid'
p7
cnumpy.core.multiarray
scalar
p8
(cnumpy
dtype
p9
(S'i8'
p10
I0
I1
tp11
Rp12
(I3
S'<'
p13
NNNI-1
I-1
I0
tp14
bS'\x04\x01\x00\x00\x00\x00\x00\x00'
p15
tp16
Rp17
sS'objids'
p18
(lp19
g8
(g12
S'\x00\x00\x00\x00\x00\x00\x00\x00'
p20
tp21
Rp22
ag8
(g12
S"'\x00\x00\x00\x00\x00\x00\x00"
p23
tp24
Rp25
asa(dp26
g2
g3
sg4
(lp27
sg6
F1523899346.579093
sg7
g8
(g12
S'\x05\x01\x00\x00\x00\x00\x00\x00'
p28
tp29
Rp30
sg18
(lp31
g8
(g12
S'\x04\x01\x00\x00\x00\x00\x00\x00'
p32
tp33
Rp34
ag8
(g12
S'\xc8\x00\x00\x00\x00\x00\x00\x00'
p35
tp36
Rp37
asa(dp38
g2
g3
sg4
(lp39
sg6
F1523899356.928905
sg7
g8
(g12
S'\x06\x01\x00\x00\x00\x00\x00\x00'
p40
tp41
Rp42
sg18
(lp43
g8
(g12
S'\xd0\x00\x00\x00\x00\x00\x00\x00'
p44
tp45
Rp46
ag8
(g12
S'\x05\x01\x00\x00\x00\x00\x00\x00'
p47
tp48
Rp49
asa(dp50
S'cut_frame_global'
p51
I1652
sS'cut_time_epoch'
p52
g8
(g9
(S'f8'
p53
I0
I1
tp54
Rp55
(I3
S'<'
p56
NNNI-1
I-1
I0
tp57
bS'\x03o\x12\xb6^\xb4\xd6A'
p58
tp59
Rp60
sS'cut_frame_trajectory'
p61
g8
(g12
S'\xc0\x01\x00\x00\x00\x00\x00\x00'
p62
tp63
Rp64
sS'objid'
p65
g8
(g12
S'\xa6\x00\x00\x00\x00\x00\x00\x00'
p66
tp67
Rp68
sS'action'
p69
S'cut'
p70
sS'order'
p71
F1523899377.376178
sS'new_objid'
p72
g8
(g12
S'\x08\x01\x00\x00\x00\x00\x00\x00'
p73
tp74
Rp75
sa(dp76
S'cut_frame_global'
p77
I1652
sS'cut_time_epoch'
p78
g8
(g55
S'\x03o\x12\xb6^\xb4\xd6A'
p79
tp80
Rp81
sS'cut_frame_trajectory'
p82
g8
(g12
S'\x00\x00\x00\x00\x00\x00\x00\x00'
p83
tp84
Rp85
sS'objid'
p86
g8
(g12
S'\x08\x01\x00\x00\x00\x00\x00\x00'
p87
tp88
Rp89
sS'action'
p90
S'cut'
p91
sS'order'
p92
F1523899377.829311
sS'new_objid'
p93
g8
(g12
S'\t\x01\x00\x00\x00\x00\x00\x00'
p94
tp95
Rp96
sa(dp97
S'action'
p98
S'join'
p99
sS'data_to_add'
p100
(lp101
sS'order'
p102
F1523899382.531875
sS'new_objid'
p103
g8
(g12
S'\n\x01\x00\x00\x00\x00\x00\x00'
p104
tp105
Rp106
sS'objids'
p107
(lp108
g8
(g12
S'\t\x01\x00\x00\x00\x00\x00\x00'
p109
tp110
Rp111
ag8
(g12
S'\x06\x01\x00\x00\x00\x00\x00\x00'
p112
tp113
Rp114
asa(dp115
S'action'
p116
S'delete'
p117
sS'order'
p118
F1523899393.403831
sS'objid'
p119
g8
(g12
S'\xf9\x00\x00\x00\x00\x00\x00\x00'
p120
tp121
Rp122
sa(dp123
S'action'
p124
S'delete'
p125
sS'order'
p126
F1523899393.406749
sS'objid'
p127
g8
(g12
S'\xf8\x00\x00\x00\x00\x00\x00\x00'
p128
tp129
Rp130
sa(dp131
S'action'
p132
S'delete'
p133
sS'order'
p134
F1523899393.409753
sS'objid'
p135
g8
(g12
S'\xf7\x00\x00\x00\x00\x00\x00\x00'
p136
tp137
Rp138
sa(dp139
S'action'
p140
S'delete'
p141
sS'order'
p142
F1523899393.412589
sS'objid'
p143
g8
(g12
S'\xf6\x00\x00\x00\x00\x00\x00\x00'
p144
tp145
Rp146
sa(dp147
S'action'
p148
S'delete'
p149
sS'order'
p150
F1523899393.415518
sS'objid'
p151
g8
(g12
S'\xf5\x00\x00\x00\x00\x00\x00\x00'
p152
tp153
Rp154
sa(dp155
S'action'
p156
S'delete'
p157
sS'order'
p158
F1523899393.418309
sS'objid'
p159
g8
(g12
S'\xf4\x00\x00\x00\x00\x00\x00\x00'
p160
tp161
Rp162
sa(dp163
S'action'
p164
S'delete'
p165
sS'order'
p166
F1523899393.420578
sS'objid'
p167
g8
(g12
S'\xf3\x00\x00\x00\x00\x00\x00\x00'
p168
tp169
Rp170
sa(dp171
S'action'
p172
S'delete'
p173
sS'order'
p174
F1523899393.422598
sS'objid'
p175
g8
(g12
S'\xf2\x00\x00\x00\x00\x00\x00\x00'
p176
tp177
Rp178
sa(dp179
S'action'
p180
S'delete'
p181
sS'order'
p182
F1523899393.424822
sS'objid'
p183
g8
(g12
S'\xf1\x00\x00\x00\x00\x00\x00\x00'
p184
tp185
Rp186
sa(dp187
S'action'
p188
S'delete'
p189
sS'order'
p190
F1523899393.427457
sS'objid'
p191
g8
(g12
S'\xf0\x00\x00\x00\x00\x00\x00\x00'
p192
tp193
Rp194
sa(dp195
S'action'
p196
S'delete'
p197
sS'order'
p198
F1523899393.42997
sS'objid'
p199
g8
(g12
S'\xef\x00\x00\x00\x00\x00\x00\x00'
p200
tp201
Rp202
sa(dp203
S'action'
p204
S'delete'
p205
sS'order'
p206
F1523899393.432634
sS'objid'
p207
g8
(g12
S'\xee\x00\x00\x00\x00\x00\x00\x00'
p208
tp209
Rp210
sa(dp211
S'action'
p212
S'delete'
p213
sS'order'
p214
F1523899393.435143
sS'objid'
p215
g8
(g12
S'\xed\x00\x00\x00\x00\x00\x00\x00'
p216
tp217
Rp218
sa(dp219
S'action'
p220
S'delete'
p221
sS'order'
p222
F1523899393.437678
sS'objid'
p223
g8
(g12
S'\xec\x00\x00\x00\x00\x00\x00\x00'
p224
tp225
Rp226
sa(dp227
S'action'
p228
S'delete'
p229
sS'order'
p230
F1523899393.440415
sS'objid'
p231
g8
(g12
S'\xeb\x00\x00\x00\x00\x00\x00\x00'
p232
tp233
Rp234
sa(dp235
S'action'
p236
S'delete'
p237
sS'order'
p238
F1523899393.442894
sS'objid'
p239
g8
(g12
S'\xea\x00\x00\x00\x00\x00\x00\x00'
p240
tp241
Rp242
sa(dp243
S'action'
p244
S'delete'
p245
sS'order'
p246
F1523899393.445435
sS'objid'
p247
g8
(g12
S'\xe9\x00\x00\x00\x00\x00\x00\x00'
p248
tp249
Rp250
sa(dp251
S'action'
p252
S'delete'
p253
sS'order'
p254
F1523899393.448009
sS'objid'
p255
g8
(g12
S'\xe8\x00\x00\x00\x00\x00\x00\x00'
p256
tp257
Rp258
sa(dp259
S'action'
p260
S'delete'
p261
sS'order'
p262
F1523899393.450641
sS'objid'
p263
g8
(g12
S'\xe7\x00\x00\x00\x00\x00\x00\x00'
p264
tp265
Rp266
sa(dp267
S'action'
p268
S'delete'
p269
sS'order'
p270
F1523899400.835861
sS'objid'
p271
g8
(g12
S'\xe6\x00\x00\x00\x00\x00\x00\x00'
p272
tp273
Rp274
sa(dp275
S'action'
p276
S'delete'
p277
sS'order'
p278
F1523899400.839606
sS'objid'
p279
g8
(g12
S'\xe5\x00\x00\x00\x00\x00\x00\x00'
p280
tp281
Rp282
sa(dp283
S'action'
p284
S'delete'
p285
sS'order'
p286
F1523899400.844844
sS'objid'
p287
g8
(g12
S'\xe4\x00\x00\x00\x00\x00\x00\x00'
p288
tp289
Rp290
sa(dp291
S'action'
p292
S'delete'
p293
sS'order'
p294
F1523899400.851991
sS'objid'
p295
g8
(g12
S'\xe3\x00\x00\x00\x00\x00\x00\x00'
p296
tp297
Rp298
sa(dp299
S'action'
p300
S'delete'
p301
sS'order'
p302
F1523899400.854919
sS'objid'
p303
g8
(g12
S'\xe2\x00\x00\x00\x00\x00\x00\x00'
p304
tp305
Rp306
sa(dp307
S'action'
p308
S'delete'
p309
sS'order'
p310
F1523899400.857947
sS'objid'
p311
g8
(g12
S'\xe1\x00\x00\x00\x00\x00\x00\x00'
p312
tp313
Rp314
sa(dp315
S'action'
p316
S'delete'
p317
sS'order'
p318
F1523899400.861453
sS'objid'
p319
g8
(g12
S'\xe0\x00\x00\x00\x00\x00\x00\x00'
p320
tp321
Rp322
sa(dp323
S'action'
p324
S'delete'
p325
sS'order'
p326
F1523899400.86707
sS'objid'
p327
g8
(g12
S'\xdf\x00\x00\x00\x00\x00\x00\x00'
p328
tp329
Rp330
sa(dp331
S'action'
p332
S'delete'
p333
sS'order'
p334
F1523899400.87268
sS'objid'
p335
g8
(g12
S'\xde\x00\x00\x00\x00\x00\x00\x00'
p336
tp337
Rp338
sa(dp339
S'action'
p340
S'delete'
p341
sS'order'
p342
F1523899400.878339
sS'objid'
p343
g8
(g12
S'\xdd\x00\x00\x00\x00\x00\x00\x00'
p344
tp345
Rp346
sa(dp347
S'action'
p348
S'delete'
p349
sS'order'
p350
F1523899400.884314
sS'objid'
p351
g8
(g12
S'\xdc\x00\x00\x00\x00\x00\x00\x00'
p352
tp353
Rp354
sa(dp355
S'action'
p356
S'delete'
p357
sS'order'
p358
F1523899400.888071
sS'objid'
p359
g8
(g12
S'\xdb\x00\x00\x00\x00\x00\x00\x00'
p360
tp361
Rp362
sa(dp363
S'action'
p364
S'delete'
p365
sS'order'
p366
F1523899400.891501
sS'objid'
p367
g8
(g12
S'\xda\x00\x00\x00\x00\x00\x00\x00'
p368
tp369
Rp370
sa(dp371
S'action'
p372
S'delete'
p373
sS'order'
p374
F1523899400.894974
sS'objid'
p375
g8
(g12
S'\xd9\x00\x00\x00\x00\x00\x00\x00'
p376
tp377
Rp378
sa(dp379
S'action'
p380
S'delete'
p381
sS'order'
p382
F1523899400.898499
sS'objid'
p383
g8
(g12
S'\xd8\x00\x00\x00\x00\x00\x00\x00'
p384
tp385
Rp386
sa(dp387
S'action'
p388
S'delete'
p389
sS'order'
p390
F1523899400.902121
sS'objid'
p391
g8
(g12
S'\xd7\x00\x00\x00\x00\x00\x00\x00'
p392
tp393
Rp394
sa(dp395
S'action'
p396
S'delete'
p397
sS'order'
p398
F1523899400.905754
sS'objid'
p399
g8
(g12
S'\xd6\x00\x00\x00\x00\x00\x00\x00'
p400
tp401
Rp402
sa(dp403
S'action'
p404
S'delete'
p405
sS'order'
p406
F1523899400.910512
sS'objid'
p407
g8
(g12
S'\xd5\x00\x00\x00\x00\x00\x00\x00'
p408
tp409
Rp410
sa(dp411
S'action'
p412
S'delete'
p413
sS'order'
p414
F1523899400.918055
sS'objid'
p415
g8
(g12
S'\xd4\x00\x00\x00\x00\x00\x00\x00'
p416
tp417
Rp418
sa(dp419
S'action'
p420
S'delete'
p421
sS'order'
p422
F1523899400.921875
sS'objid'
p423
g8
(g12
S'\xd3\x00\x00\x00\x00\x00\x00\x00'
p424
tp425
Rp426
sa(dp427
S'action'
p428
S'delete'
p429
sS'order'
p430
F1523899400.925736
sS'objid'
p431
g8
(g12
S'\xd2\x00\x00\x00\x00\x00\x00\x00'
p432
tp433
Rp434
sa(dp435
S'action'
p436
S'delete'
p437
sS'order'
p438
F1523899400.929652
sS'objid'
p439
g8
(g12
S'\xd1\x00\x00\x00\x00\x00\x00\x00'
p440
tp441
Rp442
sa(dp443
S'action'
p444
S'delete'
p445
sS'order'
p446
F1523899400.933648
sS'objid'
p447
g8
(g12
S'\xcf\x00\x00\x00\x00\x00\x00\x00'
p448
tp449
Rp450
sa(dp451
S'action'
p452
S'delete'
p453
sS'order'
p454
F1523899400.93771
sS'objid'
p455
g8
(g12
S'\xce\x00\x00\x00\x00\x00\x00\x00'
p456
tp457
Rp458
sa(dp459
S'action'
p460
S'delete'
p461
sS'order'
p462
F1523899400.941813
sS'objid'
p463
g8
(g12
S'\xa6\x00\x00\x00\x00\x00\x00\x00'
p464
tp465
Rp466
sa(dp467
S'action'
p468
S'delete'
p469
sS'order'
p470
F1523899408.268068
sS'objid'
p471
g8
(g12
S'\xcd\x00\x00\x00\x00\x00\x00\x00'
p472
tp473
Rp474
sa(dp475
S'action'
p476
S'delete'
p477
sS'order'
p478
F1523899408.275486
sS'objid'
p479
g8
(g12
S'\xcc\x00\x00\x00\x00\x00\x00\x00'
p480
tp481
Rp482
sa(dp483
S'action'
p484
S'delete'
p485
sS'order'
p486
F1523899408.282609
sS'objid'
p487
g8
(g12
S'\xcb\x00\x00\x00\x00\x00\x00\x00'
p488
tp489
Rp490
sa(dp491
S'action'
p492
S'delete'
p493
sS'order'
p494
F1523899408.28728
sS'objid'
p495
g8
(g12
S'\xca\x00\x00\x00\x00\x00\x00\x00'
p496
tp497
Rp498
sa(dp499
S'action'
p500
S'delete'
p501
sS'order'
p502
F1523899408.291667
sS'objid'
p503
g8
(g12
S'\xc9\x00\x00\x00\x00\x00\x00\x00'
p504
tp505
Rp506
sa(dp507
S'action'
p508
S'delete'
p509
sS'order'
p510
F1523899408.296285
sS'objid'
p511
g8
(g12
S'\xc7\x00\x00\x00\x00\x00\x00\x00'
p512
tp513
Rp514
sa(dp515
S'action'
p516
S'delete'
p517
sS'order'
p518
F1523899408.30091
sS'objid'
p519
g8
(g12
S'\xc6\x00\x00\x00\x00\x00\x00\x00'
p520
tp521
Rp522
sa(dp523
S'action'
p524
S'delete'
p525
sS'order'
p526
F1523899408.305487
sS'objid'
p527
g8
(g12
S'\xc5\x00\x00\x00\x00\x00\x00\x00'
p528
tp529
Rp530
sa(dp531
S'action'
p532
S'delete'
p533
sS'order'
p534
F1523899408.310151
sS'objid'
p535
g8
(g12
S'\xc4\x00\x00\x00\x00\x00\x00\x00'
p536
tp537
Rp538
sa(dp539
S'action'
p540
S'delete'
p541
sS'order'
p542
F1523899408.314901
sS'objid'
p543
g8
(g12
S'\xc3\x00\x00\x00\x00\x00\x00\x00'
p544
tp545
Rp546
sa(dp547
S'action'
p548
S'delete'
p549
sS'order'
p550
F1523899408.319626
sS'objid'
p551
g8
(g12
S'\xc2\x00\x00\x00\x00\x00\x00\x00'
p552
tp553
Rp554
sa(dp555
S'action'
p556
S'delete'
p557
sS'order'
p558
F1523899408.324421
sS'objid'
p559
g8
(g12
S'\xc1\x00\x00\x00\x00\x00\x00\x00'
p560
tp561
Rp562
sa(dp563
S'action'
p564
S'delete'
p565
sS'order'
p566
F1523899408.329258
sS'objid'
p567
g8
(g12
S'\xc0\x00\x00\x00\x00\x00\x00\x00'
p568
tp569
Rp570
sa(dp571
S'action'
p572
S'delete'
p573
sS'order'
p574
F1523899416.0044
sS'objid'
p575
g8
(g12
S'\xbf\x00\x00\x00\x00\x00\x00\x00'
p576
tp577
Rp578
sa(dp579
S'action'
p580
S'delete'
p581
sS'order'
p582
F1523899416.015354
sS'objid'
p583
g8
(g12
S'\xbe\x00\x00\x00\x00\x00\x00\x00'
p584
tp585
Rp586
sa(dp587
S'action'
p588
S'delete'
p589
sS'order'
p590
F1523899416.022782
sS'objid'
p591
g8
(g12
S'\xbd\x00\x00\x00\x00\x00\x00\x00'
p592
tp593
Rp594
sa(dp595
S'action'
p596
S'delete'
p597
sS'order'
p598
F1523899416.028141
sS'objid'
p599
g8
(g12
S'\xbc\x00\x00\x00\x00\x00\x00\x00'
p600
tp601
Rp602
sa(dp603
S'action'
p604
S'delete'
p605
sS'order'
p606
F1523899416.036861
sS'objid'
p607
g8
(g12
S'\xbb\x00\x00\x00\x00\x00\x00\x00'
p608
tp609
Rp610
sa(dp611
S'action'
p612
S'delete'
p613
sS'order'
p614
F1523899416.046257
sS'objid'
p615
g8
(g12
S'\xba\x00\x00\x00\x00\x00\x00\x00'
p616
tp617
Rp618
sa(dp619
S'action'
p620
S'delete'
p621
sS'order'
p622
F1523899416.055065
sS'objid'
p623
g8
(g12
S'\xb9\x00\x00\x00\x00\x00\x00\x00'
p624
tp625
Rp626
sa(dp627
S'action'
p628
S'delete'
p629
sS'order'
p630
F1523899416.060474
sS'objid'
p631
g8
(g12
S'\xb8\x00\x00\x00\x00\x00\x00\x00'
p632
tp633
Rp634
sa(dp635
S'action'
p636
S'delete'
p637
sS'order'
p638
F1523899416.065868
sS'objid'
p639
g8
(g12
S'\xb7\x00\x00\x00\x00\x00\x00\x00'
p640
tp641
Rp642
sa(dp643
S'action'
p644
S'delete'
p645
sS'order'
p646
F1523899416.071517
sS'objid'
p647
g8
(g12
S'\xb6\x00\x00\x00\x00\x00\x00\x00'
p648
tp649
Rp650
sa(dp651
S'action'
p652
S'delete'
p653
sS'order'
p654
F1523899416.079238
sS'objid'
p655
g8
(g12
S'\xb5\x00\x00\x00\x00\x00\x00\x00'
p656
tp657
Rp658
sa(dp659
S'action'
p660
S'delete'
p661
sS'order'
p662
F1523899416.087578
sS'objid'
p663
g8
(g12
S'\xb4\x00\x00\x00\x00\x00\x00\x00'
p664
tp665
Rp666
sa(dp667
S'action'
p668
S'delete'
p669
sS'order'
p670
F1523899416.093211
sS'objid'
p671
g8
(g12
S'\xb3\x00\x00\x00\x00\x00\x00\x00'
p672
tp673
Rp674
sa(dp675
S'action'
p676
S'delete'
p677
sS'order'
p678
F1523899416.098886
sS'objid'
p679
g8
(g12
S'\xb2\x00\x00\x00\x00\x00\x00\x00'
p680
tp681
Rp682
sa(dp683
S'action'
p684
S'delete'
p685
sS'order'
p686
F1523899416.104646
sS'objid'
p687
g8
(g12
S'\xb1\x00\x00\x00\x00\x00\x00\x00'
p688
tp689
Rp690
sa(dp691
S'action'
p692
S'delete'
p693
sS'order'
p694
F1523899416.11042
sS'objid'
p695
g8
(g12
S'\xb0\x00\x00\x00\x00\x00\x00\x00'
p696
tp697
Rp698
sa(dp699
S'action'
p700
S'delete'
p701
sS'order'
p702
F1523899416.116276
sS'objid'
p703
g8
(g12
S'\xaf\x00\x00\x00\x00\x00\x00\x00'
p704
tp705
Rp706
sa(dp707
S'action'
p708
S'delete'
p709
sS'order'
p710
F1523899416.122207
sS'objid'
p711
g8
(g12
S'\xae\x00\x00\x00\x00\x00\x00\x00'
p712
tp713
Rp714
sa(dp715
S'action'
p716
S'delete'
p717
sS'order'
p718
F1523899416.12816
sS'objid'
p719
g8
(g12
S'\xad\x00\x00\x00\x00\x00\x00\x00'
p720
tp721
Rp722
sa(dp723
S'action'
p724
S'delete'
p725
sS'order'
p726
F1523899416.134193
sS'objid'
p727
g8
(g12
S'\xac\x00\x00\x00\x00\x00\x00\x00'
p728
tp729
Rp730
sa(dp731
S'action'
p732
S'delete'
p733
sS'order'
p734
F1523899416.140422
sS'objid'
p735
g8
(g12
S'\xab\x00\x00\x00\x00\x00\x00\x00'
p736
tp737
Rp738
sa(dp739
S'action'
p740
S'delete'
p741
sS'order'
p742
F1523899416.146712
sS'objid'
p743
g8
(g12
S'\xaa\x00\x00\x00\x00\x00\x00\x00'
p744
tp745
Rp746
sa(dp747
S'action'
p748
S'delete'
p749
sS'order'
p750
F1523899416.153022
sS'objid'
p751
g8
(g12
S'\xa9\x00\x00\x00\x00\x00\x00\x00'
p752
tp753
Rp754
sa(dp755
S'action'
p756
S'delete'
p757
sS'order'
p758
F1523899416.165569
sS'objid'
p759
g8
(g12
S'\xa8\x00\x00\x00\x00\x00\x00\x00'
p760
tp761
Rp762
sa(dp763
S'action'
p764
S'delete'
p765
sS'order'
p766
F1523899416.173098
sS'objid'
p767
g8
(g12
S'\xa7\x00\x00\x00\x00\x00\x00\x00'
p768
tp769
Rp770
sa(dp771
S'action'
p772
S'delete'
p773
sS'order'
p774
F1523899416.179479
sS'objid'
p775
g8
(g12
S'\xa5\x00\x00\x00\x00\x00\x00\x00'
p776
tp777
Rp778
sa(dp779
S'action'
p780
S'delete'
p781
sS'order'
p782
F1523899416.185934
sS'objid'
p783
g8
(g12
S'\xa4\x00\x00\x00\x00\x00\x00\x00'
p784
tp785
Rp786
sa(dp787
S'action'
p788
S'delete'
p789
sS'order'
p790
F1523899416.192397
sS'objid'
p791
g8
(g12
S'\xa3\x00\x00\x00\x00\x00\x00\x00'
p792
tp793
Rp794
sa(dp795
S'action'
p796
S'delete'
p797
sS'order'
p798
F1523899416.198944
sS'objid'
p799
g8
(g12
S'\xa2\x00\x00\x00\x00\x00\x00\x00'
p800
tp801
Rp802
sa(dp803
S'action'
p804
S'delete'
p805
sS'order'
p806
F1523899416.205581
sS'objid'
p807
g8
(g12
S'(\x00\x00\x00\x00\x00\x00\x00'
p808
tp809
Rp810
sa(dp811
S'action'
p812
S'delete'
p813
sS'order'
p814
F1523899424.532564
sS'objid'
p815
g8
(g12
S'\xa1\x00\x00\x00\x00\x00\x00\x00'
p816
tp817
Rp818
sa(dp819
S'action'
p820
S'delete'
p821
sS'order'
p822
F1523899424.547206
sS'objid'
p823
g8
(g12
S'\xa0\x00\x00\x00\x00\x00\x00\x00'
p824
tp825
Rp826
sa(dp827
S'action'
p828
S'delete'
p829
sS'order'
p830
F1523899424.556194
sS'objid'
p831
g8
(g12
S'\x9f\x00\x00\x00\x00\x00\x00\x00'
p832
tp833
Rp834
sa(dp835
S'action'
p836
S'delete'
p837
sS'order'
p838
F1523899424.565807
sS'objid'
p839
g8
(g12
S'\x9e\x00\x00\x00\x00\x00\x00\x00'
p840
tp841
Rp842
sa(dp843
S'action'
p844
S'delete'
p845
sS'order'
p846
F1523899424.572931
sS'objid'
p847
g8
(g12
S'\x9d\x00\x00\x00\x00\x00\x00\x00'
p848
tp849
Rp850
sa(dp851
S'action'
p852
S'delete'
p853
sS'order'
p854
F1523899424.585093
sS'objid'
p855
g8
(g12
S'\x9c\x00\x00\x00\x00\x00\x00\x00'
p856
tp857
Rp858
sa(dp859
S'action'
p860
S'delete'
p861
sS'order'
p862
F1523899424.592275
sS'objid'
p863
g8
(g12
S'\x9b\x00\x00\x00\x00\x00\x00\x00'
p864
tp865
Rp866
sa(dp867
S'action'
p868
S'delete'
p869
sS'order'
p870
F1523899424.599517
sS'objid'
p871
g8
(g12
S'\x9a\x00\x00\x00\x00\x00\x00\x00'
p872
tp873
Rp874
sa(dp875
S'action'
p876
S'delete'
p877
sS'order'
p878
F1523899424.607112
sS'objid'
p879
g8
(g12
S'\x99\x00\x00\x00\x00\x00\x00\x00'
p880
tp881
Rp882
sa(dp883
S'action'
p884
S'delete'
p885
sS'order'
p886
F1523899424.614286
sS'objid'
p887
g8
(g12
S'\x98\x00\x00\x00\x00\x00\x00\x00'
p888
tp889
Rp890
sa(dp891
S'action'
p892
S'delete'
p893
sS'order'
p894
F1523899424.621547
sS'objid'
p895
g8
(g12
S'\x97\x00\x00\x00\x00\x00\x00\x00'
p896
tp897
Rp898
sa(dp899
S'action'
p900
S'delete'
p901
sS'order'
p902
F1523899424.628903
sS'objid'
p903
g8
(g12
S'\x96\x00\x00\x00\x00\x00\x00\x00'
p904
tp905
Rp906
sa(dp907
S'action'
p908
S'delete'
p909
sS'order'
p910
F1523899424.636265
sS'objid'
p911
g8
(g12
S'\x95\x00\x00\x00\x00\x00\x00\x00'
p912
tp913
Rp914
sa(dp915
S'action'
p916
S'delete'
p917
sS'order'
p918
F1523899424.643661
sS'objid'
p919
g8
(g12
S'\x94\x00\x00\x00\x00\x00\x00\x00'
p920
tp921
Rp922
sa(dp923
S'action'
p924
S'delete'
p925
sS'order'
p926
F1523899424.651164
sS'objid'
p927
g8
(g12
S'\x93\x00\x00\x00\x00\x00\x00\x00'
p928
tp929
Rp930
sa(dp931
S'action'
p932
S'delete'
p933
sS'order'
p934
F1523899424.65866
sS'objid'
p935
g8
(g12
S'\x92\x00\x00\x00\x00\x00\x00\x00'
p936
tp937
Rp938
sa(dp939
S'action'
p940
S'delete'
p941
sS'order'
p942
F1523899424.666209
sS'objid'
p943
g8
(g12
S'\x91\x00\x00\x00\x00\x00\x00\x00'
p944
tp945
Rp946
sa(dp947
S'action'
p948
S'delete'
p949
sS'order'
p950
F1523899424.673841
sS'objid'
p951
g8
(g12
S'\x90\x00\x00\x00\x00\x00\x00\x00'
p952
tp953
Rp954
sa(dp955
S'action'
p956
S'delete'
p957
sS'order'
p958
F1523899424.681544
sS'objid'
p959
g8
(g12
S'\x8f\x00\x00\x00\x00\x00\x00\x00'
p960
tp961
Rp962
sa(dp963
S'action'
p964
S'delete'
p965
sS'order'
p966
F1523899424.689465
sS'objid'
p967
g8
(g12
S'\x8e\x00\x00\x00\x00\x00\x00\x00'
p968
tp969
Rp970
sa(dp971
S'action'
p972
S'delete'
p973
sS'order'
p974
F1523899424.697589
sS'objid'
p975
g8
(g12
S'\x8d\x00\x00\x00\x00\x00\x00\x00'
p976
tp977
Rp978
sa(dp979
S'action'
p980
S'delete'
p981
sS'order'
p982
F1523899424.70597
sS'objid'
p983
g8
(g12
S'\x8c\x00\x00\x00\x00\x00\x00\x00'
p984
tp985
Rp986
sa(dp987
S'action'
p988
S'delete'
p989
sS'order'
p990
F1523899424.720101
sS'objid'
p991
g8
(g12
S'\x8b\x00\x00\x00\x00\x00\x00\x00'
p992
tp993
Rp994
sa(dp995
S'action'
p996
S'delete'
p997
sS'order'
p998
F1523899424.728072
sS'objid'
p999
g8
(g12
S'\x8a\x00\x00\x00\x00\x00\x00\x00'
p1000
tp1001
Rp1002
sa(dp1003
S'action'
p1004
S'delete'
p1005
sS'order'
p1006
F1523899424.736147
sS'objid'
p1007
g8
(g12
S'\x89\x00\x00\x00\x00\x00\x00\x00'
p1008
tp1009
Rp1010
sa(dp1011
S'action'
p1012
S'delete'
p1013
sS'order'
p1014
F1523899430.756294
sS'objid'
p1015
g8
(g12
S'\x88\x00\x00\x00\x00\x00\x00\x00'
p1016
tp1017
Rp1018
sa(dp1019
S'action'
p1020
S'delete'
p1021
sS'order'
p1022
F1523899430.765543
sS'objid'
p1023
g8
(g12
S'\x87\x00\x00\x00\x00\x00\x00\x00'
p1024
tp1025
Rp1026
sa(dp1027
S'action'
p1028
S'delete'
p1029
sS'order'
p1030
F1523899430.775881
sS'objid'
p1031
g8
(g12
S'\x86\x00\x00\x00\x00\x00\x00\x00'
p1032
tp1033
Rp1034
sa(dp1035
S'action'
p1036
S'delete'
p1037
sS'order'
p1038
F1523899430.785125
sS'objid'
p1039
g8
(g12
S'\x85\x00\x00\x00\x00\x00\x00\x00'
p1040
tp1041
Rp1042
sa(dp1043
S'action'
p1044
S'delete'
p1045
sS'order'
p1046
F1523899430.793595
sS'objid'
p1047
g8
(g12
S'\x84\x00\x00\x00\x00\x00\x00\x00'
p1048
tp1049
Rp1050
sa(dp1051
S'action'
p1052
S'delete'
p1053
sS'order'
p1054
F1523899430.802172
sS'objid'
p1055
g8
(g12
S'\x83\x00\x00\x00\x00\x00\x00\x00'
p1056
tp1057
Rp1058
sa(dp1059
S'action'
p1060
S'delete'
p1061
sS'order'
p1062
F1523899430.810698
sS'objid'
p1063
g8
(g12
S'\x82\x00\x00\x00\x00\x00\x00\x00'
p1064
tp1065
Rp1066
sa(dp1067
S'action'
p1068
S'delete'
p1069
sS'order'
p1070
F1523899430.819263
sS'objid'
p1071
g8
(g12
S'\x81\x00\x00\x00\x00\x00\x00\x00'
p1072
tp1073
Rp1074
sa(dp1075
S'action'
p1076
S'delete'
p1077
sS'order'
p1078
F1523899430.827817
sS'objid'
p1079
g8
(g12
S'\x80\x00\x00\x00\x00\x00\x00\x00'
p1080
tp1081
Rp1082
sa(dp1083
S'action'
p1084
S'delete'
p1085
sS'order'
p1086
F1523899430.836463
sS'objid'
p1087
g8
(g12
S'\x7f\x00\x00\x00\x00\x00\x00\x00'
p1088
tp1089
Rp1090
sa(dp1091
S'action'
p1092
S'delete'
p1093
sS'order'
p1094
F1523899430.845158
sS'objid'
p1095
g8
(g12
S'~\x00\x00\x00\x00\x00\x00\x00'
p1096
tp1097
Rp1098
sa(dp1099
S'action'
p1100
S'delete'
p1101
sS'order'
p1102
F1523899430.853868
sS'objid'
p1103
g8
(g12
S'}\x00\x00\x00\x00\x00\x00\x00'
p1104
tp1105
Rp1106
sa(dp1107
S'action'
p1108
S'delete'
p1109
sS'order'
p1110
F1523899430.862683
sS'objid'
p1111
g8
(g12
S'|\x00\x00\x00\x00\x00\x00\x00'
p1112
tp1113
Rp1114
sa(dp1115
S'action'
p1116
S'delete'
p1117
sS'order'
p1118
F1523899430.871534
sS'objid'
p1119
g8
(g12
S'{\x00\x00\x00\x00\x00\x00\x00'
p1120
tp1121
Rp1122
sa(dp1123
S'action'
p1124
S'delete'
p1125
sS'order'
p1126
F1523899430.880426
sS'objid'
p1127
g8
(g12
S'z\x00\x00\x00\x00\x00\x00\x00'
p1128
tp1129
Rp1130
sa(dp1131
S'action'
p1132
S'delete'
p1133
sS'order'
p1134
F1523899430.889527
sS'objid'
p1135
g8
(g12
S'y\x00\x00\x00\x00\x00\x00\x00'
p1136
tp1137
Rp1138
sa(dp1139
S'action'
p1140
S'delete'
p1141
sS'order'
p1142
F1523899430.898662
sS'objid'
p1143
g8
(g12
S'x\x00\x00\x00\x00\x00\x00\x00'
p1144
tp1145
Rp1146
sa(dp1147
S'action'
p1148
S'delete'
p1149
sS'order'
p1150
F1523899430.907743
sS'objid'
p1151
g8
(g12
S'w\x00\x00\x00\x00\x00\x00\x00'
p1152
tp1153
Rp1154
sa(dp1155
S'action'
p1156
S'delete'
p1157
sS'order'
p1158
F1523899430.916889
sS'objid'
p1159
g8
(g12
S'v\x00\x00\x00\x00\x00\x00\x00'
p1160
tp1161
Rp1162
sa(dp1163
S'action'
p1164
S'delete'
p1165
sS'order'
p1166
F1523899430.926106
sS'objid'
p1167
g8
(g12
S'u\x00\x00\x00\x00\x00\x00\x00'
p1168
tp1169
Rp1170
sa(dp1171
S'action'
p1172
S'delete'
p1173
sS'order'
p1174
F1523899430.935352
sS'objid'
p1175
g8
(g12
S't\x00\x00\x00\x00\x00\x00\x00'
p1176
tp1177
Rp1178
sa(dp1179
S'action'
p1180
S'delete'
p1181
sS'order'
p1182
F1523899430.94465
sS'objid'
p1183
g8
(g12
S's\x00\x00\x00\x00\x00\x00\x00'
p1184
tp1185
Rp1186
sa(dp1187
S'action'
p1188
S'delete'
p1189
sS'order'
p1190
F1523899430.954019
sS'objid'
p1191
g8
(g12
S'r\x00\x00\x00\x00\x00\x00\x00'
p1192
tp1193
Rp1194
sa(dp1195
S'action'
p1196
S'delete'
p1197
sS'order'
p1198
F1523899430.963445
sS'objid'
p1199
g8
(g12
S'q\x00\x00\x00\x00\x00\x00\x00'
p1200
tp1201
Rp1202
sa(dp1203
S'action'
p1204
S'delete'
p1205
sS'order'
p1206
F1523899430.972933
sS'objid'
p1207
g8
(g12
S'p\x00\x00\x00\x00\x00\x00\x00'
p1208
tp1209
Rp1210
sa(dp1211
S'action'
p1212
S'delete'
p1213
sS'order'
p1214
F1523899430.98246
sS'objid'
p1215
g8
(g12
S'o\x00\x00\x00\x00\x00\x00\x00'
p1216
tp1217
Rp1218
sa(dp1219
S'action'
p1220
S'delete'
p1221
sS'order'
p1222
F1523899430.992188
sS'objid'
p1223
g8
(g12
S'n\x00\x00\x00\x00\x00\x00\x00'
p1224
tp1225
Rp1226
sa(dp1227
S'action'
p1228
S'delete'
p1229
sS'order'
p1230
F1523899431.00196
sS'objid'
p1231
g8
(g12
S'm\x00\x00\x00\x00\x00\x00\x00'
p1232
tp1233
Rp1234
sa(dp1235
S'action'
p1236
S'delete'
p1237
sS'order'
p1238
F1523899431.011698
sS'objid'
p1239
g8
(g12
S'l\x00\x00\x00\x00\x00\x00\x00'
p1240
tp1241
Rp1242
sa(dp1243
S'action'
p1244
S'delete'
p1245
sS'order'
p1246
F1523899437.732905
sS'objid'
p1247
g8
(g12
S'k\x00\x00\x00\x00\x00\x00\x00'
p1248
tp1249
Rp1250
sa(dp1251
S'action'
p1252
S'delete'
p1253
sS'order'
p1254
F1523899437.746301
sS'objid'
p1255
g8
(g12
S'j\x00\x00\x00\x00\x00\x00\x00'
p1256
tp1257
Rp1258
sa(dp1259
S'action'
p1260
S'delete'
p1261
sS'order'
p1262
F1523899437.756329
sS'objid'
p1263
g8
(g12
S'i\x00\x00\x00\x00\x00\x00\x00'
p1264
tp1265
Rp1266
sa(dp1267
S'action'
p1268
S'delete'
p1269
sS'order'
p1270
F1523899437.766539
sS'objid'
p1271
g8
(g12
S'h\x00\x00\x00\x00\x00\x00\x00'
p1272
tp1273
Rp1274
sa(dp1275
S'action'
p1276
S'delete'
p1277
sS'order'
p1278
F1523899437.776622
sS'objid'
p1279
g8
(g12
S'g\x00\x00\x00\x00\x00\x00\x00'
p1280
tp1281
Rp1282
sa(dp1283
S'action'
p1284
S'delete'
p1285
sS'order'
p1286
F1523899437.786753
sS'objid'
p1287
g8
(g12
S'f\x00\x00\x00\x00\x00\x00\x00'
p1288
tp1289
Rp1290
sa(dp1291
S'action'
p1292
S'delete'
p1293
sS'order'
p1294
F1523899437.796901
sS'objid'
p1295
g8
(g12
S'e\x00\x00\x00\x00\x00\x00\x00'
p1296
tp1297
Rp1298
sa(dp1299
S'action'
p1300
S'delete'
p1301
sS'order'
p1302
F1523899437.808768
sS'objid'
p1303
g8
(g12
S'd\x00\x00\x00\x00\x00\x00\x00'
p1304
tp1305
Rp1306
sa(dp1307
S'action'
p1308
S'delete'
p1309
sS'order'
p1310
F1523899437.819553
sS'objid'
p1311
g8
(g12
S'c\x00\x00\x00\x00\x00\x00\x00'
p1312
tp1313
Rp1314
sa(dp1315
S'action'
p1316
S'delete'
p1317
sS'order'
p1318
F1523899437.829921
sS'objid'
p1319
g8
(g12
S'b\x00\x00\x00\x00\x00\x00\x00'
p1320
tp1321
Rp1322
sa(dp1323
S'action'
p1324
S'delete'
p1325
sS'order'
p1326
F1523899437.840281
sS'objid'
p1327
g8
(g12
S'a\x00\x00\x00\x00\x00\x00\x00'
p1328
tp1329
Rp1330
sa(dp1331
S'action'
p1332
S'delete'
p1333
sS'order'
p1334
F1523899437.85078
sS'objid'
p1335
g8
(g12
S'`\x00\x00\x00\x00\x00\x00\x00'
p1336
tp1337
Rp1338
sa(dp1339
S'action'
p1340
S'delete'
p1341
sS'order'
p1342
F1523899437.861325
sS'objid'
p1343
g8
(g12
S'_\x00\x00\x00\x00\x00\x00\x00'
p1344
tp1345
Rp1346
sa(dp1347
S'action'
p1348
S'delete'
p1349
sS'order'
p1350
F1523899437.871871
sS'objid'
p1351
g8
(g12
S'^\x00\x00\x00\x00\x00\x00\x00'
p1352
tp1353
Rp1354
sa(dp1355
S'action'
p1356
S'delete'
p1357
sS'order'
p1358
F1523899437.882464
sS'objid'
p1359
g8
(g12
S']\x00\x00\x00\x00\x00\x00\x00'
p1360
tp1361
Rp1362
sa(dp1363
S'action'
p1364
S'delete'
p1365
sS'order'
p1366
F1523899437.89316
sS'objid'
p1367
g8
(g12
S'\\\x00\x00\x00\x00\x00\x00\x00'
p1368
tp1369
Rp1370
sa(dp1371
S'action'
p1372
S'delete'
p1373
sS'order'
p1374
F1523899437.905926
sS'objid'
p1375
g8
(g12
S'[\x00\x00\x00\x00\x00\x00\x00'
p1376
tp1377
Rp1378
sa(dp1379
S'action'
p1380
S'delete'
p1381
sS'order'
p1382
F1523899437.918343
sS'objid'
p1383
g8
(g12
S'Z\x00\x00\x00\x00\x00\x00\x00'
p1384
tp1385
Rp1386
sa(dp1387
S'action'
p1388
S'delete'
p1389
sS'order'
p1390
F1523899437.929403
sS'objid'
p1391
g8
(g12
S'Y\x00\x00\x00\x00\x00\x00\x00'
p1392
tp1393
Rp1394
sa(dp1395
S'action'
p1396
S'delete'
p1397
sS'order'
p1398
F1523899437.940354
sS'objid'
p1399
g8
(g12
S'X\x00\x00\x00\x00\x00\x00\x00'
p1400
tp1401
Rp1402
sa(dp1403
S'action'
p1404
S'delete'
p1405
sS'order'
p1406
F1523899437.951421
sS'objid'
p1407
g8
(g12
S'W\x00\x00\x00\x00\x00\x00\x00'
p1408
tp1409
Rp1410
sa(dp1411
S'action'
p1412
S'delete'
p1413
sS'order'
p1414
F1523899437.962491
sS'objid'
p1415
g8
(g12
S'V\x00\x00\x00\x00\x00\x00\x00'
p1416
tp1417
Rp1418
sa(dp1419
S'action'
p1420
S'delete'
p1421
sS'order'
p1422
F1523899437.973625
sS'objid'
p1423
g8
(g12
S'U\x00\x00\x00\x00\x00\x00\x00'
p1424
tp1425
Rp1426
sa(dp1427
S'action'
p1428
S'delete'
p1429
sS'order'
p1430
F1523899437.98483
sS'objid'
p1431
g8
(g12
S'T\x00\x00\x00\x00\x00\x00\x00'
p1432
tp1433
Rp1434
sa(dp1435
S'action'
p1436
S'delete'
p1437
sS'order'
p1438
F1523899437.996037
sS'objid'
p1439
g8
(g12
S'S\x00\x00\x00\x00\x00\x00\x00'
p1440
tp1441
Rp1442
sa(dp1443
S'action'
p1444
S'delete'
p1445
sS'order'
p1446
F1523899438.008509
sS'objid'
p1447
g8
(g12
S'R\x00\x00\x00\x00\x00\x00\x00'
p1448
tp1449
Rp1450
sa(dp1451
S'action'
p1452
S'delete'
p1453
sS'order'
p1454
F1523899438.020748
sS'objid'
p1455
g8
(g12
S'Q\x00\x00\x00\x00\x00\x00\x00'
p1456
tp1457
Rp1458
sa(dp1459
S'action'
p1460
S'delete'
p1461
sS'order'
p1462
F1523899438.032287
sS'objid'
p1463
g8
(g12
S'P\x00\x00\x00\x00\x00\x00\x00'
p1464
tp1465
Rp1466
sa(dp1467
S'action'
p1468
S'delete'
p1469
sS'order'
p1470
F1523899438.043759
sS'objid'
p1471
g8
(g12
S'O\x00\x00\x00\x00\x00\x00\x00'
p1472
tp1473
Rp1474
sa(dp1475
S'action'
p1476
S'delete'
p1477
sS'order'
p1478
F1523899443.407641
sS'objid'
p1479
g8
(g12
S'N\x00\x00\x00\x00\x00\x00\x00'
p1480
tp1481
Rp1482
sa(dp1483
S'action'
p1484
S'delete'
p1485
sS'order'
p1486
F1523899443.421877
sS'objid'
p1487
g8
(g12
S'M\x00\x00\x00\x00\x00\x00\x00'
p1488
tp1489
Rp1490
sa(dp1491
S'action'
p1492
S'delete'
p1493
sS'order'
p1494
F1523899443.433673
sS'objid'
p1495
g8
(g12
S'L\x00\x00\x00\x00\x00\x00\x00'
p1496
tp1497
Rp1498
sa(dp1499
S'action'
p1500
S'delete'
p1501
sS'order'
p1502
F1523899443.445835
sS'objid'
p1503
g8
(g12
S'K\x00\x00\x00\x00\x00\x00\x00'
p1504
tp1505
Rp1506
sa(dp1507
S'action'
p1508
S'delete'
p1509
sS'order'
p1510
F1523899443.457654
sS'objid'
p1511
g8
(g12
S'J\x00\x00\x00\x00\x00\x00\x00'
p1512
tp1513
Rp1514
sa(dp1515
S'action'
p1516
S'delete'
p1517
sS'order'
p1518
F1523899443.469479
sS'objid'
p1519
g8
(g12
S'I\x00\x00\x00\x00\x00\x00\x00'
p1520
tp1521
Rp1522
sa(dp1523
S'action'
p1524
S'delete'
p1525
sS'order'
p1526
F1523899443.481412
sS'objid'
p1527
g8
(g12
S'H\x00\x00\x00\x00\x00\x00\x00'
p1528
tp1529
Rp1530
sa(dp1531
S'action'
p1532
S'delete'
p1533
sS'order'
p1534
F1523899443.49335
sS'objid'
p1535
g8
(g12
S'G\x00\x00\x00\x00\x00\x00\x00'
p1536
tp1537
Rp1538
sa(dp1539
S'action'
p1540
S'delete'
p1541
sS'order'
p1542
F1523899443.50544
sS'objid'
p1543
g8
(g12
S'F\x00\x00\x00\x00\x00\x00\x00'
p1544
tp1545
Rp1546
sa(dp1547
S'action'
p1548
S'delete'
p1549
sS'order'
p1550
F1523899443.517733
sS'objid'
p1551
g8
(g12
S'E\x00\x00\x00\x00\x00\x00\x00'
p1552
tp1553
Rp1554
sa(dp1555
S'action'
p1556
S'delete'
p1557
sS'order'
p1558
F1523899443.535888
sS'objid'
p1559
g8
(g12
S'D\x00\x00\x00\x00\x00\x00\x00'
p1560
tp1561
Rp1562
sa(dp1563
S'action'
p1564
S'delete'
p1565
sS'order'
p1566
F1523899443.548059
sS'objid'
p1567
g8
(g12
S'C\x00\x00\x00\x00\x00\x00\x00'
p1568
tp1569
Rp1570
sa(dp1571
S'action'
p1572
S'delete'
p1573
sS'order'
p1574
F1523899443.560304
sS'objid'
p1575
g8
(g12
S'B\x00\x00\x00\x00\x00\x00\x00'
p1576
tp1577
Rp1578
sa(dp1579
S'action'
p1580
S'delete'
p1581
sS'order'
p1582
F1523899443.572571
sS'objid'
p1583
g8
(g12
S'A\x00\x00\x00\x00\x00\x00\x00'
p1584
tp1585
Rp1586
sa(dp1587
S'action'
p1588
S'delete'
p1589
sS'order'
p1590
F1523899443.584919
sS'objid'
p1591
g8
(g12
S'@\x00\x00\x00\x00\x00\x00\x00'
p1592
tp1593
Rp1594
sa(dp1595
S'action'
p1596
S'delete'
p1597
sS'order'
p1598
F1523899443.597344
sS'objid'
p1599
g8
(g12
S'?\x00\x00\x00\x00\x00\x00\x00'
p1600
tp1601
Rp1602
sa(dp1603
S'action'
p1604
S'delete'
p1605
sS'order'
p1606
F1523899443.609887
sS'objid'
p1607
g8
(g12
S'>\x00\x00\x00\x00\x00\x00\x00'
p1608
tp1609
Rp1610
sa(dp1611
S'action'
p1612
S'delete'
p1613
sS'order'
p1614
F1523899443.62263
sS'objid'
p1615
g8
(g12
S'=\x00\x00\x00\x00\x00\x00\x00'
p1616
tp1617
Rp1618
sa(dp1619
S'action'
p1620
S'delete'
p1621
sS'order'
p1622
F1523899443.641631
sS'objid'
p1623
g8
(g12
S'<\x00\x00\x00\x00\x00\x00\x00'
p1624
tp1625
Rp1626
sa(dp1627
S'action'
p1628
S'delete'
p1629
sS'order'
p1630
F1523899443.654245
sS'objid'
p1631
g8
(g12
S';\x00\x00\x00\x00\x00\x00\x00'
p1632
tp1633
Rp1634
sa(dp1635
S'action'
p1636
S'delete'
p1637
sS'order'
p1638
F1523899443.666912
sS'objid'
p1639
g8
(g12
S':\x00\x00\x00\x00\x00\x00\x00'
p1640
tp1641
Rp1642
sa(dp1643
S'action'
p1644
S'delete'
p1645
sS'order'
p1646
F1523899443.679669
sS'objid'
p1647
g8
(g12
S'9\x00\x00\x00\x00\x00\x00\x00'
p1648
tp1649
Rp1650
sa(dp1651
S'action'
p1652
S'delete'
p1653
sS'order'
p1654
F1523899443.692459
sS'objid'
p1655
g8
(g12
S'8\x00\x00\x00\x00\x00\x00\x00'
p1656
tp1657
Rp1658
sa(dp1659
S'action'
p1660
S'delete'
p1661
sS'order'
p1662
F1523899443.705359
sS'objid'
p1663
g8
(g12
S'7\x00\x00\x00\x00\x00\x00\x00'
p1664
tp1665
Rp1666
sa(dp1667
S'action'
p1668
S'delete'
p1669
sS'order'
p1670
F1523899443.718381
sS'objid'
p1671
g8
(g12
S'6\x00\x00\x00\x00\x00\x00\x00'
p1672
tp1673
Rp1674
sa(dp1675
S'action'
p1676
S'delete'
p1677
sS'order'
p1678
F1523899443.731429
sS'objid'
p1679
g8
(g12
S'5\x00\x00\x00\x00\x00\x00\x00'
p1680
tp1681
Rp1682
sa(dp1683
S'action'
p1684
S'delete'
p1685
sS'order'
p1686
F1523899443.74453
sS'objid'
p1687
g8
(g12
S'4\x00\x00\x00\x00\x00\x00\x00'
p1688
tp1689
Rp1690
sa(dp1691
S'action'
p1692
S'delete'
p1693
sS'order'
p1694
F1523899443.757649
sS'objid'
p1695
g8
(g12
S'3\x00\x00\x00\x00\x00\x00\x00'
p1696
tp1697
Rp1698
sa(dp1699
S'action'
p1700
S'delete'
p1701
sS'order'
p1702
F1523899443.770743
sS'objid'
p1703
g8
(g12
S'2\x00\x00\x00\x00\x00\x00\x00'
p1704
tp1705
Rp1706
sa(dp1707
S'action'
p1708
S'delete'
p1709
sS'order'
p1710
F1523899450.145034
sS'objid'
p1711
g8
(g12
S'1\x00\x00\x00\x00\x00\x00\x00'
p1712
tp1713
Rp1714
sa(dp1715
S'action'
p1716
S'delete'
p1717
sS'order'
p1718
F1523899450.164931
sS'objid'
p1719
g8
(g12
S'0\x00\x00\x00\x00\x00\x00\x00'
p1720
tp1721
Rp1722
sa(dp1723
S'action'
p1724
S'delete'
p1725
sS'order'
p1726
F1523899450.178571
sS'objid'
p1727
g8
(g12
S'/\x00\x00\x00\x00\x00\x00\x00'
p1728
tp1729
Rp1730
sa(dp1731
S'action'
p1732
S'delete'
p1733
sS'order'
p1734
F1523899450.192091
sS'objid'
p1735
g8
(g12
S'.\x00\x00\x00\x00\x00\x00\x00'
p1736
tp1737
Rp1738
sa(dp1739
S'action'
p1740
S'delete'
p1741
sS'order'
p1742
F1523899450.205565
sS'objid'
p1743
g8
(g12
S'-\x00\x00\x00\x00\x00\x00\x00'
p1744
tp1745
Rp1746
sa(dp1747
S'action'
p1748
S'delete'
p1749
sS'order'
p1750
F1523899450.219061
sS'objid'
p1751
g8
(g12
S',\x00\x00\x00\x00\x00\x00\x00'
p1752
tp1753
Rp1754
sa(dp1755
S'action'
p1756
S'delete'
p1757
sS'order'
p1758
F1523899450.232828
sS'objid'
p1759
g8
(g12
S'+\x00\x00\x00\x00\x00\x00\x00'
p1760
tp1761
Rp1762
sa(dp1763
S'action'
p1764
S'delete'
p1765
sS'order'
p1766
F1523899450.246712
sS'objid'
p1767
g8
(g12
S'*\x00\x00\x00\x00\x00\x00\x00'
p1768
tp1769
Rp1770
sa(dp1771
S'action'
p1772
S'delete'
p1773
sS'order'
p1774
F1523899450.260466
sS'objid'
p1775
g8
(g12
S')\x00\x00\x00\x00\x00\x00\x00'
p1776
tp1777
Rp1778
sa(dp1779
S'action'
p1780
S'delete'
p1781
sS'order'
p1782
F1523899450.274222
sS'objid'
p1783
g8
(g12
S'&\x00\x00\x00\x00\x00\x00\x00'
p1784
tp1785
Rp1786
sa(dp1787
S'action'
p1788
S'delete'
p1789
sS'order'
p1790
F1523899450.288087
sS'objid'
p1791
g8
(g12
S'%\x00\x00\x00\x00\x00\x00\x00'
p1792
tp1793
Rp1794
sa(dp1795
S'action'
p1796
S'delete'
p1797
sS'order'
p1798
F1523899450.301989
sS'objid'
p1799
g8
(g12
S'\x04\x00\x00\x00\x00\x00\x00\x00'
p1800
tp1801
Rp1802
sa(dp1803
S'action'
p1804
S'delete'
p1805
sS'order'
p1806
F1523899455.021074
sS'objid'
p1807
g8
(g12
S'$\x00\x00\x00\x00\x00\x00\x00'
p1808
tp1809
Rp1810
sa(dp1811
S'action'
p1812
S'delete'
p1813
sS'order'
p1814
F1523899455.037561
sS'objid'
p1815
g8
(g12
S'#\x00\x00\x00\x00\x00\x00\x00'
p1816
tp1817
Rp1818
sa(dp1819
S'action'
p1820
S'delete'
p1821
sS'order'
p1822
F1523899455.05225
sS'objid'
p1823
g8
(g12
S'"\x00\x00\x00\x00\x00\x00\x00'
p1824
tp1825
Rp1826
sa(dp1827
S'action'
p1828
S'delete'
p1829
sS'order'
p1830
F1523899455.066749
sS'objid'
p1831
g8
(g12
S'!\x00\x00\x00\x00\x00\x00\x00'
p1832
tp1833
Rp1834
sa(dp1835
S'action'
p1836
S'delete'
p1837
sS'order'
p1838
F1523899455.08093
sS'objid'
p1839
g8
(g12
S' \x00\x00\x00\x00\x00\x00\x00'
p1840
tp1841
Rp1842
sa(dp1843
S'action'
p1844
S'delete'
p1845
sS'order'
p1846
F1523899455.095055
sS'objid'
p1847
g8
(g12
S'\x1f\x00\x00\x00\x00\x00\x00\x00'
p1848
tp1849
Rp1850
sa(dp1851
S'action'
p1852
S'delete'
p1853
sS'order'
p1854
F1523899455.1094
sS'objid'
p1855
g8
(g12
S'\x1e\x00\x00\x00\x00\x00\x00\x00'
p1856
tp1857
Rp1858
sa(dp1859
S'action'
p1860
S'delete'
p1861
sS'order'
p1862
F1523899455.124338
sS'objid'
p1863
g8
(g12
S'\x1d\x00\x00\x00\x00\x00\x00\x00'
p1864
tp1865
Rp1866
sa(dp1867
S'action'
p1868
S'delete'
p1869
sS'order'
p1870
F1523899455.138664
sS'objid'
p1871
g8
(g12
S'\x1c\x00\x00\x00\x00\x00\x00\x00'
p1872
tp1873
Rp1874
sa(dp1875
S'action'
p1876
S'delete'
p1877
sS'order'
p1878
F1523899455.153507
sS'objid'
p1879
g8
(g12
S'\x1b\x00\x00\x00\x00\x00\x00\x00'
p1880
tp1881
Rp1882
sa(dp1883
S'action'
p1884
S'delete'
p1885
sS'order'
p1886
F1523899455.16801
sS'objid'
p1887
g8
(g12
S'\x1a\x00\x00\x00\x00\x00\x00\x00'
p1888
tp1889
Rp1890
sa(dp1891
S'action'
p1892
S'delete'
p1893
sS'order'
p1894
F1523899455.182457
sS'objid'
p1895
g8
(g12
S'\x19\x00\x00\x00\x00\x00\x00\x00'
p1896
tp1897
Rp1898
sa(dp1899
S'action'
p1900
S'delete'
p1901
sS'order'
p1902
F1523899455.196979
sS'objid'
p1903
g8
(g12
S'\x18\x00\x00\x00\x00\x00\x00\x00'
p1904
tp1905
Rp1906
sa(dp1907
S'action'
p1908
S'delete'
p1909
sS'order'
p1910
F1523899455.211814
sS'objid'
p1911
g8
(g12
S'\x17\x00\x00\x00\x00\x00\x00\x00'
p1912
tp1913
Rp1914
sa(dp1915
S'action'
p1916
S'delete'
p1917
sS'order'
p1918
F1523899455.227221
sS'objid'
p1919
g8
(g12
S'\x16\x00\x00\x00\x00\x00\x00\x00'
p1920
tp1921
Rp1922
sa(dp1923
S'action'
p1924
S'delete'
p1925
sS'order'
p1926
F1523899455.241962
sS'objid'
p1927
g8
(g12
S'\x15\x00\x00\x00\x00\x00\x00\x00'
p1928
tp1929
Rp1930
sa(dp1931
S'action'
p1932
S'delete'
p1933
sS'order'
p1934
F1523899455.256737
sS'objid'
p1935
g8
(g12
S'\x14\x00\x00\x00\x00\x00\x00\x00'
p1936
tp1937
Rp1938
sa(dp1939
S'action'
p1940
S'delete'
p1941
sS'order'
p1942
F1523899455.271576
sS'objid'
p1943
g8
(g12
S'\x13\x00\x00\x00\x00\x00\x00\x00'
p1944
tp1945
Rp1946
sa(dp1947
S'action'
p1948
S'delete'
p1949
sS'order'
p1950
F1523899455.286495
sS'objid'
p1951
g8
(g12
S'\x12\x00\x00\x00\x00\x00\x00\x00'
p1952
tp1953
Rp1954
sa(dp1955
S'action'
p1956
S'delete'
p1957
sS'order'
p1958
F1523899455.301508
sS'objid'
p1959
g8
(g12
S'\x11\x00\x00\x00\x00\x00\x00\x00'
p1960
tp1961
Rp1962
sa(dp1963
S'action'
p1964
S'delete'
p1965
sS'order'
p1966
F1523899455.317262
sS'objid'
p1967
g8
(g12
S'\x10\x00\x00\x00\x00\x00\x00\x00'
p1968
tp1969
Rp1970
sa(dp1971
S'action'
p1972
S'delete'
p1973
sS'order'
p1974
F1523899455.332373
sS'objid'
p1975
g8
(g12
S'\x0f\x00\x00\x00\x00\x00\x00\x00'
p1976
tp1977
Rp1978
sa(dp1979
S'action'
p1980
S'delete'
p1981
sS'order'
p1982
F1523899460.324963
sS'objid'
p1983
g8
(g12
S'\x0e\x00\x00\x00\x00\x00\x00\x00'
p1984
tp1985
Rp1986
sa(dp1987
S'action'
p1988
S'delete'
p1989
sS'order'
p1990
F1523899460.343579
sS'objid'
p1991
g8
(g12
S'\r\x00\x00\x00\x00\x00\x00\x00'
p1992
tp1993
Rp1994
sa(dp1995
S'action'
p1996
S'delete'
p1997
sS'order'
p1998
F1523899460.359061
sS'objid'
p1999
g8
(g12
S'\x0c\x00\x00\x00\x00\x00\x00\x00'
p2000
tp2001
Rp2002
sa(dp2003
S'action'
p2004
S'delete'
p2005
sS'order'
p2006
F1523899460.374525
sS'objid'
p2007
g8
(g12
S'\x0b\x00\x00\x00\x00\x00\x00\x00'
p2008
tp2009
Rp2010
sa(dp2011
S'action'
p2012
S'delete'
p2013
sS'order'
p2014
F1523899460.390186
sS'objid'
p2015
g8
(g12
S'\n\x00\x00\x00\x00\x00\x00\x00'
p2016
tp2017
Rp2018
sa(dp2019
S'action'
p2020
S'delete'
p2021
sS'order'
p2022
F1523899460.406032
sS'objid'
p2023
g8
(g12
S'\t\x00\x00\x00\x00\x00\x00\x00'
p2024
tp2025
Rp2026
sa(dp2027
S'action'
p2028
S'delete'
p2029
sS'order'
p2030
F1523899460.421571
sS'objid'
p2031
g8
(g12
S'\x08\x00\x00\x00\x00\x00\x00\x00'
p2032
tp2033
Rp2034
sa(dp2035
S'action'
p2036
S'delete'
p2037
sS'order'
p2038
F1523899460.437098
sS'objid'
p2039
g8
(g12
S'\x07\x00\x00\x00\x00\x00\x00\x00'
p2040
tp2041
Rp2042
sa(dp2043
S'action'
p2044
S'delete'
p2045
sS'order'
p2046
F1523899460.452685
sS'objid'
p2047
g8
(g12
S'\x06\x00\x00\x00\x00\x00\x00\x00'
p2048
tp2049
Rp2050
sa(dp2051
S'action'
p2052
S'delete'
p2053
sS'order'
p2054
F1523899460.468459
sS'objid'
p2055
g8
(g12
S'\x05\x00\x00\x00\x00\x00\x00\x00'
p2056
tp2057
Rp2058
sa(dp2059
S'action'
p2060
S'delete'
p2061
sS'order'
p2062
F1523899464.612991
sS'objid'
p2063
g8
(g12
S'\x03\x00\x00\x00\x00\x00\x00\x00'
p2064
tp2065
Rp2066
sa(dp2067
S'action'
p2068
S'delete'
p2069
sS'order'
p2070
F1523899464.64218
sS'objid'
p2071
g8
(g12
S'\x02\x00\x00\x00\x00\x00\x00\x00'
p2072
tp2073
Rp2074
sa(dp2075
S'action'
p2076
S'delete'
p2077
sS'order'
p2078
F1523899464.666459
sS'objid'
p2079
g8
(g12
S'\x01\x00\x00\x00\x00\x00\x00\x00'
p2080
tp2081
Rp2082
sa.