(lp0
(dp1
S'action'
p2
S'join'
p3
sS'data_to_add'
p4
(lp5
sS'order'
p6
F1523982753.797686
sS'new_objid'
p7
cnumpy.core.multiarray
scalar
p8
(cnumpy
dtype
p9
(S'i8'
p10
I0
I1
tp11
Rp12
(I3
S'<'
p13
NNNI-1
I-1
I0
tp14
bS'(\x00\x00\x00\x00\x00\x00\x00'
p15
tp16
Rp17
sS'objids'
p18
(lp19
g8
(g12
S'\x00\x00\x00\x00\x00\x00\x00\x00'
p20
tp21
Rp22
ag8
(g12
S'\x01\x00\x00\x00\x00\x00\x00\x00'
p23
tp24
Rp25
asa(dp26
g2
g3
sg4
(lp27
sg6
F1523982758.526571
sg7
g8
(g12
S')\x00\x00\x00\x00\x00\x00\x00'
p28
tp29
Rp30
sg18
(lp31
g8
(g12
S'\x02\x00\x00\x00\x00\x00\x00\x00'
p32
tp33
Rp34
ag8
(g12
S'(\x00\x00\x00\x00\x00\x00\x00'
p35
tp36
Rp37
asa(dp38
S'action'
p39
S'join'
p40
sS'data_to_add'
p41
(lp42
sS'order'
p43
F1523982766.278917
sS'new_objid'
p44
g8
(g12
S'+\x00\x00\x00\x00\x00\x00\x00'
p45
tp46
Rp47
sS'objids'
p48
(lp49
g8
(g12
S')\x00\x00\x00\x00\x00\x00\x00'
p50
tp51
Rp52
ag8
(g12
S'\x03\x00\x00\x00\x00\x00\x00\x00'
p53
tp54
Rp55
asa(dp56
S'action'
p57
S'join'
p58
sS'data_to_add'
p59
(lp60
sS'order'
p61
F1523982773.222975
sS'new_objid'
p62
g8
(g12
S',\x00\x00\x00\x00\x00\x00\x00'
p63
tp64
Rp65
sS'objids'
p66
(lp67
g8
(g12
S'+\x00\x00\x00\x00\x00\x00\x00'
p68
tp69
Rp70
ag8
(g12
S'\x06\x00\x00\x00\x00\x00\x00\x00'
p71
tp72
Rp73
ag8
(g12
S'\x05\x00\x00\x00\x00\x00\x00\x00'
p74
tp75
Rp76
asa(dp77
S'action'
p78
S'join'
p79
sS'data_to_add'
p80
(lp81
sS'order'
p82
F1523982780.583901
sS'new_objid'
p83
g8
(g12
S'-\x00\x00\x00\x00\x00\x00\x00'
p84
tp85
Rp86
sS'objids'
p87
(lp88
g8
(g12
S',\x00\x00\x00\x00\x00\x00\x00'
p89
tp90
Rp91
ag8
(g12
S'\n\x00\x00\x00\x00\x00\x00\x00'
p92
tp93
Rp94
asa(dp95
S'action'
p96
S'join'
p97
sS'data_to_add'
p98
(lp99
sS'order'
p100
F1523982787.888361
sS'new_objid'
p101
g8
(g12
S'.\x00\x00\x00\x00\x00\x00\x00'
p102
tp103
Rp104
sS'objids'
p105
(lp106
g8
(g12
S'-\x00\x00\x00\x00\x00\x00\x00'
p107
tp108
Rp109
ag8
(g12
S'\x17\x00\x00\x00\x00\x00\x00\x00'
p110
tp111
Rp112
asa(dp113
S'action'
p114
S'delete'
p115
sS'order'
p116
F1523982793.866259
sS'objid'
p117
g8
(g12
S'\x1d\x00\x00\x00\x00\x00\x00\x00'
p118
tp119
Rp120
sa(dp121
S'action'
p122
S'delete'
p123
sS'order'
p124
F1523982793.868098
sS'objid'
p125
g8
(g12
S'\x1c\x00\x00\x00\x00\x00\x00\x00'
p126
tp127
Rp128
sa(dp129
S'action'
p130
S'delete'
p131
sS'order'
p132
F1523982793.870776
sS'objid'
p133
g8
(g12
S'\x1b\x00\x00\x00\x00\x00\x00\x00'
p134
tp135
Rp136
sa(dp137
S'action'
p138
S'delete'
p139
sS'order'
p140
F1523982793.874659
sS'objid'
p141
g8
(g12
S'\x1a\x00\x00\x00\x00\x00\x00\x00'
p142
tp143
Rp144
sa(dp145
S'action'
p146
S'delete'
p147
sS'order'
p148
F1523982793.877756
sS'objid'
p149
g8
(g12
S'\x19\x00\x00\x00\x00\x00\x00\x00'
p150
tp151
Rp152
sa(dp153
S'action'
p154
S'delete'
p155
sS'order'
p156
F1523982793.880849
sS'objid'
p157
g8
(g12
S'\x18\x00\x00\x00\x00\x00\x00\x00'
p158
tp159
Rp160
sa(dp161
S'action'
p162
S'delete'
p163
sS'order'
p164
F1523982793.884004
sS'objid'
p165
g8
(g12
S'\x16\x00\x00\x00\x00\x00\x00\x00'
p166
tp167
Rp168
sa(dp169
S'action'
p170
S'delete'
p171
sS'order'
p172
F1523982793.887259
sS'objid'
p173
g8
(g12
S'\x15\x00\x00\x00\x00\x00\x00\x00'
p174
tp175
Rp176
sa(dp177
S'action'
p178
S'delete'
p179
sS'order'
p180
F1523982793.890615
sS'objid'
p181
g8
(g12
S'\x14\x00\x00\x00\x00\x00\x00\x00'
p182
tp183
Rp184
sa(dp185
S'action'
p186
S'delete'
p187
sS'order'
p188
F1523982793.893325
sS'objid'
p189
g8
(g12
S'\x13\x00\x00\x00\x00\x00\x00\x00'
p190
tp191
Rp192
sa(dp193
S'action'
p194
S'delete'
p195
sS'order'
p196
F1523982793.896223
sS'objid'
p197
g8
(g12
S'\x12\x00\x00\x00\x00\x00\x00\x00'
p198
tp199
Rp200
sa(dp201
S'action'
p202
S'delete'
p203
sS'order'
p204
F1523982793.898968
sS'objid'
p205
g8
(g12
S'\x11\x00\x00\x00\x00\x00\x00\x00'
p206
tp207
Rp208
sa(dp209
S'action'
p210
S'delete'
p211
sS'order'
p212
F1523982793.901459
sS'objid'
p213
g8
(g12
S'\x10\x00\x00\x00\x00\x00\x00\x00'
p214
tp215
Rp216
sa(dp217
S'action'
p218
S'delete'
p219
sS'order'
p220
F1523982793.904053
sS'objid'
p221
g8
(g12
S'\x0f\x00\x00\x00\x00\x00\x00\x00'
p222
tp223
Rp224
sa(dp225
S'action'
p226
S'delete'
p227
sS'order'
p228
F1523982793.906674
sS'objid'
p229
g8
(g12
S'\x0e\x00\x00\x00\x00\x00\x00\x00'
p230
tp231
Rp232
sa(dp233
S'action'
p234
S'delete'
p235
sS'order'
p236
F1523982793.909103
sS'objid'
p237
g8
(g12
S'\r\x00\x00\x00\x00\x00\x00\x00'
p238
tp239
Rp240
sa(dp241
S'action'
p242
S'delete'
p243
sS'order'
p244
F1523982793.9115
sS'objid'
p245
g8
(g12
S'\x0c\x00\x00\x00\x00\x00\x00\x00'
p246
tp247
Rp248
sa(dp249
S'action'
p250
S'delete'
p251
sS'order'
p252
F1523982793.913948
sS'objid'
p253
g8
(g12
S'\x0b\x00\x00\x00\x00\x00\x00\x00'
p254
tp255
Rp256
sa(dp257
S'action'
p258
S'delete'
p259
sS'order'
p260
F1523982793.916481
sS'objid'
p261
g8
(g12
S'\t\x00\x00\x00\x00\x00\x00\x00'
p262
tp263
Rp264
sa(dp265
S'action'
p266
S'delete'
p267
sS'order'
p268
F1523982793.919069
sS'objid'
p269
g8
(g12
S'\x08\x00\x00\x00\x00\x00\x00\x00'
p270
tp271
Rp272
sa(dp273
S'action'
p274
S'delete'
p275
sS'order'
p276
F1523982793.921712
sS'objid'
p277
g8
(g12
S'\x07\x00\x00\x00\x00\x00\x00\x00'
p278
tp279
Rp280
sa(dp281
S'action'
p282
S'delete'
p283
sS'order'
p284
F1523982793.92441
sS'objid'
p285
g8
(g12
S'\x04\x00\x00\x00\x00\x00\x00\x00'
p286
tp287
Rp288
sa.