(lp0
(dp1
S'cut_frame_global'
p2
I785
sS'cut_time_epoch'
p3
cnumpy.core.multiarray
scalar
p4
(cnumpy
dtype
p5
(S'f8'
p6
I0
I1
tp7
Rp8
(I3
S'<'
p9
NNNI-1
I-1
I0
tp10
bS'\x93+\x947\x8f\xb4\xd6A'
p11
tp12
Rp13
sS'cut_frame_trajectory'
p14
g4
(g5
(S'i8'
p15
I0
I1
tp16
Rp17
(I3
S'<'
p18
NNNI-1
I-1
I0
tp19
bS'\x10\x03\x00\x00\x00\x00\x00\x00'
p20
tp21
Rp22
sS'objid'
p23
g4
(g17
S'\x00\x00\x00\x00\x00\x00\x00\x00'
p24
tp25
Rp26
sS'action'
p27
S'cut'
p28
sS'order'
p29
F1523920381.637833
sS'new_objid'
p30
g4
(g17
S';\x00\x00\x00\x00\x00\x00\x00'
p31
tp32
Rp33
sa(dp34
g27
S'join'
p35
sS'data_to_add'
p36
(lp37
sg29
F1523920390.323769
sg30
g4
(g17
S'<\x00\x00\x00\x00\x00\x00\x00'
p38
tp39
Rp40
sS'objids'
p41
(lp42
g4
(g17
S'\x00\x00\x00\x00\x00\x00\x00\x00'
p43
tp44
Rp45
ag4
(g17
S'\x1c\x00\x00\x00\x00\x00\x00\x00'
p46
tp47
Rp48
asa(dp49
S'cut_frame_global'
p50
I1337
sS'cut_time_epoch'
p51
g4
(g8
S'7\xff`E\x8f\xb4\xd6A'
p52
tp53
Rp54
sS'cut_frame_trajectory'
p55
g4
(g17
S'8\x05\x00\x00\x00\x00\x00\x00'
p56
tp57
Rp58
sS'objid'
p59
g4
(g17
S'<\x00\x00\x00\x00\x00\x00\x00'
p60
tp61
Rp62
sS'action'
p63
S'cut'
p64
sS'order'
p65
F1523920408.84102
sS'new_objid'
p66
g4
(g17
S'>\x00\x00\x00\x00\x00\x00\x00'
p67
tp68
Rp69
sa(dp70
S'cut_frame_global'
p71
I1404
sS'cut_time_epoch'
p72
g4
(g8
S'\xd1\xc5\rG\x8f\xb4\xd6A'
p73
tp74
Rp75
sS'cut_frame_trajectory'
p76
g4
(g17
S'C\x00\x00\x00\x00\x00\x00\x00'
p77
tp78
Rp79
sS'objid'
p80
g4
(g17
S'>\x00\x00\x00\x00\x00\x00\x00'
p81
tp82
Rp83
sS'action'
p84
S'cut'
p85
sS'order'
p86
F1523920410.189762
sS'new_objid'
p87
g4
(g17
S'?\x00\x00\x00\x00\x00\x00\x00'
p88
tp89
Rp90
sa(dp91
S'cut_frame_global'
p92
I1359
sS'cut_time_epoch'
p93
g4
(g8
S'5\xc5\xedE\x8f\xb4\xd6A'
p94
tp95
Rp96
sS'cut_frame_trajectory'
p97
g4
(g17
S'\x16\x00\x00\x00\x00\x00\x00\x00'
p98
tp99
Rp100
sS'objid'
p101
g4
(g17
S'>\x00\x00\x00\x00\x00\x00\x00'
p102
tp103
Rp104
sS'action'
p105
S'cut'
p106
sS'order'
p107
F1523920411.421685
sS'new_objid'
p108
g4
(g17
S'@\x00\x00\x00\x00\x00\x00\x00'
p109
tp110
Rp111
sa(dp112
S'cut_frame_global'
p113
I1337
sS'cut_time_epoch'
p114
g4
(g8
S'7\xff`E\x8f\xb4\xd6A'
p115
tp116
Rp117
sS'cut_frame_trajectory'
p118
g4
(g17
S'N\x00\x00\x00\x00\x00\x00\x00'
p119
tp120
Rp121
sS'objid'
p122
g4
(g17
S"'\x00\x00\x00\x00\x00\x00\x00"
p123
tp124
Rp125
sS'action'
p126
S'cut'
p127
sS'order'
p128
F1523920414.278003
sS'new_objid'
p129
g4
(g17
S'A\x00\x00\x00\x00\x00\x00\x00'
p130
tp131
Rp132
sa(dp133
S'action'
p134
S'join'
p135
sS'data_to_add'
p136
(lp137
sS'order'
p138
F1523920420.805189
sS'new_objid'
p139
g4
(g17
S'B\x00\x00\x00\x00\x00\x00\x00'
p140
tp141
Rp142
sS'objids'
p143
(lp144
g4
(g17
S'A\x00\x00\x00\x00\x00\x00\x00'
p145
tp146
Rp147
ag4
(g17
S'<\x00\x00\x00\x00\x00\x00\x00'
p148
tp149
Rp150
asa(dp151
S'action'
p152
S'join'
p153
sS'data_to_add'
p154
(lp155
sS'order'
p156
F1523920427.908221
sS'new_objid'
p157
g4
(g17
S'C\x00\x00\x00\x00\x00\x00\x00'
p158
tp159
Rp160
sS'objids'
p161
(lp162
g4
(g17
S'*\x00\x00\x00\x00\x00\x00\x00'
p163
tp164
Rp165
ag4
(g17
S',\x00\x00\x00\x00\x00\x00\x00'
p166
tp167
Rp168
ag4
(g17
S'B\x00\x00\x00\x00\x00\x00\x00'
p169
tp170
Rp171
asa(dp172
S'action'
p173
S'join'
p174
sS'data_to_add'
p175
(lp176
sS'order'
p177
F1523920441.100799
sS'new_objid'
p178
g4
(g17
S'D\x00\x00\x00\x00\x00\x00\x00'
p179
tp180
Rp181
sS'objids'
p182
(lp183
g4
(g17
S'C\x00\x00\x00\x00\x00\x00\x00'
p184
tp185
Rp186
ag4
(g17
S'0\x00\x00\x00\x00\x00\x00\x00'
p187
tp188
Rp189
ag4
(g17
S'.\x00\x00\x00\x00\x00\x00\x00'
p190
tp191
Rp192
asa(dp193
S'action'
p194
S'delete'
p195
sS'order'
p196
F1523920453.101084
sS'objid'
p197
g4
(g17
S'@\x00\x00\x00\x00\x00\x00\x00'
p198
tp199
Rp200
sa(dp201
S'action'
p202
S'delete'
p203
sS'order'
p204
F1523920453.103897
sS'objid'
p205
g4
(g17
S'?\x00\x00\x00\x00\x00\x00\x00'
p206
tp207
Rp208
sa(dp209
S'action'
p210
S'delete'
p211
sS'order'
p212
F1523920453.10718
sS'objid'
p213
g4
(g17
S'>\x00\x00\x00\x00\x00\x00\x00'
p214
tp215
Rp216
sa(dp217
S'action'
p218
S'delete'
p219
sS'order'
p220
F1523920453.11008
sS'objid'
p221
g4
(g17
S';\x00\x00\x00\x00\x00\x00\x00'
p222
tp223
Rp224
sa(dp225
S'action'
p226
S'delete'
p227
sS'order'
p228
F1523920453.113281
sS'objid'
p229
g4
(g17
S'/\x00\x00\x00\x00\x00\x00\x00'
p230
tp231
Rp232
sa(dp233
S'action'
p234
S'delete'
p235
sS'order'
p236
F1523920453.116121
sS'objid'
p237
g4
(g17
S'-\x00\x00\x00\x00\x00\x00\x00'
p238
tp239
Rp240
sa(dp241
S'action'
p242
S'delete'
p243
sS'order'
p244
F1523920453.118592
sS'objid'
p245
g4
(g17
S'+\x00\x00\x00\x00\x00\x00\x00'
p246
tp247
Rp248
sa(dp249
S'action'
p250
S'delete'
p251
sS'order'
p252
F1523920453.121312
sS'objid'
p253
g4
(g17
S')\x00\x00\x00\x00\x00\x00\x00'
p254
tp255
Rp256
sa(dp257
S'action'
p258
S'delete'
p259
sS'order'
p260
F1523920453.123896
sS'objid'
p261
g4
(g17
S'(\x00\x00\x00\x00\x00\x00\x00'
p262
tp263
Rp264
sa(dp265
S'action'
p266
S'delete'
p267
sS'order'
p268
F1523920453.12651
sS'objid'
p269
g4
(g17
S"'\x00\x00\x00\x00\x00\x00\x00"
p270
tp271
Rp272
sa(dp273
S'action'
p274
S'delete'
p275
sS'order'
p276
F1523920453.129731
sS'objid'
p277
g4
(g17
S'&\x00\x00\x00\x00\x00\x00\x00'
p278
tp279
Rp280
sa(dp281
S'action'
p282
S'delete'
p283
sS'order'
p284
F1523920453.132499
sS'objid'
p285
g4
(g17
S'%\x00\x00\x00\x00\x00\x00\x00'
p286
tp287
Rp288
sa(dp289
S'action'
p290
S'delete'
p291
sS'order'
p292
F1523920453.135295
sS'objid'
p293
g4
(g17
S'$\x00\x00\x00\x00\x00\x00\x00'
p294
tp295
Rp296
sa(dp297
S'action'
p298
S'delete'
p299
sS'order'
p300
F1523920453.138153
sS'objid'
p301
g4
(g17
S'#\x00\x00\x00\x00\x00\x00\x00'
p302
tp303
Rp304
sa(dp305
S'action'
p306
S'delete'
p307
sS'order'
p308
F1523920453.141068
sS'objid'
p309
g4
(g17
S'"\x00\x00\x00\x00\x00\x00\x00'
p310
tp311
Rp312
sa(dp313
S'action'
p314
S'delete'
p315
sS'order'
p316
F1523920453.144039
sS'objid'
p317
g4
(g17
S'!\x00\x00\x00\x00\x00\x00\x00'
p318
tp319
Rp320
sa(dp321
S'action'
p322
S'delete'
p323
sS'order'
p324
F1523920453.147048
sS'objid'
p325
g4
(g17
S' \x00\x00\x00\x00\x00\x00\x00'
p326
tp327
Rp328
sa(dp329
S'action'
p330
S'delete'
p331
sS'order'
p332
F1523920453.150127
sS'objid'
p333
g4
(g17
S'\x1f\x00\x00\x00\x00\x00\x00\x00'
p334
tp335
Rp336
sa(dp337
S'action'
p338
S'delete'
p339
sS'order'
p340
F1523920453.153259
sS'objid'
p341
g4
(g17
S'\x1e\x00\x00\x00\x00\x00\x00\x00'
p342
tp343
Rp344
sa(dp345
S'action'
p346
S'delete'
p347
sS'order'
p348
F1523920453.156496
sS'objid'
p349
g4
(g17
S'\x1d\x00\x00\x00\x00\x00\x00\x00'
p350
tp351
Rp352
sa(dp353
S'action'
p354
S'delete'
p355
sS'order'
p356
F1523920453.159777
sS'objid'
p357
g4
(g17
S'\x1b\x00\x00\x00\x00\x00\x00\x00'
p358
tp359
Rp360
sa(dp361
S'action'
p362
S'delete'
p363
sS'order'
p364
F1523920453.163092
sS'objid'
p365
g4
(g17
S'\x1a\x00\x00\x00\x00\x00\x00\x00'
p366
tp367
Rp368
sa(dp369
S'action'
p370
S'delete'
p371
sS'order'
p372
F1523920453.166502
sS'objid'
p373
g4
(g17
S'\x19\x00\x00\x00\x00\x00\x00\x00'
p374
tp375
Rp376
sa(dp377
S'action'
p378
S'delete'
p379
sS'order'
p380
F1523920453.169978
sS'objid'
p381
g4
(g17
S'\x18\x00\x00\x00\x00\x00\x00\x00'
p382
tp383
Rp384
sa(dp385
S'action'
p386
S'delete'
p387
sS'order'
p388
F1523920453.173479
sS'objid'
p389
g4
(g17
S'\x17\x00\x00\x00\x00\x00\x00\x00'
p390
tp391
Rp392
sa(dp393
S'action'
p394
S'delete'
p395
sS'order'
p396
F1523920453.177027
sS'objid'
p397
g4
(g17
S'\x16\x00\x00\x00\x00\x00\x00\x00'
p398
tp399
Rp400
sa(dp401
S'action'
p402
S'delete'
p403
sS'order'
p404
F1523920453.180647
sS'objid'
p405
g4
(g17
S'\x15\x00\x00\x00\x00\x00\x00\x00'
p406
tp407
Rp408
sa(dp409
S'action'
p410
S'delete'
p411
sS'order'
p412
F1523920453.184292
sS'objid'
p413
g4
(g17
S'\x14\x00\x00\x00\x00\x00\x00\x00'
p414
tp415
Rp416
sa(dp417
S'action'
p418
S'delete'
p419
sS'order'
p420
F1523920453.188013
sS'objid'
p421
g4
(g17
S'\x13\x00\x00\x00\x00\x00\x00\x00'
p422
tp423
Rp424
sa(dp425
S'action'
p426
S'delete'
p427
sS'order'
p428
F1523920453.19179
sS'objid'
p429
g4
(g17
S'\x12\x00\x00\x00\x00\x00\x00\x00'
p430
tp431
Rp432
sa(dp433
S'action'
p434
S'delete'
p435
sS'order'
p436
F1523920453.195616
sS'objid'
p437
g4
(g17
S'\x11\x00\x00\x00\x00\x00\x00\x00'
p438
tp439
Rp440
sa(dp441
S'action'
p442
S'delete'
p443
sS'order'
p444
F1523920453.1995
sS'objid'
p445
g4
(g17
S'\x10\x00\x00\x00\x00\x00\x00\x00'
p446
tp447
Rp448
sa(dp449
S'action'
p450
S'delete'
p451
sS'order'
p452
F1523920453.203442
sS'objid'
p453
g4
(g17
S'\x0f\x00\x00\x00\x00\x00\x00\x00'
p454
tp455
Rp456
sa(dp457
S'action'
p458
S'delete'
p459
sS'order'
p460
F1523920453.207425
sS'objid'
p461
g4
(g17
S'\x0e\x00\x00\x00\x00\x00\x00\x00'
p462
tp463
Rp464
sa(dp465
S'action'
p466
S'delete'
p467
sS'order'
p468
F1523920453.211488
sS'objid'
p469
g4
(g17
S'\r\x00\x00\x00\x00\x00\x00\x00'
p470
tp471
Rp472
sa(dp473
S'action'
p474
S'delete'
p475
sS'order'
p476
F1523920453.215594
sS'objid'
p477
g4
(g17
S'\x0c\x00\x00\x00\x00\x00\x00\x00'
p478
tp479
Rp480
sa(dp481
S'action'
p482
S'delete'
p483
sS'order'
p484
F1523920453.21977
sS'objid'
p485
g4
(g17
S'\x0b\x00\x00\x00\x00\x00\x00\x00'
p486
tp487
Rp488
sa(dp489
S'action'
p490
S'delete'
p491
sS'order'
p492
F1523920453.224016
sS'objid'
p493
g4
(g17
S'\n\x00\x00\x00\x00\x00\x00\x00'
p494
tp495
Rp496
sa(dp497
S'action'
p498
S'delete'
p499
sS'order'
p500
F1523920453.228304
sS'objid'
p501
g4
(g17
S'\t\x00\x00\x00\x00\x00\x00\x00'
p502
tp503
Rp504
sa(dp505
S'action'
p506
S'delete'
p507
sS'order'
p508
F1523920453.232647
sS'objid'
p509
g4
(g17
S'\x08\x00\x00\x00\x00\x00\x00\x00'
p510
tp511
Rp512
sa(dp513
S'action'
p514
S'delete'
p515
sS'order'
p516
F1523920453.237064
sS'objid'
p517
g4
(g17
S'\x07\x00\x00\x00\x00\x00\x00\x00'
p518
tp519
Rp520
sa(dp521
S'action'
p522
S'delete'
p523
sS'order'
p524
F1523920453.241501
sS'objid'
p525
g4
(g17
S'\x06\x00\x00\x00\x00\x00\x00\x00'
p526
tp527
Rp528
sa(dp529
S'action'
p530
S'delete'
p531
sS'order'
p532
F1523920453.246003
sS'objid'
p533
g4
(g17
S'\x05\x00\x00\x00\x00\x00\x00\x00'
p534
tp535
Rp536
sa(dp537
S'action'
p538
S'delete'
p539
sS'order'
p540
F1523920453.250583
sS'objid'
p541
g4
(g17
S'\x04\x00\x00\x00\x00\x00\x00\x00'
p542
tp543
Rp544
sa(dp545
S'action'
p546
S'delete'
p547
sS'order'
p548
F1523920453.255245
sS'objid'
p549
g4
(g17
S'\x03\x00\x00\x00\x00\x00\x00\x00'
p550
tp551
Rp552
sa(dp553
S'action'
p554
S'delete'
p555
sS'order'
p556
F1523920453.259973
sS'objid'
p557
g4
(g17
S'\x02\x00\x00\x00\x00\x00\x00\x00'
p558
tp559
Rp560
sa(dp561
S'action'
p562
S'delete'
p563
sS'order'
p564
F1523920453.264735
sS'objid'
p565
g4
(g17
S'\x01\x00\x00\x00\x00\x00\x00\x00'
p566
tp567
Rp568
sa.