(lp0
(dp1
S'action'
p2
S'join'
p3
sS'data_to_add'
p4
(lp5
sS'order'
p6
F1524075753.235974
sS'new_objid'
p7
cnumpy.core.multiarray
scalar
p8
(cnumpy
dtype
p9
(S'i8'
p10
I0
I1
tp11
Rp12
(I3
S'<'
p13
NNNI-1
I-1
I0
tp14
bS'\x14\x01\x00\x00\x00\x00\x00\x00'
p15
tp16
Rp17
sS'objids'
p18
(lp19
g8
(g12
S'\x05\x00\x00\x00\x00\x00\x00\x00'
p20
tp21
Rp22
ag8
(g12
S'\x03\x00\x00\x00\x00\x00\x00\x00'
p23
tp24
Rp25
ag8
(g12
S'\x00\x00\x00\x00\x00\x00\x00\x00'
p26
tp27
Rp28
ag8
(g12
S'\x02\x00\x00\x00\x00\x00\x00\x00'
p29
tp30
Rp31
asa(dp32
S'action'
p33
S'join'
p34
sS'data_to_add'
p35
(lp36
sS'order'
p37
F1524075768.081787
sS'new_objid'
p38
g8
(g12
S'\x15\x01\x00\x00\x00\x00\x00\x00'
p39
tp40
Rp41
sS'objids'
p42
(lp43
g8
(g12
S'\x07\x00\x00\x00\x00\x00\x00\x00'
p44
tp45
Rp46
ag8
(g12
S'\x14\x01\x00\x00\x00\x00\x00\x00'
p47
tp48
Rp49
asa(dp50
S'action'
p51
S'join'
p52
sS'data_to_add'
p53
(lp54
sS'order'
p55
F1524075788.913495
sS'new_objid'
p56
g8
(g12
S'\x16\x01\x00\x00\x00\x00\x00\x00'
p57
tp58
Rp59
sS'objids'
p60
(lp61
g8
(g12
S'\x15\x01\x00\x00\x00\x00\x00\x00'
p62
tp63
Rp64
ag8
(g12
S'\x14\x00\x00\x00\x00\x00\x00\x00'
p65
tp66
Rp67
asa(dp68
S'action'
p69
S'join'
p70
sS'data_to_add'
p71
(lp72
sS'order'
p73
F1524075801.978451
sS'new_objid'
p74
g8
(g12
S'\x17\x01\x00\x00\x00\x00\x00\x00'
p75
tp76
Rp77
sS'objids'
p78
(lp79
g8
(g12
S'\x18\x00\x00\x00\x00\x00\x00\x00'
p80
tp81
Rp82
ag8
(g12
S'\x16\x01\x00\x00\x00\x00\x00\x00'
p83
tp84
Rp85
asa(dp86
S'cut_frame_global'
p87
I551
sS'cut_time_epoch'
p88
g8
(g9
(S'f8'
p89
I0
I1
tp90
Rp91
(I3
S'<'
p92
NNNI-1
I-1
I0
tp93
bS's`L \xe0\xb5\xd6A'
p94
tp95
Rp96
sS'cut_frame_trajectory'
p97
g8
(g12
S'\x01\x00\x00\x00\x00\x00\x00\x00'
p98
tp99
Rp100
sS'objid'
p101
g8
(g12
S'\x1e\x00\x00\x00\x00\x00\x00\x00'
p102
tp103
Rp104
sS'action'
p105
S'cut'
p106
sS'order'
p107
F1524075824.230044
sS'new_objid'
p108
g8
(g12
S'\x18\x01\x00\x00\x00\x00\x00\x00'
p109
tp110
Rp111
sa(dp112
S'action'
p113
S'join'
p114
sS'data_to_add'
p115
(lp116
sS'order'
p117
F1524075830.634709
sS'new_objid'
p118
g8
(g12
S'\x19\x01\x00\x00\x00\x00\x00\x00'
p119
tp120
Rp121
sS'objids'
p122
(lp123
g8
(g12
S'\x17\x01\x00\x00\x00\x00\x00\x00'
p124
tp125
Rp126
ag8
(g12
S'\x18\x01\x00\x00\x00\x00\x00\x00'
p127
tp128
Rp129
asa(dp130
S'action'
p131
S'join'
p132
sS'data_to_add'
p133
(lp134
sS'order'
p135
F1524075844.315011
sS'new_objid'
p136
g8
(g12
S'\x1a\x01\x00\x00\x00\x00\x00\x00'
p137
tp138
Rp139
sS'objids'
p140
(lp141
g8
(g12
S'\x19\x01\x00\x00\x00\x00\x00\x00'
p142
tp143
Rp144
ag8
(g12
S'%\x00\x00\x00\x00\x00\x00\x00'
p145
tp146
Rp147
asa(dp148
S'action'
p149
S'join'
p150
sS'data_to_add'
p151
(lp152
sS'order'
p153
F1524075860.291388
sS'new_objid'
p154
g8
(g12
S'\x1b\x01\x00\x00\x00\x00\x00\x00'
p155
tp156
Rp157
sS'objids'
p158
(lp159
g8
(g12
S'1\x00\x00\x00\x00\x00\x00\x00'
p160
tp161
Rp162
ag8
(g12
S'\x1a\x01\x00\x00\x00\x00\x00\x00'
p163
tp164
Rp165
ag8
(g12
S'0\x00\x00\x00\x00\x00\x00\x00'
p166
tp167
Rp168
asa(dp169
S'cut_frame_global'
p170
I696
sS'cut_time_epoch'
p171
g8
(g91
S'~_\xec#\xe0\xb5\xd6A'
p172
tp173
Rp174
sS'cut_frame_trajectory'
p175
g8
(g12
S'\x02\x00\x00\x00\x00\x00\x00\x00'
p176
tp177
Rp178
sS'objid'
p179
g8
(g12
S'5\x00\x00\x00\x00\x00\x00\x00'
p180
tp181
Rp182
sS'action'
p183
S'cut'
p184
sS'order'
p185
F1524075872.350198
sS'new_objid'
p186
g8
(g12
S'\x1c\x01\x00\x00\x00\x00\x00\x00'
p187
tp188
Rp189
sa(dp190
S'action'
p191
S'join'
p192
sS'data_to_add'
p193
(lp194
sS'order'
p195
F1524075876.891406
sS'new_objid'
p196
g8
(g12
S'\x1d\x01\x00\x00\x00\x00\x00\x00'
p197
tp198
Rp199
sS'objids'
p200
(lp201
g8
(g12
S'\x1c\x01\x00\x00\x00\x00\x00\x00'
p202
tp203
Rp204
ag8
(g12
S'\x1b\x01\x00\x00\x00\x00\x00\x00'
p205
tp206
Rp207
asa(dp208
S'cut_frame_global'
p209
I731
sS'cut_time_epoch'
p210
g8
(g91
S'\xc2_\xcc$\xe0\xb5\xd6A'
p211
tp212
Rp213
sS'cut_frame_trajectory'
p214
g8
(g12
S'\xda\x02\x00\x00\x00\x00\x00\x00'
p215
tp216
Rp217
sS'objid'
p218
g8
(g12
S'\x1d\x01\x00\x00\x00\x00\x00\x00'
p219
tp220
Rp221
sS'action'
p222
S'cut'
p223
sS'order'
p224
F1524075888.296765
sS'new_objid'
p225
g8
(g12
S'\x1e\x01\x00\x00\x00\x00\x00\x00'
p226
tp227
Rp228
sa(dp229
S'action'
p230
S'join'
p231
sS'data_to_add'
p232
(lp233
sS'order'
p234
F1524075894.7156
sS'new_objid'
p235
g8
(g12
S'\x1f\x01\x00\x00\x00\x00\x00\x00'
p236
tp237
Rp238
sS'objids'
p239
(lp240
g8
(g12
S'\x1d\x01\x00\x00\x00\x00\x00\x00'
p241
tp242
Rp243
ag8
(g12
S'?\x00\x00\x00\x00\x00\x00\x00'
p244
tp245
Rp246
asa(dp247
S'action'
p248
S'join'
p249
sS'data_to_add'
p250
(lp251
sS'order'
p252
F1524075917.060774
sS'new_objid'
p253
g8
(g12
S' \x01\x00\x00\x00\x00\x00\x00'
p254
tp255
Rp256
sS'objids'
p257
(lp258
g8
(g12
S'a\x00\x00\x00\x00\x00\x00\x00'
p259
tp260
Rp261
ag8
(g12
S'[\x00\x00\x00\x00\x00\x00\x00'
p262
tp263
Rp264
ag8
(g12
S'\x1f\x01\x00\x00\x00\x00\x00\x00'
p265
tp266
Rp267
asa(dp268
S'action'
p269
S'join'
p270
sS'data_to_add'
p271
(lp272
sS'order'
p273
F1524075947.012507
sS'new_objid'
p274
g8
(g12
S'!\x01\x00\x00\x00\x00\x00\x00'
p275
tp276
Rp277
sS'objids'
p278
(lp279
g8
(g12
S'\x7f\x00\x00\x00\x00\x00\x00\x00'
p280
tp281
Rp282
ag8
(g12
S' \x01\x00\x00\x00\x00\x00\x00'
p283
tp284
Rp285
asa(dp286
S'action'
p287
S'join'
p288
sS'data_to_add'
p289
(lp290
sS'order'
p291
F1524075975.298606
sS'new_objid'
p292
g8
(g12
S'"\x01\x00\x00\x00\x00\x00\x00'
p293
tp294
Rp295
sS'objids'
p296
(lp297
g8
(g12
S'!\x01\x00\x00\x00\x00\x00\x00'
p298
tp299
Rp300
ag8
(g12
S'\xd7\x00\x00\x00\x00\x00\x00\x00'
p301
tp302
Rp303
asa(dp304
S'action'
p305
S'delete'
p306
sS'order'
p307
F1524075995.805761
sS'objid'
p308
g8
(g12
S'\t\x01\x00\x00\x00\x00\x00\x00'
p309
tp310
Rp311
sa(dp312
S'action'
p313
S'delete'
p314
sS'order'
p315
F1524075995.810682
sS'objid'
p316
g8
(g12
S'\x08\x01\x00\x00\x00\x00\x00\x00'
p317
tp318
Rp319
sa(dp320
S'action'
p321
S'delete'
p322
sS'order'
p323
F1524075995.815432
sS'objid'
p324
g8
(g12
S'\x07\x01\x00\x00\x00\x00\x00\x00'
p325
tp326
Rp327
sa(dp328
S'action'
p329
S'delete'
p330
sS'order'
p331
F1524075995.819616
sS'objid'
p332
g8
(g12
S'\x06\x01\x00\x00\x00\x00\x00\x00'
p333
tp334
Rp335
sa(dp336
S'action'
p337
S'delete'
p338
sS'order'
p339
F1524075995.822837
sS'objid'
p340
g8
(g12
S'\x05\x01\x00\x00\x00\x00\x00\x00'
p341
tp342
Rp343
sa(dp344
S'action'
p345
S'delete'
p346
sS'order'
p347
F1524075995.826152
sS'objid'
p348
g8
(g12
S'\x04\x01\x00\x00\x00\x00\x00\x00'
p349
tp350
Rp351
sa(dp352
S'action'
p353
S'delete'
p354
sS'order'
p355
F1524075995.829545
sS'objid'
p356
g8
(g12
S'\x03\x01\x00\x00\x00\x00\x00\x00'
p357
tp358
Rp359
sa(dp360
S'action'
p361
S'delete'
p362
sS'order'
p363
F1524075995.832968
sS'objid'
p364
g8
(g12
S'\x02\x01\x00\x00\x00\x00\x00\x00'
p365
tp366
Rp367
sa(dp368
S'action'
p369
S'delete'
p370
sS'order'
p371
F1524075995.836561
sS'objid'
p372
g8
(g12
S'\x01\x01\x00\x00\x00\x00\x00\x00'
p373
tp374
Rp375
sa(dp376
S'action'
p377
S'delete'
p378
sS'order'
p379
F1524075995.84014
sS'objid'
p380
g8
(g12
S'\x00\x01\x00\x00\x00\x00\x00\x00'
p381
tp382
Rp383
sa(dp384
S'action'
p385
S'delete'
p386
sS'order'
p387
F1524075995.84374
sS'objid'
p388
g8
(g12
S'\xff\x00\x00\x00\x00\x00\x00\x00'
p389
tp390
Rp391
sa(dp392
S'action'
p393
S'delete'
p394
sS'order'
p395
F1524075995.847394
sS'objid'
p396
g8
(g12
S'\xfe\x00\x00\x00\x00\x00\x00\x00'
p397
tp398
Rp399
sa(dp400
S'action'
p401
S'delete'
p402
sS'order'
p403
F1524075995.851115
sS'objid'
p404
g8
(g12
S'\xfd\x00\x00\x00\x00\x00\x00\x00'
p405
tp406
Rp407
sa(dp408
S'action'
p409
S'delete'
p410
sS'order'
p411
F1524075995.854881
sS'objid'
p412
g8
(g12
S'\xfc\x00\x00\x00\x00\x00\x00\x00'
p413
tp414
Rp415
sa(dp416
S'action'
p417
S'delete'
p418
sS'order'
p419
F1524075995.858734
sS'objid'
p420
g8
(g12
S'\xfb\x00\x00\x00\x00\x00\x00\x00'
p421
tp422
Rp423
sa(dp424
S'action'
p425
S'delete'
p426
sS'order'
p427
F1524075995.862649
sS'objid'
p428
g8
(g12
S'\xfa\x00\x00\x00\x00\x00\x00\x00'
p429
tp430
Rp431
sa(dp432
S'action'
p433
S'delete'
p434
sS'order'
p435
F1524075995.866591
sS'objid'
p436
g8
(g12
S'\xf9\x00\x00\x00\x00\x00\x00\x00'
p437
tp438
Rp439
sa(dp440
S'action'
p441
S'delete'
p442
sS'order'
p443
F1524075995.870613
sS'objid'
p444
g8
(g12
S'\xf8\x00\x00\x00\x00\x00\x00\x00'
p445
tp446
Rp447
sa(dp448
S'action'
p449
S'delete'
p450
sS'order'
p451
F1524075995.87467
sS'objid'
p452
g8
(g12
S'\xf7\x00\x00\x00\x00\x00\x00\x00'
p453
tp454
Rp455
sa(dp456
S'action'
p457
S'delete'
p458
sS'order'
p459
F1524075995.878807
sS'objid'
p460
g8
(g12
S'\xf6\x00\x00\x00\x00\x00\x00\x00'
p461
tp462
Rp463
sa(dp464
S'action'
p465
S'delete'
p466
sS'order'
p467
F1524075995.883002
sS'objid'
p468
g8
(g12
S'\xf5\x00\x00\x00\x00\x00\x00\x00'
p469
tp470
Rp471
sa(dp472
S'action'
p473
S'delete'
p474
sS'order'
p475
F1524075995.887273
sS'objid'
p476
g8
(g12
S'\xf4\x00\x00\x00\x00\x00\x00\x00'
p477
tp478
Rp479
sa(dp480
S'action'
p481
S'delete'
p482
sS'order'
p483
F1524075995.891576
sS'objid'
p484
g8
(g12
S'\xf3\x00\x00\x00\x00\x00\x00\x00'
p485
tp486
Rp487
sa(dp488
S'action'
p489
S'delete'
p490
sS'order'
p491
F1524075995.89594
sS'objid'
p492
g8
(g12
S'\xf2\x00\x00\x00\x00\x00\x00\x00'
p493
tp494
Rp495
sa(dp496
S'action'
p497
S'delete'
p498
sS'order'
p499
F1524075995.900379
sS'objid'
p500
g8
(g12
S'\xf1\x00\x00\x00\x00\x00\x00\x00'
p501
tp502
Rp503
sa(dp504
S'action'
p505
S'delete'
p506
sS'order'
p507
F1524075995.904889
sS'objid'
p508
g8
(g12
S'\xf0\x00\x00\x00\x00\x00\x00\x00'
p509
tp510
Rp511
sa(dp512
S'action'
p513
S'delete'
p514
sS'order'
p515
F1524075995.909433
sS'objid'
p516
g8
(g12
S'\xef\x00\x00\x00\x00\x00\x00\x00'
p517
tp518
Rp519
sa(dp520
S'action'
p521
S'delete'
p522
sS'order'
p523
F1524075995.91404
sS'objid'
p524
g8
(g12
S'\xee\x00\x00\x00\x00\x00\x00\x00'
p525
tp526
Rp527
sa(dp528
S'action'
p529
S'delete'
p530
sS'order'
p531
F1524075995.918708
sS'objid'
p532
g8
(g12
S'\xed\x00\x00\x00\x00\x00\x00\x00'
p533
tp534
Rp535
sa(dp536
S'action'
p537
S'delete'
p538
sS'order'
p539
F1524075995.923436
sS'objid'
p540
g8
(g12
S'\xec\x00\x00\x00\x00\x00\x00\x00'
p541
tp542
Rp543
sa(dp544
S'action'
p545
S'delete'
p546
sS'order'
p547
F1524075995.928199
sS'objid'
p548
g8
(g12
S'\xeb\x00\x00\x00\x00\x00\x00\x00'
p549
tp550
Rp551
sa(dp552
S'action'
p553
S'delete'
p554
sS'order'
p555
F1524075995.933036
sS'objid'
p556
g8
(g12
S'\xea\x00\x00\x00\x00\x00\x00\x00'
p557
tp558
Rp559
sa(dp560
S'action'
p561
S'delete'
p562
sS'order'
p563
F1524075995.937957
sS'objid'
p564
g8
(g12
S'\xe9\x00\x00\x00\x00\x00\x00\x00'
p565
tp566
Rp567
sa(dp568
S'action'
p569
S'delete'
p570
sS'order'
p571
F1524075995.942903
sS'objid'
p572
g8
(g12
S'\xe8\x00\x00\x00\x00\x00\x00\x00'
p573
tp574
Rp575
sa(dp576
S'action'
p577
S'delete'
p578
sS'order'
p579
F1524075995.947929
sS'objid'
p580
g8
(g12
S'\xe7\x00\x00\x00\x00\x00\x00\x00'
p581
tp582
Rp583
sa(dp584
S'action'
p585
S'delete'
p586
sS'order'
p587
F1524075995.953008
sS'objid'
p588
g8
(g12
S'\xe6\x00\x00\x00\x00\x00\x00\x00'
p589
tp590
Rp591
sa(dp592
S'action'
p593
S'delete'
p594
sS'order'
p595
F1524075995.958193
sS'objid'
p596
g8
(g12
S'\xe5\x00\x00\x00\x00\x00\x00\x00'
p597
tp598
Rp599
sa(dp600
S'action'
p601
S'delete'
p602
sS'order'
p603
F1524075995.96343
sS'objid'
p604
g8
(g12
S'\xe4\x00\x00\x00\x00\x00\x00\x00'
p605
tp606
Rp607
sa(dp608
S'action'
p609
S'delete'
p610
sS'order'
p611
F1524075995.968717
sS'objid'
p612
g8
(g12
S'\xe3\x00\x00\x00\x00\x00\x00\x00'
p613
tp614
Rp615
sa(dp616
S'action'
p617
S'delete'
p618
sS'order'
p619
F1524075995.974065
sS'objid'
p620
g8
(g12
S'\xe2\x00\x00\x00\x00\x00\x00\x00'
p621
tp622
Rp623
sa(dp624
S'action'
p625
S'delete'
p626
sS'order'
p627
F1524075995.979446
sS'objid'
p628
g8
(g12
S'\xe1\x00\x00\x00\x00\x00\x00\x00'
p629
tp630
Rp631
sa(dp632
S'action'
p633
S'delete'
p634
sS'order'
p635
F1524075995.984916
sS'objid'
p636
g8
(g12
S'\xe0\x00\x00\x00\x00\x00\x00\x00'
p637
tp638
Rp639
sa(dp640
S'action'
p641
S'delete'
p642
sS'order'
p643
F1524075995.990434
sS'objid'
p644
g8
(g12
S'\xdf\x00\x00\x00\x00\x00\x00\x00'
p645
tp646
Rp647
sa(dp648
S'action'
p649
S'delete'
p650
sS'order'
p651
F1524075995.996009
sS'objid'
p652
g8
(g12
S'\xde\x00\x00\x00\x00\x00\x00\x00'
p653
tp654
Rp655
sa(dp656
S'action'
p657
S'delete'
p658
sS'order'
p659
F1524075996.001669
sS'objid'
p660
g8
(g12
S'\xdd\x00\x00\x00\x00\x00\x00\x00'
p661
tp662
Rp663
sa(dp664
S'action'
p665
S'delete'
p666
sS'order'
p667
F1524075996.007402
sS'objid'
p668
g8
(g12
S'\xdc\x00\x00\x00\x00\x00\x00\x00'
p669
tp670
Rp671
sa(dp672
S'action'
p673
S'delete'
p674
sS'order'
p675
F1524075996.01317
sS'objid'
p676
g8
(g12
S'\xdb\x00\x00\x00\x00\x00\x00\x00'
p677
tp678
Rp679
sa(dp680
S'action'
p681
S'delete'
p682
sS'order'
p683
F1524075996.018969
sS'objid'
p684
g8
(g12
S'\xda\x00\x00\x00\x00\x00\x00\x00'
p685
tp686
Rp687
sa(dp688
S'action'
p689
S'delete'
p690
sS'order'
p691
F1524075996.02487
sS'objid'
p692
g8
(g12
S'\xd9\x00\x00\x00\x00\x00\x00\x00'
p693
tp694
Rp695
sa(dp696
S'action'
p697
S'delete'
p698
sS'order'
p699
F1524075996.030848
sS'objid'
p700
g8
(g12
S'\xd8\x00\x00\x00\x00\x00\x00\x00'
p701
tp702
Rp703
sa(dp704
S'action'
p705
S'delete'
p706
sS'order'
p707
F1524075996.036848
sS'objid'
p708
g8
(g12
S'\xd6\x00\x00\x00\x00\x00\x00\x00'
p709
tp710
Rp711
sa(dp712
S'action'
p713
S'delete'
p714
sS'order'
p715
F1524075996.042911
sS'objid'
p716
g8
(g12
S'\xd5\x00\x00\x00\x00\x00\x00\x00'
p717
tp718
Rp719
sa(dp720
S'action'
p721
S'delete'
p722
sS'order'
p723
F1524075996.049066
sS'objid'
p724
g8
(g12
S'\xd4\x00\x00\x00\x00\x00\x00\x00'
p725
tp726
Rp727
sa(dp728
S'action'
p729
S'delete'
p730
sS'order'
p731
F1524075996.055256
sS'objid'
p732
g8
(g12
S'\xd3\x00\x00\x00\x00\x00\x00\x00'
p733
tp734
Rp735
sa(dp736
S'action'
p737
S'delete'
p738
sS'order'
p739
F1524075996.061506
sS'objid'
p740
g8
(g12
S'\xd2\x00\x00\x00\x00\x00\x00\x00'
p741
tp742
Rp743
sa(dp744
S'action'
p745
S'delete'
p746
sS'order'
p747
F1524075996.067787
sS'objid'
p748
g8
(g12
S'\xd1\x00\x00\x00\x00\x00\x00\x00'
p749
tp750
Rp751
sa(dp752
S'action'
p753
S'delete'
p754
sS'order'
p755
F1524075996.074147
sS'objid'
p756
g8
(g12
S'\xd0\x00\x00\x00\x00\x00\x00\x00'
p757
tp758
Rp759
sa(dp760
S'action'
p761
S'delete'
p762
sS'order'
p763
F1524075996.080569
sS'objid'
p764
g8
(g12
S'\xcf\x00\x00\x00\x00\x00\x00\x00'
p765
tp766
Rp767
sa(dp768
S'action'
p769
S'delete'
p770
sS'order'
p771
F1524075996.087037
sS'objid'
p772
g8
(g12
S'\xce\x00\x00\x00\x00\x00\x00\x00'
p773
tp774
Rp775
sa(dp776
S'action'
p777
S'delete'
p778
sS'order'
p779
F1524075996.093601
sS'objid'
p780
g8
(g12
S'\xcd\x00\x00\x00\x00\x00\x00\x00'
p781
tp782
Rp783
sa(dp784
S'action'
p785
S'delete'
p786
sS'order'
p787
F1524075996.10019
sS'objid'
p788
g8
(g12
S'\xcc\x00\x00\x00\x00\x00\x00\x00'
p789
tp790
Rp791
sa(dp792
S'action'
p793
S'delete'
p794
sS'order'
p795
F1524075996.106868
sS'objid'
p796
g8
(g12
S'\xcb\x00\x00\x00\x00\x00\x00\x00'
p797
tp798
Rp799
sa(dp800
S'action'
p801
S'delete'
p802
sS'order'
p803
F1524075996.113629
sS'objid'
p804
g8
(g12
S'\xca\x00\x00\x00\x00\x00\x00\x00'
p805
tp806
Rp807
sa(dp808
S'action'
p809
S'delete'
p810
sS'order'
p811
F1524075996.120431
sS'objid'
p812
g8
(g12
S'\xc9\x00\x00\x00\x00\x00\x00\x00'
p813
tp814
Rp815
sa(dp816
S'action'
p817
S'delete'
p818
sS'order'
p819
F1524075996.127289
sS'objid'
p820
g8
(g12
S'\xc8\x00\x00\x00\x00\x00\x00\x00'
p821
tp822
Rp823
sa(dp824
S'action'
p825
S'delete'
p826
sS'order'
p827
F1524075996.134191
sS'objid'
p828
g8
(g12
S'\xc7\x00\x00\x00\x00\x00\x00\x00'
p829
tp830
Rp831
sa(dp832
S'action'
p833
S'delete'
p834
sS'order'
p835
F1524076008.398246
sS'objid'
p836
g8
(g12
S'\xc6\x00\x00\x00\x00\x00\x00\x00'
p837
tp838
Rp839
sa(dp840
S'action'
p841
S'delete'
p842
sS'order'
p843
F1524076008.409499
sS'objid'
p844
g8
(g12
S'\xc5\x00\x00\x00\x00\x00\x00\x00'
p845
tp846
Rp847
sa(dp848
S'action'
p849
S'delete'
p850
sS'order'
p851
F1524076008.416711
sS'objid'
p852
g8
(g12
S'\xc4\x00\x00\x00\x00\x00\x00\x00'
p853
tp854
Rp855
sa(dp856
S'action'
p857
S'delete'
p858
sS'order'
p859
F1524076008.424086
sS'objid'
p860
g8
(g12
S'\xc3\x00\x00\x00\x00\x00\x00\x00'
p861
tp862
Rp863
sa(dp864
S'action'
p865
S'delete'
p866
sS'order'
p867
F1524076008.43186
sS'objid'
p868
g8
(g12
S'\xc2\x00\x00\x00\x00\x00\x00\x00'
p869
tp870
Rp871
sa(dp872
S'action'
p873
S'delete'
p874
sS'order'
p875
F1524076008.439119
sS'objid'
p876
g8
(g12
S'\xc1\x00\x00\x00\x00\x00\x00\x00'
p877
tp878
Rp879
sa(dp880
S'action'
p881
S'delete'
p882
sS'order'
p883
F1524076008.44646
sS'objid'
p884
g8
(g12
S'\xc0\x00\x00\x00\x00\x00\x00\x00'
p885
tp886
Rp887
sa(dp888
S'action'
p889
S'delete'
p890
sS'order'
p891
F1524076008.453849
sS'objid'
p892
g8
(g12
S'\xbf\x00\x00\x00\x00\x00\x00\x00'
p893
tp894
Rp895
sa(dp896
S'action'
p897
S'delete'
p898
sS'order'
p899
F1524076008.461284
sS'objid'
p900
g8
(g12
S'\xbe\x00\x00\x00\x00\x00\x00\x00'
p901
tp902
Rp903
sa(dp904
S'action'
p905
S'delete'
p906
sS'order'
p907
F1524076008.468787
sS'objid'
p908
g8
(g12
S'\xbd\x00\x00\x00\x00\x00\x00\x00'
p909
tp910
Rp911
sa(dp912
S'action'
p913
S'delete'
p914
sS'order'
p915
F1524076008.476331
sS'objid'
p916
g8
(g12
S'\xbc\x00\x00\x00\x00\x00\x00\x00'
p917
tp918
Rp919
sa(dp920
S'action'
p921
S'delete'
p922
sS'order'
p923
F1524076008.483989
sS'objid'
p924
g8
(g12
S'\xbb\x00\x00\x00\x00\x00\x00\x00'
p925
tp926
Rp927
sa(dp928
S'action'
p929
S'delete'
p930
sS'order'
p931
F1524076008.491643
sS'objid'
p932
g8
(g12
S'\xba\x00\x00\x00\x00\x00\x00\x00'
p933
tp934
Rp935
sa(dp936
S'action'
p937
S'delete'
p938
sS'order'
p939
F1524076008.4994
sS'objid'
p940
g8
(g12
S'\xb9\x00\x00\x00\x00\x00\x00\x00'
p941
tp942
Rp943
sa(dp944
S'action'
p945
S'delete'
p946
sS'order'
p947
F1524076008.507159
sS'objid'
p948
g8
(g12
S'\xb8\x00\x00\x00\x00\x00\x00\x00'
p949
tp950
Rp951
sa(dp952
S'action'
p953
S'delete'
p954
sS'order'
p955
F1524076008.514969
sS'objid'
p956
g8
(g12
S'\xb7\x00\x00\x00\x00\x00\x00\x00'
p957
tp958
Rp959
sa(dp960
S'action'
p961
S'delete'
p962
sS'order'
p963
F1524076008.52289
sS'objid'
p964
g8
(g12
S'\xb6\x00\x00\x00\x00\x00\x00\x00'
p965
tp966
Rp967
sa(dp968
S'action'
p969
S'delete'
p970
sS'order'
p971
F1524076008.530834
sS'objid'
p972
g8
(g12
S'\xb5\x00\x00\x00\x00\x00\x00\x00'
p973
tp974
Rp975
sa(dp976
S'action'
p977
S'delete'
p978
sS'order'
p979
F1524076008.538831
sS'objid'
p980
g8
(g12
S'\xb4\x00\x00\x00\x00\x00\x00\x00'
p981
tp982
Rp983
sa(dp984
S'action'
p985
S'delete'
p986
sS'order'
p987
F1524076008.546905
sS'objid'
p988
g8
(g12
S'\xb3\x00\x00\x00\x00\x00\x00\x00'
p989
tp990
Rp991
sa(dp992
S'action'
p993
S'delete'
p994
sS'order'
p995
F1524076008.555087
sS'objid'
p996
g8
(g12
S'\xb2\x00\x00\x00\x00\x00\x00\x00'
p997
tp998
Rp999
sa(dp1000
S'action'
p1001
S'delete'
p1002
sS'order'
p1003
F1524076008.56326
sS'objid'
p1004
g8
(g12
S'\xb1\x00\x00\x00\x00\x00\x00\x00'
p1005
tp1006
Rp1007
sa(dp1008
S'action'
p1009
S'delete'
p1010
sS'order'
p1011
F1524076008.571521
sS'objid'
p1012
g8
(g12
S'\xb0\x00\x00\x00\x00\x00\x00\x00'
p1013
tp1014
Rp1015
sa(dp1016
S'action'
p1017
S'delete'
p1018
sS'order'
p1019
F1524076008.579802
sS'objid'
p1020
g8
(g12
S'\xaf\x00\x00\x00\x00\x00\x00\x00'
p1021
tp1022
Rp1023
sa(dp1024
S'action'
p1025
S'delete'
p1026
sS'order'
p1027
F1524076008.588166
sS'objid'
p1028
g8
(g12
S'\xae\x00\x00\x00\x00\x00\x00\x00'
p1029
tp1030
Rp1031
sa(dp1032
S'action'
p1033
S'delete'
p1034
sS'order'
p1035
F1524076008.596589
sS'objid'
p1036
g8
(g12
S'\xad\x00\x00\x00\x00\x00\x00\x00'
p1037
tp1038
Rp1039
sa(dp1040
S'action'
p1041
S'delete'
p1042
sS'order'
p1043
F1524076008.6051
sS'objid'
p1044
g8
(g12
S'\xac\x00\x00\x00\x00\x00\x00\x00'
p1045
tp1046
Rp1047
sa(dp1048
S'action'
p1049
S'delete'
p1050
sS'order'
p1051
F1524076008.613645
sS'objid'
p1052
g8
(g12
S'\xab\x00\x00\x00\x00\x00\x00\x00'
p1053
tp1054
Rp1055
sa(dp1056
S'action'
p1057
S'delete'
p1058
sS'order'
p1059
F1524076008.622224
sS'objid'
p1060
g8
(g12
S'\xaa\x00\x00\x00\x00\x00\x00\x00'
p1061
tp1062
Rp1063
sa(dp1064
S'action'
p1065
S'delete'
p1066
sS'order'
p1067
F1524076008.630917
sS'objid'
p1068
g8
(g12
S'\xa9\x00\x00\x00\x00\x00\x00\x00'
p1069
tp1070
Rp1071
sa(dp1072
S'action'
p1073
S'delete'
p1074
sS'order'
p1075
F1524076008.639658
sS'objid'
p1076
g8
(g12
S'\xa8\x00\x00\x00\x00\x00\x00\x00'
p1077
tp1078
Rp1079
sa(dp1080
S'action'
p1081
S'delete'
p1082
sS'order'
p1083
F1524076008.648431
sS'objid'
p1084
g8
(g12
S'\xa7\x00\x00\x00\x00\x00\x00\x00'
p1085
tp1086
Rp1087
sa(dp1088
S'action'
p1089
S'delete'
p1090
sS'order'
p1091
F1524076008.657281
sS'objid'
p1092
g8
(g12
S'\xa6\x00\x00\x00\x00\x00\x00\x00'
p1093
tp1094
Rp1095
sa(dp1096
S'action'
p1097
S'delete'
p1098
sS'order'
p1099
F1524076008.666245
sS'objid'
p1100
g8
(g12
S'\xa5\x00\x00\x00\x00\x00\x00\x00'
p1101
tp1102
Rp1103
sa(dp1104
S'action'
p1105
S'delete'
p1106
sS'order'
p1107
F1524076008.675201
sS'objid'
p1108
g8
(g12
S'\xa4\x00\x00\x00\x00\x00\x00\x00'
p1109
tp1110
Rp1111
sa(dp1112
S'action'
p1113
S'delete'
p1114
sS'order'
p1115
F1524076008.684224
sS'objid'
p1116
g8
(g12
S'\xa3\x00\x00\x00\x00\x00\x00\x00'
p1117
tp1118
Rp1119
sa(dp1120
S'action'
p1121
S'delete'
p1122
sS'order'
p1123
F1524076008.694432
sS'objid'
p1124
g8
(g12
S'\xa2\x00\x00\x00\x00\x00\x00\x00'
p1125
tp1126
Rp1127
sa(dp1128
S'action'
p1129
S'delete'
p1130
sS'order'
p1131
F1524076008.703681
sS'objid'
p1132
g8
(g12
S'\xa1\x00\x00\x00\x00\x00\x00\x00'
p1133
tp1134
Rp1135
sa(dp1136
S'action'
p1137
S'delete'
p1138
sS'order'
p1139
F1524076008.712971
sS'objid'
p1140
g8
(g12
S'\xa0\x00\x00\x00\x00\x00\x00\x00'
p1141
tp1142
Rp1143
sa(dp1144
S'action'
p1145
S'delete'
p1146
sS'order'
p1147
F1524076008.722294
sS'objid'
p1148
g8
(g12
S'\x9f\x00\x00\x00\x00\x00\x00\x00'
p1149
tp1150
Rp1151
sa(dp1152
S'action'
p1153
S'delete'
p1154
sS'order'
p1155
F1524076008.731769
sS'objid'
p1156
g8
(g12
S'\x9e\x00\x00\x00\x00\x00\x00\x00'
p1157
tp1158
Rp1159
sa(dp1160
S'action'
p1161
S'delete'
p1162
sS'order'
p1163
F1524076008.741185
sS'objid'
p1164
g8
(g12
S'\x9d\x00\x00\x00\x00\x00\x00\x00'
p1165
tp1166
Rp1167
sa(dp1168
S'action'
p1169
S'delete'
p1170
sS'order'
p1171
F1524076008.750643
sS'objid'
p1172
g8
(g12
S'\x9c\x00\x00\x00\x00\x00\x00\x00'
p1173
tp1174
Rp1175
sa(dp1176
S'action'
p1177
S'delete'
p1178
sS'order'
p1179
F1524076008.760268
sS'objid'
p1180
g8
(g12
S'\x9b\x00\x00\x00\x00\x00\x00\x00'
p1181
tp1182
Rp1183
sa(dp1184
S'action'
p1185
S'delete'
p1186
sS'order'
p1187
F1524076008.769895
sS'objid'
p1188
g8
(g12
S'\x9a\x00\x00\x00\x00\x00\x00\x00'
p1189
tp1190
Rp1191
sa(dp1192
S'action'
p1193
S'delete'
p1194
sS'order'
p1195
F1524076008.779603
sS'objid'
p1196
g8
(g12
S'\x99\x00\x00\x00\x00\x00\x00\x00'
p1197
tp1198
Rp1199
sa(dp1200
S'action'
p1201
S'delete'
p1202
sS'order'
p1203
F1524076008.789314
sS'objid'
p1204
g8
(g12
S'\x98\x00\x00\x00\x00\x00\x00\x00'
p1205
tp1206
Rp1207
sa(dp1208
S'action'
p1209
S'delete'
p1210
sS'order'
p1211
F1524076008.799113
sS'objid'
p1212
g8
(g12
S'\x97\x00\x00\x00\x00\x00\x00\x00'
p1213
tp1214
Rp1215
sa(dp1216
S'action'
p1217
S'delete'
p1218
sS'order'
p1219
F1524076008.809013
sS'objid'
p1220
g8
(g12
S'\x96\x00\x00\x00\x00\x00\x00\x00'
p1221
tp1222
Rp1223
sa(dp1224
S'action'
p1225
S'delete'
p1226
sS'order'
p1227
F1524076008.818909
sS'objid'
p1228
g8
(g12
S'\x95\x00\x00\x00\x00\x00\x00\x00'
p1229
tp1230
Rp1231
sa(dp1232
S'action'
p1233
S'delete'
p1234
sS'order'
p1235
F1524076008.828929
sS'objid'
p1236
g8
(g12
S'\x94\x00\x00\x00\x00\x00\x00\x00'
p1237
tp1238
Rp1239
sa(dp1240
S'action'
p1241
S'delete'
p1242
sS'order'
p1243
F1524076008.838946
sS'objid'
p1244
g8
(g12
S'\x93\x00\x00\x00\x00\x00\x00\x00'
p1245
tp1246
Rp1247
sa(dp1248
S'action'
p1249
S'delete'
p1250
sS'order'
p1251
F1524076008.849029
sS'objid'
p1252
g8
(g12
S'\x92\x00\x00\x00\x00\x00\x00\x00'
p1253
tp1254
Rp1255
sa(dp1256
S'action'
p1257
S'delete'
p1258
sS'order'
p1259
F1524076008.859138
sS'objid'
p1260
g8
(g12
S'\x91\x00\x00\x00\x00\x00\x00\x00'
p1261
tp1262
Rp1263
sa(dp1264
S'action'
p1265
S'delete'
p1266
sS'order'
p1267
F1524076008.869311
sS'objid'
p1268
g8
(g12
S'\x90\x00\x00\x00\x00\x00\x00\x00'
p1269
tp1270
Rp1271
sa(dp1272
S'action'
p1273
S'delete'
p1274
sS'order'
p1275
F1524076008.879631
sS'objid'
p1276
g8
(g12
S'\x8f\x00\x00\x00\x00\x00\x00\x00'
p1277
tp1278
Rp1279
sa(dp1280
S'action'
p1281
S'delete'
p1282
sS'order'
p1283
F1524076008.88995
sS'objid'
p1284
g8
(g12
S'\x8e\x00\x00\x00\x00\x00\x00\x00'
p1285
tp1286
Rp1287
sa(dp1288
S'action'
p1289
S'delete'
p1290
sS'order'
p1291
F1524076008.900365
sS'objid'
p1292
g8
(g12
S'\x8d\x00\x00\x00\x00\x00\x00\x00'
p1293
tp1294
Rp1295
sa(dp1296
S'action'
p1297
S'delete'
p1298
sS'order'
p1299
F1524076008.910777
sS'objid'
p1300
g8
(g12
S'\x8c\x00\x00\x00\x00\x00\x00\x00'
p1301
tp1302
Rp1303
sa(dp1304
S'action'
p1305
S'delete'
p1306
sS'order'
p1307
F1524076008.92129
sS'objid'
p1308
g8
(g12
S'\x8b\x00\x00\x00\x00\x00\x00\x00'
p1309
tp1310
Rp1311
sa(dp1312
S'action'
p1313
S'delete'
p1314
sS'order'
p1315
F1524076008.931971
sS'objid'
p1316
g8
(g12
S'\x8a\x00\x00\x00\x00\x00\x00\x00'
p1317
tp1318
Rp1319
sa(dp1320
S'action'
p1321
S'delete'
p1322
sS'order'
p1323
F1524076008.942643
sS'objid'
p1324
g8
(g12
S'\x89\x00\x00\x00\x00\x00\x00\x00'
p1325
tp1326
Rp1327
sa(dp1328
S'action'
p1329
S'delete'
p1330
sS'order'
p1331
F1524076008.953357
sS'objid'
p1332
g8
(g12
S'\x88\x00\x00\x00\x00\x00\x00\x00'
p1333
tp1334
Rp1335
sa(dp1336
S'action'
p1337
S'delete'
p1338
sS'order'
p1339
F1524076008.964056
sS'objid'
p1340
g8
(g12
S'\x87\x00\x00\x00\x00\x00\x00\x00'
p1341
tp1342
Rp1343
sa(dp1344
S'action'
p1345
S'delete'
p1346
sS'order'
p1347
F1524076008.974899
sS'objid'
p1348
g8
(g12
S'\x86\x00\x00\x00\x00\x00\x00\x00'
p1349
tp1350
Rp1351
sa(dp1352
S'action'
p1353
S'delete'
p1354
sS'order'
p1355
F1524076008.985687
sS'objid'
p1356
g8
(g12
S'\x85\x00\x00\x00\x00\x00\x00\x00'
p1357
tp1358
Rp1359
sa(dp1360
S'action'
p1361
S'delete'
p1362
sS'order'
p1363
F1524076008.996635
sS'objid'
p1364
g8
(g12
S'\x84\x00\x00\x00\x00\x00\x00\x00'
p1365
tp1366
Rp1367
sa(dp1368
S'action'
p1369
S'delete'
p1370
sS'order'
p1371
F1524076009.010219
sS'objid'
p1372
g8
(g12
S'\x83\x00\x00\x00\x00\x00\x00\x00'
p1373
tp1374
Rp1375
sa(dp1376
S'action'
p1377
S'delete'
p1378
sS'order'
p1379
F1524076009.021503
sS'objid'
p1380
g8
(g12
S'\x82\x00\x00\x00\x00\x00\x00\x00'
p1381
tp1382
Rp1383
sa(dp1384
S'action'
p1385
S'delete'
p1386
sS'order'
p1387
F1524076009.032845
sS'objid'
p1388
g8
(g12
S'\x81\x00\x00\x00\x00\x00\x00\x00'
p1389
tp1390
Rp1391
sa(dp1392
S'action'
p1393
S'delete'
p1394
sS'order'
p1395
F1524076009.044077
sS'objid'
p1396
g8
(g12
S'\x80\x00\x00\x00\x00\x00\x00\x00'
p1397
tp1398
Rp1399
sa(dp1400
S'action'
p1401
S'delete'
p1402
sS'order'
p1403
F1524076021.862077
sS'objid'
p1404
g8
(g12
S'\x1e\x01\x00\x00\x00\x00\x00\x00'
p1405
tp1406
Rp1407
sa(dp1408
S'action'
p1409
S'delete'
p1410
sS'order'
p1411
F1524076021.878855
sS'objid'
p1412
g8
(g12
S'~\x00\x00\x00\x00\x00\x00\x00'
p1413
tp1414
Rp1415
sa(dp1416
S'action'
p1417
S'delete'
p1418
sS'order'
p1419
F1524076021.890934
sS'objid'
p1420
g8
(g12
S'}\x00\x00\x00\x00\x00\x00\x00'
p1421
tp1422
Rp1423
sa(dp1424
S'action'
p1425
S'delete'
p1426
sS'order'
p1427
F1524076021.903053
sS'objid'
p1428
g8
(g12
S'|\x00\x00\x00\x00\x00\x00\x00'
p1429
tp1430
Rp1431
sa(dp1432
S'action'
p1433
S'delete'
p1434
sS'order'
p1435
F1524076021.914569
sS'objid'
p1436
g8
(g12
S'{\x00\x00\x00\x00\x00\x00\x00'
p1437
tp1438
Rp1439
sa(dp1440
S'action'
p1441
S'delete'
p1442
sS'order'
p1443
F1524076021.926153
sS'objid'
p1444
g8
(g12
S'z\x00\x00\x00\x00\x00\x00\x00'
p1445
tp1446
Rp1447
sa(dp1448
S'action'
p1449
S'delete'
p1450
sS'order'
p1451
F1524076021.937758
sS'objid'
p1452
g8
(g12
S'y\x00\x00\x00\x00\x00\x00\x00'
p1453
tp1454
Rp1455
sa(dp1456
S'action'
p1457
S'delete'
p1458
sS'order'
p1459
F1524076021.949462
sS'objid'
p1460
g8
(g12
S'x\x00\x00\x00\x00\x00\x00\x00'
p1461
tp1462
Rp1463
sa(dp1464
S'action'
p1465
S'delete'
p1466
sS'order'
p1467
F1524076021.961187
sS'objid'
p1468
g8
(g12
S'w\x00\x00\x00\x00\x00\x00\x00'
p1469
tp1470
Rp1471
sa(dp1472
S'action'
p1473
S'delete'
p1474
sS'order'
p1475
F1524076021.972991
sS'objid'
p1476
g8
(g12
S'v\x00\x00\x00\x00\x00\x00\x00'
p1477
tp1478
Rp1479
sa(dp1480
S'action'
p1481
S'delete'
p1482
sS'order'
p1483
F1524076021.984852
sS'objid'
p1484
g8
(g12
S'u\x00\x00\x00\x00\x00\x00\x00'
p1485
tp1486
Rp1487
sa(dp1488
S'action'
p1489
S'delete'
p1490
sS'order'
p1491
F1524076021.996733
sS'objid'
p1492
g8
(g12
S't\x00\x00\x00\x00\x00\x00\x00'
p1493
tp1494
Rp1495
sa(dp1496
S'action'
p1497
S'delete'
p1498
sS'order'
p1499
F1524076022.008688
sS'objid'
p1500
g8
(g12
S's\x00\x00\x00\x00\x00\x00\x00'
p1501
tp1502
Rp1503
sa(dp1504
S'action'
p1505
S'delete'
p1506
sS'order'
p1507
F1524076022.020847
sS'objid'
p1508
g8
(g12
S'r\x00\x00\x00\x00\x00\x00\x00'
p1509
tp1510
Rp1511
sa(dp1512
S'action'
p1513
S'delete'
p1514
sS'order'
p1515
F1524076022.032954
sS'objid'
p1516
g8
(g12
S'q\x00\x00\x00\x00\x00\x00\x00'
p1517
tp1518
Rp1519
sa(dp1520
S'action'
p1521
S'delete'
p1522
sS'order'
p1523
F1524076022.045103
sS'objid'
p1524
g8
(g12
S'p\x00\x00\x00\x00\x00\x00\x00'
p1525
tp1526
Rp1527
sa(dp1528
S'action'
p1529
S'delete'
p1530
sS'order'
p1531
F1524076022.057317
sS'objid'
p1532
g8
(g12
S'o\x00\x00\x00\x00\x00\x00\x00'
p1533
tp1534
Rp1535
sa(dp1536
S'action'
p1537
S'delete'
p1538
sS'order'
p1539
F1524076022.0696
sS'objid'
p1540
g8
(g12
S'n\x00\x00\x00\x00\x00\x00\x00'
p1541
tp1542
Rp1543
sa(dp1544
S'action'
p1545
S'delete'
p1546
sS'order'
p1547
F1524076022.081962
sS'objid'
p1548
g8
(g12
S'm\x00\x00\x00\x00\x00\x00\x00'
p1549
tp1550
Rp1551
sa(dp1552
S'action'
p1553
S'delete'
p1554
sS'order'
p1555
F1524076022.094365
sS'objid'
p1556
g8
(g12
S'l\x00\x00\x00\x00\x00\x00\x00'
p1557
tp1558
Rp1559
sa(dp1560
S'action'
p1561
S'delete'
p1562
sS'order'
p1563
F1524076022.106856
sS'objid'
p1564
g8
(g12
S'k\x00\x00\x00\x00\x00\x00\x00'
p1565
tp1566
Rp1567
sa(dp1568
S'action'
p1569
S'delete'
p1570
sS'order'
p1571
F1524076022.119346
sS'objid'
p1572
g8
(g12
S'j\x00\x00\x00\x00\x00\x00\x00'
p1573
tp1574
Rp1575
sa(dp1576
S'action'
p1577
S'delete'
p1578
sS'order'
p1579
F1524076022.131914
sS'objid'
p1580
g8
(g12
S'i\x00\x00\x00\x00\x00\x00\x00'
p1581
tp1582
Rp1583
sa(dp1584
S'action'
p1585
S'delete'
p1586
sS'order'
p1587
F1524076022.144533
sS'objid'
p1588
g8
(g12
S'h\x00\x00\x00\x00\x00\x00\x00'
p1589
tp1590
Rp1591
sa(dp1592
S'action'
p1593
S'delete'
p1594
sS'order'
p1595
F1524076022.157249
sS'objid'
p1596
g8
(g12
S'g\x00\x00\x00\x00\x00\x00\x00'
p1597
tp1598
Rp1599
sa(dp1600
S'action'
p1601
S'delete'
p1602
sS'order'
p1603
F1524076022.169998
sS'objid'
p1604
g8
(g12
S'f\x00\x00\x00\x00\x00\x00\x00'
p1605
tp1606
Rp1607
sa(dp1608
S'action'
p1609
S'delete'
p1610
sS'order'
p1611
F1524076022.182961
sS'objid'
p1612
g8
(g12
S'e\x00\x00\x00\x00\x00\x00\x00'
p1613
tp1614
Rp1615
sa(dp1616
S'action'
p1617
S'delete'
p1618
sS'order'
p1619
F1524076022.195926
sS'objid'
p1620
g8
(g12
S'd\x00\x00\x00\x00\x00\x00\x00'
p1621
tp1622
Rp1623
sa(dp1624
S'action'
p1625
S'delete'
p1626
sS'order'
p1627
F1524076022.208942
sS'objid'
p1628
g8
(g12
S'c\x00\x00\x00\x00\x00\x00\x00'
p1629
tp1630
Rp1631
sa(dp1632
S'action'
p1633
S'delete'
p1634
sS'order'
p1635
F1524076022.222004
sS'objid'
p1636
g8
(g12
S'b\x00\x00\x00\x00\x00\x00\x00'
p1637
tp1638
Rp1639
sa(dp1640
S'action'
p1641
S'delete'
p1642
sS'order'
p1643
F1524076022.235077
sS'objid'
p1644
g8
(g12
S'`\x00\x00\x00\x00\x00\x00\x00'
p1645
tp1646
Rp1647
sa(dp1648
S'action'
p1649
S'delete'
p1650
sS'order'
p1651
F1524076022.248192
sS'objid'
p1652
g8
(g12
S'_\x00\x00\x00\x00\x00\x00\x00'
p1653
tp1654
Rp1655
sa(dp1656
S'action'
p1657
S'delete'
p1658
sS'order'
p1659
F1524076022.261418
sS'objid'
p1660
g8
(g12
S'^\x00\x00\x00\x00\x00\x00\x00'
p1661
tp1662
Rp1663
sa(dp1664
S'action'
p1665
S'delete'
p1666
sS'order'
p1667
F1524076022.274706
sS'objid'
p1668
g8
(g12
S']\x00\x00\x00\x00\x00\x00\x00'
p1669
tp1670
Rp1671
sa(dp1672
S'action'
p1673
S'delete'
p1674
sS'order'
p1675
F1524076022.288058
sS'objid'
p1676
g8
(g12
S'\\\x00\x00\x00\x00\x00\x00\x00'
p1677
tp1678
Rp1679
sa(dp1680
S'action'
p1681
S'delete'
p1682
sS'order'
p1683
F1524076022.301377
sS'objid'
p1684
g8
(g12
S'Z\x00\x00\x00\x00\x00\x00\x00'
p1685
tp1686
Rp1687
sa(dp1688
S'action'
p1689
S'delete'
p1690
sS'order'
p1691
F1524076022.314773
sS'objid'
p1692
g8
(g12
S'Y\x00\x00\x00\x00\x00\x00\x00'
p1693
tp1694
Rp1695
sa(dp1696
S'action'
p1697
S'delete'
p1698
sS'order'
p1699
F1524076022.328234
sS'objid'
p1700
g8
(g12
S'X\x00\x00\x00\x00\x00\x00\x00'
p1701
tp1702
Rp1703
sa(dp1704
S'action'
p1705
S'delete'
p1706
sS'order'
p1707
F1524076022.341783
sS'objid'
p1708
g8
(g12
S'W\x00\x00\x00\x00\x00\x00\x00'
p1709
tp1710
Rp1711
sa(dp1712
S'action'
p1713
S'delete'
p1714
sS'order'
p1715
F1524076022.355372
sS'objid'
p1716
g8
(g12
S'V\x00\x00\x00\x00\x00\x00\x00'
p1717
tp1718
Rp1719
sa(dp1720
S'action'
p1721
S'delete'
p1722
sS'order'
p1723
F1524076022.368998
sS'objid'
p1724
g8
(g12
S'U\x00\x00\x00\x00\x00\x00\x00'
p1725
tp1726
Rp1727
sa(dp1728
S'action'
p1729
S'delete'
p1730
sS'order'
p1731
F1524076022.382712
sS'objid'
p1732
g8
(g12
S'T\x00\x00\x00\x00\x00\x00\x00'
p1733
tp1734
Rp1735
sa(dp1736
S'action'
p1737
S'delete'
p1738
sS'order'
p1739
F1524076022.396506
sS'objid'
p1740
g8
(g12
S'S\x00\x00\x00\x00\x00\x00\x00'
p1741
tp1742
Rp1743
sa(dp1744
S'action'
p1745
S'delete'
p1746
sS'order'
p1747
F1524076022.410311
sS'objid'
p1748
g8
(g12
S'R\x00\x00\x00\x00\x00\x00\x00'
p1749
tp1750
Rp1751
sa(dp1752
S'action'
p1753
S'delete'
p1754
sS'order'
p1755
F1524076022.424211
sS'objid'
p1756
g8
(g12
S'Q\x00\x00\x00\x00\x00\x00\x00'
p1757
tp1758
Rp1759
sa(dp1760
S'action'
p1761
S'delete'
p1762
sS'order'
p1763
F1524076022.438133
sS'objid'
p1764
g8
(g12
S'P\x00\x00\x00\x00\x00\x00\x00'
p1765
tp1766
Rp1767
sa(dp1768
S'action'
p1769
S'delete'
p1770
sS'order'
p1771
F1524076022.452191
sS'objid'
p1772
g8
(g12
S'O\x00\x00\x00\x00\x00\x00\x00'
p1773
tp1774
Rp1775
sa(dp1776
S'action'
p1777
S'delete'
p1778
sS'order'
p1779
F1524076022.466243
sS'objid'
p1780
g8
(g12
S'N\x00\x00\x00\x00\x00\x00\x00'
p1781
tp1782
Rp1783
sa(dp1784
S'action'
p1785
S'delete'
p1786
sS'order'
p1787
F1524076022.480376
sS'objid'
p1788
g8
(g12
S'M\x00\x00\x00\x00\x00\x00\x00'
p1789
tp1790
Rp1791
sa(dp1792
S'action'
p1793
S'delete'
p1794
sS'order'
p1795
F1524076022.494538
sS'objid'
p1796
g8
(g12
S'L\x00\x00\x00\x00\x00\x00\x00'
p1797
tp1798
Rp1799
sa(dp1800
S'action'
p1801
S'delete'
p1802
sS'order'
p1803
F1524076022.508787
sS'objid'
p1804
g8
(g12
S'K\x00\x00\x00\x00\x00\x00\x00'
p1805
tp1806
Rp1807
sa(dp1808
S'action'
p1809
S'delete'
p1810
sS'order'
p1811
F1524076022.523107
sS'objid'
p1812
g8
(g12
S'J\x00\x00\x00\x00\x00\x00\x00'
p1813
tp1814
Rp1815
sa(dp1816
S'action'
p1817
S'delete'
p1818
sS'order'
p1819
F1524076022.537472
sS'objid'
p1820
g8
(g12
S'I\x00\x00\x00\x00\x00\x00\x00'
p1821
tp1822
Rp1823
sa(dp1824
S'action'
p1825
S'delete'
p1826
sS'order'
p1827
F1524076022.551886
sS'objid'
p1828
g8
(g12
S'H\x00\x00\x00\x00\x00\x00\x00'
p1829
tp1830
Rp1831
sa(dp1832
S'action'
p1833
S'delete'
p1834
sS'order'
p1835
F1524076022.5664
sS'objid'
p1836
g8
(g12
S'G\x00\x00\x00\x00\x00\x00\x00'
p1837
tp1838
Rp1839
sa(dp1840
S'action'
p1841
S'delete'
p1842
sS'order'
p1843
F1524076022.580935
sS'objid'
p1844
g8
(g12
S'F\x00\x00\x00\x00\x00\x00\x00'
p1845
tp1846
Rp1847
sa(dp1848
S'action'
p1849
S'delete'
p1850
sS'order'
p1851
F1524076022.595533
sS'objid'
p1852
g8
(g12
S'E\x00\x00\x00\x00\x00\x00\x00'
p1853
tp1854
Rp1855
sa(dp1856
S'action'
p1857
S'delete'
p1858
sS'order'
p1859
F1524076022.610164
sS'objid'
p1860
g8
(g12
S'D\x00\x00\x00\x00\x00\x00\x00'
p1861
tp1862
Rp1863
sa(dp1864
S'action'
p1865
S'delete'
p1866
sS'order'
p1867
F1524076022.624972
sS'objid'
p1868
g8
(g12
S'C\x00\x00\x00\x00\x00\x00\x00'
p1869
tp1870
Rp1871
sa(dp1872
S'action'
p1873
S'delete'
p1874
sS'order'
p1875
F1524076022.639793
sS'objid'
p1876
g8
(g12
S'B\x00\x00\x00\x00\x00\x00\x00'
p1877
tp1878
Rp1879
sa(dp1880
S'action'
p1881
S'delete'
p1882
sS'order'
p1883
F1524076022.654743
sS'objid'
p1884
g8
(g12
S'A\x00\x00\x00\x00\x00\x00\x00'
p1885
tp1886
Rp1887
sa(dp1888
S'action'
p1889
S'delete'
p1890
sS'order'
p1891
F1524076022.66964
sS'objid'
p1892
g8
(g12
S'@\x00\x00\x00\x00\x00\x00\x00'
p1893
tp1894
Rp1895
sa(dp1896
S'action'
p1897
S'delete'
p1898
sS'order'
p1899
F1524076022.684574
sS'objid'
p1900
g8
(g12
S'>\x00\x00\x00\x00\x00\x00\x00'
p1901
tp1902
Rp1903
sa(dp1904
S'action'
p1905
S'delete'
p1906
sS'order'
p1907
F1524076022.699541
sS'objid'
p1908
g8
(g12
S'=\x00\x00\x00\x00\x00\x00\x00'
p1909
tp1910
Rp1911
sa(dp1912
S'action'
p1913
S'delete'
p1914
sS'order'
p1915
F1524076022.714629
sS'objid'
p1916
g8
(g12
S'<\x00\x00\x00\x00\x00\x00\x00'
p1917
tp1918
Rp1919
sa(dp1920
S'action'
p1921
S'delete'
p1922
sS'order'
p1923
F1524076022.729769
sS'objid'
p1924
g8
(g12
S';\x00\x00\x00\x00\x00\x00\x00'
p1925
tp1926
Rp1927
sa(dp1928
S'action'
p1929
S'delete'
p1930
sS'order'
p1931
F1524076022.744994
sS'objid'
p1932
g8
(g12
S':\x00\x00\x00\x00\x00\x00\x00'
p1933
tp1934
Rp1935
sa(dp1936
S'action'
p1937
S'delete'
p1938
sS'order'
p1939
F1524076022.760275
sS'objid'
p1940
g8
(g12
S'9\x00\x00\x00\x00\x00\x00\x00'
p1941
tp1942
Rp1943
sa(dp1944
S'action'
p1945
S'delete'
p1946
sS'order'
p1947
F1524076030.975165
sS'objid'
p1948
g8
(g12
S'8\x00\x00\x00\x00\x00\x00\x00'
p1949
tp1950
Rp1951
sa(dp1952
S'action'
p1953
S'delete'
p1954
sS'order'
p1955
F1524076030.99788
sS'objid'
p1956
g8
(g12
S'7\x00\x00\x00\x00\x00\x00\x00'
p1957
tp1958
Rp1959
sa(dp1960
S'action'
p1961
S'delete'
p1962
sS'order'
p1963
F1524076031.013604
sS'objid'
p1964
g8
(g12
S'6\x00\x00\x00\x00\x00\x00\x00'
p1965
tp1966
Rp1967
sa(dp1968
S'action'
p1969
S'delete'
p1970
sS'order'
p1971
F1524076031.029117
sS'objid'
p1972
g8
(g12
S'5\x00\x00\x00\x00\x00\x00\x00'
p1973
tp1974
Rp1975
sa(dp1976
S'action'
p1977
S'delete'
p1978
sS'order'
p1979
F1524076031.044663
sS'objid'
p1980
g8
(g12
S'4\x00\x00\x00\x00\x00\x00\x00'
p1981
tp1982
Rp1983
sa(dp1984
S'action'
p1985
S'delete'
p1986
sS'order'
p1987
F1524076031.06034
sS'objid'
p1988
g8
(g12
S'3\x00\x00\x00\x00\x00\x00\x00'
p1989
tp1990
Rp1991
sa(dp1992
S'action'
p1993
S'delete'
p1994
sS'order'
p1995
F1524076031.076028
sS'objid'
p1996
g8
(g12
S'2\x00\x00\x00\x00\x00\x00\x00'
p1997
tp1998
Rp1999
sa(dp2000
S'action'
p2001
S'delete'
p2002
sS'order'
p2003
F1524076031.091859
sS'objid'
p2004
g8
(g12
S'/\x00\x00\x00\x00\x00\x00\x00'
p2005
tp2006
Rp2007
sa(dp2008
S'action'
p2009
S'delete'
p2010
sS'order'
p2011
F1524076031.107617
sS'objid'
p2012
g8
(g12
S'.\x00\x00\x00\x00\x00\x00\x00'
p2013
tp2014
Rp2015
sa(dp2016
S'action'
p2017
S'delete'
p2018
sS'order'
p2019
F1524076031.123543
sS'objid'
p2020
g8
(g12
S'-\x00\x00\x00\x00\x00\x00\x00'
p2021
tp2022
Rp2023
sa(dp2024
S'action'
p2025
S'delete'
p2026
sS'order'
p2027
F1524076031.139498
sS'objid'
p2028
g8
(g12
S',\x00\x00\x00\x00\x00\x00\x00'
p2029
tp2030
Rp2031
sa(dp2032
S'action'
p2033
S'delete'
p2034
sS'order'
p2035
F1524076031.155521
sS'objid'
p2036
g8
(g12
S'+\x00\x00\x00\x00\x00\x00\x00'
p2037
tp2038
Rp2039
sa(dp2040
S'action'
p2041
S'delete'
p2042
sS'order'
p2043
F1524076031.171526
sS'objid'
p2044
g8
(g12
S'*\x00\x00\x00\x00\x00\x00\x00'
p2045
tp2046
Rp2047
sa(dp2048
S'action'
p2049
S'delete'
p2050
sS'order'
p2051
F1524076031.187553
sS'objid'
p2052
g8
(g12
S')\x00\x00\x00\x00\x00\x00\x00'
p2053
tp2054
Rp2055
sa(dp2056
S'action'
p2057
S'delete'
p2058
sS'order'
p2059
F1524076031.203654
sS'objid'
p2060
g8
(g12
S'(\x00\x00\x00\x00\x00\x00\x00'
p2061
tp2062
Rp2063
sa(dp2064
S'action'
p2065
S'delete'
p2066
sS'order'
p2067
F1524076031.219863
sS'objid'
p2068
g8
(g12
S"'\x00\x00\x00\x00\x00\x00\x00"
p2069
tp2070
Rp2071
sa(dp2072
S'action'
p2073
S'delete'
p2074
sS'order'
p2075
F1524076031.23614
sS'objid'
p2076
g8
(g12
S'&\x00\x00\x00\x00\x00\x00\x00'
p2077
tp2078
Rp2079
sa(dp2080
S'action'
p2081
S'delete'
p2082
sS'order'
p2083
F1524076031.252416
sS'objid'
p2084
g8
(g12
S'$\x00\x00\x00\x00\x00\x00\x00'
p2085
tp2086
Rp2087
sa(dp2088
S'action'
p2089
S'delete'
p2090
sS'order'
p2091
F1524076031.268861
sS'objid'
p2092
g8
(g12
S'#\x00\x00\x00\x00\x00\x00\x00'
p2093
tp2094
Rp2095
sa(dp2096
S'action'
p2097
S'delete'
p2098
sS'order'
p2099
F1524076031.285289
sS'objid'
p2100
g8
(g12
S'"\x00\x00\x00\x00\x00\x00\x00'
p2101
tp2102
Rp2103
sa(dp2104
S'action'
p2105
S'delete'
p2106
sS'order'
p2107
F1524076031.301773
sS'objid'
p2108
g8
(g12
S'!\x00\x00\x00\x00\x00\x00\x00'
p2109
tp2110
Rp2111
sa(dp2112
S'action'
p2113
S'delete'
p2114
sS'order'
p2115
F1524076031.318468
sS'objid'
p2116
g8
(g12
S' \x00\x00\x00\x00\x00\x00\x00'
p2117
tp2118
Rp2119
sa(dp2120
S'action'
p2121
S'delete'
p2122
sS'order'
p2123
F1524076031.335089
sS'objid'
p2124
g8
(g12
S'\x1f\x00\x00\x00\x00\x00\x00\x00'
p2125
tp2126
Rp2127
sa(dp2128
S'action'
p2129
S'delete'
p2130
sS'order'
p2131
F1524076031.351753
sS'objid'
p2132
g8
(g12
S'\x1e\x00\x00\x00\x00\x00\x00\x00'
p2133
tp2134
Rp2135
sa(dp2136
S'action'
p2137
S'delete'
p2138
sS'order'
p2139
F1524076031.368427
sS'objid'
p2140
g8
(g12
S'\x1d\x00\x00\x00\x00\x00\x00\x00'
p2141
tp2142
Rp2143
sa(dp2144
S'action'
p2145
S'delete'
p2146
sS'order'
p2147
F1524076031.385199
sS'objid'
p2148
g8
(g12
S'\x1c\x00\x00\x00\x00\x00\x00\x00'
p2149
tp2150
Rp2151
sa(dp2152
S'action'
p2153
S'delete'
p2154
sS'order'
p2155
F1524076031.402016
sS'objid'
p2156
g8
(g12
S'\x1b\x00\x00\x00\x00\x00\x00\x00'
p2157
tp2158
Rp2159
sa(dp2160
S'action'
p2161
S'delete'
p2162
sS'order'
p2163
F1524076031.418913
sS'objid'
p2164
g8
(g12
S'\x1a\x00\x00\x00\x00\x00\x00\x00'
p2165
tp2166
Rp2167
sa(dp2168
S'action'
p2169
S'delete'
p2170
sS'order'
p2171
F1524076031.435875
sS'objid'
p2172
g8
(g12
S'\x19\x00\x00\x00\x00\x00\x00\x00'
p2173
tp2174
Rp2175
sa(dp2176
S'action'
p2177
S'delete'
p2178
sS'order'
p2179
F1524076031.452851
sS'objid'
p2180
g8
(g12
S'\x17\x00\x00\x00\x00\x00\x00\x00'
p2181
tp2182
Rp2183
sa(dp2184
S'action'
p2185
S'delete'
p2186
sS'order'
p2187
F1524076031.46994
sS'objid'
p2188
g8
(g12
S'\x16\x00\x00\x00\x00\x00\x00\x00'
p2189
tp2190
Rp2191
sa(dp2192
S'action'
p2193
S'delete'
p2194
sS'order'
p2195
F1524076031.487335
sS'objid'
p2196
g8
(g12
S'\x15\x00\x00\x00\x00\x00\x00\x00'
p2197
tp2198
Rp2199
sa(dp2200
S'action'
p2201
S'delete'
p2202
sS'order'
p2203
F1524076031.50458
sS'objid'
p2204
g8
(g12
S'\x13\x00\x00\x00\x00\x00\x00\x00'
p2205
tp2206
Rp2207
sa(dp2208
S'action'
p2209
S'delete'
p2210
sS'order'
p2211
F1524076031.521942
sS'objid'
p2212
g8
(g12
S'\x12\x00\x00\x00\x00\x00\x00\x00'
p2213
tp2214
Rp2215
sa(dp2216
S'action'
p2217
S'delete'
p2218
sS'order'
p2219
F1524076031.539336
sS'objid'
p2220
g8
(g12
S'\x11\x00\x00\x00\x00\x00\x00\x00'
p2221
tp2222
Rp2223
sa(dp2224
S'action'
p2225
S'delete'
p2226
sS'order'
p2227
F1524076039.639236
sS'objid'
p2228
g8
(g12
S'\x10\x00\x00\x00\x00\x00\x00\x00'
p2229
tp2230
Rp2231
sa(dp2232
S'action'
p2233
S'delete'
p2234
sS'order'
p2235
F1524076039.664376
sS'objid'
p2236
g8
(g12
S'\x0f\x00\x00\x00\x00\x00\x00\x00'
p2237
tp2238
Rp2239
sa(dp2240
S'action'
p2241
S'delete'
p2242
sS'order'
p2243
F1524076039.682292
sS'objid'
p2244
g8
(g12
S'\x0e\x00\x00\x00\x00\x00\x00\x00'
p2245
tp2246
Rp2247
sa(dp2248
S'action'
p2249
S'delete'
p2250
sS'order'
p2251
F1524076039.700111
sS'objid'
p2252
g8
(g12
S'\r\x00\x00\x00\x00\x00\x00\x00'
p2253
tp2254
Rp2255
sa(dp2256
S'action'
p2257
S'delete'
p2258
sS'order'
p2259
F1524076039.717976
sS'objid'
p2260
g8
(g12
S'\x0c\x00\x00\x00\x00\x00\x00\x00'
p2261
tp2262
Rp2263
sa(dp2264
S'action'
p2265
S'delete'
p2266
sS'order'
p2267
F1524076039.735835
sS'objid'
p2268
g8
(g12
S'\x0b\x00\x00\x00\x00\x00\x00\x00'
p2269
tp2270
Rp2271
sa(dp2272
S'action'
p2273
S'delete'
p2274
sS'order'
p2275
F1524076039.753855
sS'objid'
p2276
g8
(g12
S'\n\x00\x00\x00\x00\x00\x00\x00'
p2277
tp2278
Rp2279
sa(dp2280
S'action'
p2281
S'delete'
p2282
sS'order'
p2283
F1524076039.771851
sS'objid'
p2284
g8
(g12
S'\t\x00\x00\x00\x00\x00\x00\x00'
p2285
tp2286
Rp2287
sa(dp2288
S'action'
p2289
S'delete'
p2290
sS'order'
p2291
F1524076039.789901
sS'objid'
p2292
g8
(g12
S'\x08\x00\x00\x00\x00\x00\x00\x00'
p2293
tp2294
Rp2295
sa(dp2296
S'action'
p2297
S'delete'
p2298
sS'order'
p2299
F1524076039.80799
sS'objid'
p2300
g8
(g12
S'\x06\x00\x00\x00\x00\x00\x00\x00'
p2301
tp2302
Rp2303
sa(dp2304
S'action'
p2305
S'delete'
p2306
sS'order'
p2307
F1524076039.82617
sS'objid'
p2308
g8
(g12
S'\x04\x00\x00\x00\x00\x00\x00\x00'
p2309
tp2310
Rp2311
sa(dp2312
S'action'
p2313
S'delete'
p2314
sS'order'
p2315
F1524076039.844338
sS'objid'
p2316
g8
(g12
S'\x01\x00\x00\x00\x00\x00\x00\x00'
p2317
tp2318
Rp2319
sa.