(lp0
(dp1
S'cut_frame_global'
p2
I30
sS'cut_time_epoch'
p3
cnumpy.core.multiarray
scalar
p4
(cnumpy
dtype
p5
(S'f8'
p6
I0
I1
tp7
Rp8
(I3
S'<'
p9
NNNI-1
I-1
I0
tp10
bS'JJ\xe2V\xe0\xb5\xd6A'
p11
tp12
Rp13
sS'cut_frame_trajectory'
p14
g4
(g5
(S'i8'
p15
I0
I1
tp16
Rp17
(I3
S'<'
p18
NNNI-1
I-1
I0
tp19
bS'\x02\x00\x00\x00\x00\x00\x00\x00'
p20
tp21
Rp22
sS'objid'
p23
g4
(g17
S'\x02\x00\x00\x00\x00\x00\x00\x00'
p24
tp25
Rp26
sS'action'
p27
S'cut'
p28
sS'order'
p29
F1524076077.097645
sS'new_objid'
p30
g4
(g17
S'\xe9\x00\x00\x00\x00\x00\x00\x00'
p31
tp32
Rp33
sa(dp34
S'cut_frame_global'
p35
I24
sS'cut_time_epoch'
p36
g4
(g8
S'\xdf\xe3\xbbV\xe0\xb5\xd6A'
p37
tp38
Rp39
sS'cut_frame_trajectory'
p40
g4
(g17
S'\x07\x00\x00\x00\x00\x00\x00\x00'
p41
tp42
Rp43
sS'objid'
p44
g4
(g17
S'\x01\x00\x00\x00\x00\x00\x00\x00'
p45
tp46
Rp47
sS'action'
p48
S'cut'
p49
sS'order'
p50
F1524076095.146318
sS'new_objid'
p51
g4
(g17
S'\xec\x00\x00\x00\x00\x00\x00\x00'
p52
tp53
Rp54
sa(dp55
g48
S'join'
p56
sS'data_to_add'
p57
(lp58
sg50
F1524076103.607959
sg51
g4
(g17
S'\xed\x00\x00\x00\x00\x00\x00\x00'
p59
tp60
Rp61
sS'objids'
p62
(lp63
g4
(g17
S'\x01\x00\x00\x00\x00\x00\x00\x00'
p64
tp65
Rp66
ag4
(g17
S'\xe9\x00\x00\x00\x00\x00\x00\x00'
p67
tp68
Rp69
asa(dp70
g48
g56
sg57
(lp71
sg50
F1524076121.528659
sg51
g4
(g17
S'\xee\x00\x00\x00\x00\x00\x00\x00'
p72
tp73
Rp74
sg62
(lp75
g4
(g17
S'\x00\x00\x00\x00\x00\x00\x00\x00'
p76
tp77
Rp78
ag4
(g17
S'\xed\x00\x00\x00\x00\x00\x00\x00'
p79
tp80
Rp81
asa(dp82
g35
I301
sg36
g4
(g8
S'\xe0\xb1\xa8]\xe0\xb5\xd6A'
p83
tp84
Rp85
sg40
g4
(g17
S'\x03\x00\x00\x00\x00\x00\x00\x00'
p86
tp87
Rp88
sg44
g4
(g17
S'\x12\x00\x00\x00\x00\x00\x00\x00'
p89
tp90
Rp91
sg48
g49
sg50
F1524076158.822043
sg51
g4
(g17
S'\xef\x00\x00\x00\x00\x00\x00\x00'
p92
tp93
Rp94
sa(dp95
g48
g56
sg57
(lp96
sg50
F1524076169.520732
sg51
g4
(g17
S'\xf0\x00\x00\x00\x00\x00\x00\x00'
p97
tp98
Rp99
sg62
(lp100
g4
(g17
S'\xef\x00\x00\x00\x00\x00\x00\x00'
p101
tp102
Rp103
ag4
(g17
S'\xee\x00\x00\x00\x00\x00\x00\x00'
p104
tp105
Rp106
ag4
(g17
S'\x13\x00\x00\x00\x00\x00\x00\x00'
p107
tp108
Rp109
asa(dp110
g48
g56
sg57
(lp111
sg50
F1524076178.00936
sg51
g4
(g17
S'\xf1\x00\x00\x00\x00\x00\x00\x00'
p112
tp113
Rp114
sg62
(lp115
g4
(g17
S'\x19\x00\x00\x00\x00\x00\x00\x00'
p116
tp117
Rp118
ag4
(g17
S'\xf0\x00\x00\x00\x00\x00\x00\x00'
p119
tp120
Rp121
asa(dp122
g35
I362
sg36
g4
(g8
S'6\x17/_\xe0\xb5\xd6A'
p123
tp124
Rp125
sg40
g4
(g17
S'\x01\x00\x00\x00\x00\x00\x00\x00'
p126
tp127
Rp128
sg44
g4
(g17
S'\x1b\x00\x00\x00\x00\x00\x00\x00'
p129
tp130
Rp131
sg48
g49
sg50
F1524076227.132536
sg51
g4
(g17
S'\xf2\x00\x00\x00\x00\x00\x00\x00'
p132
tp133
Rp134
sa(dp135
g48
g56
sg57
(lp136
sg50
F1524076232.146377
sg51
g4
(g17
S'\xf3\x00\x00\x00\x00\x00\x00\x00'
p137
tp138
Rp139
sg62
(lp140
g4
(g17
S'\xf1\x00\x00\x00\x00\x00\x00\x00'
p141
tp142
Rp143
ag4
(g17
S'\xf2\x00\x00\x00\x00\x00\x00\x00'
p144
tp145
Rp146
asa(dp147
g48
g56
sg57
(lp148
sg50
F1524076252.60253
sg51
g4
(g17
S'\xf4\x00\x00\x00\x00\x00\x00\x00'
p149
tp150
Rp151
sg62
(lp152
g4
(g17
S'#\x00\x00\x00\x00\x00\x00\x00'
p153
tp154
Rp155
ag4
(g17
S'\xf3\x00\x00\x00\x00\x00\x00\x00'
p156
tp157
Rp158
asa(dp159
g35
I429
sg36
g4
(g8
S'\x1e\xe5\xdb`\xe0\xb5\xd6A'
p160
tp161
Rp162
sg40
g4
(g17
S'*\x00\x00\x00\x00\x00\x00\x00'
p163
tp164
Rp165
sg44
g4
(g17
S'!\x00\x00\x00\x00\x00\x00\x00'
p166
tp167
Rp168
sg48
g49
sg50
F1524076263.766717
sg51
g4
(g17
S'\xf5\x00\x00\x00\x00\x00\x00\x00'
p169
tp170
Rp171
sa(dp172
g48
g56
sg57
(lp173
sg50
F1524076268.138423
sg51
g4
(g17
S'\xf6\x00\x00\x00\x00\x00\x00\x00'
p174
tp175
Rp176
sg62
(lp177
g4
(g17
S'\xf5\x00\x00\x00\x00\x00\x00\x00'
p178
tp179
Rp180
ag4
(g17
S'\xf4\x00\x00\x00\x00\x00\x00\x00'
p181
tp182
Rp183
asa(dp184
S'cut_frame_global'
p185
I493
sS'cut_time_epoch'
p186
g4
(g8
S'|~ub\xe0\xb5\xd6A'
p187
tp188
Rp189
sS'cut_frame_trajectory'
p190
g4
(g17
S'\x0c\x00\x00\x00\x00\x00\x00\x00'
p191
tp192
Rp193
sS'objid'
p194
g4
(g17
S'3\x00\x00\x00\x00\x00\x00\x00'
p195
tp196
Rp197
sS'action'
p198
S'cut'
p199
sS'order'
p200
F1524076310.733587
sS'new_objid'
p201
g4
(g17
S'\xf8\x00\x00\x00\x00\x00\x00\x00'
p202
tp203
Rp204
sa(dp205
g185
I484
sg186
g4
(g8
S'\x0e\xe4;b\xe0\xb5\xd6A'
p206
tp207
Rp208
sg190
g4
(g17
S'\x03\x00\x00\x00\x00\x00\x00\x00'
p209
tp210
Rp211
sg194
g4
(g17
S'3\x00\x00\x00\x00\x00\x00\x00'
p212
tp213
Rp214
sg198
g199
sg200
F1524076311.309887
sg201
g4
(g17
S'\xf9\x00\x00\x00\x00\x00\x00\x00'
p215
tp216
Rp217
sa(dp218
S'action'
p219
S'join'
p220
sS'data_to_add'
p221
(lp222
sS'order'
p223
F1524076327.844388
sS'new_objid'
p224
g4
(g17
S'\xfb\x00\x00\x00\x00\x00\x00\x00'
p225
tp226
Rp227
sS'objids'
p228
(lp229
g4
(g17
S'3\x00\x00\x00\x00\x00\x00\x00'
p230
tp231
Rp232
ag4
(g17
S'\xf6\x00\x00\x00\x00\x00\x00\x00'
p233
tp234
Rp235
ag4
(g17
S'5\x00\x00\x00\x00\x00\x00\x00'
p236
tp237
Rp238
asa(dp239
g219
g220
sg221
(lp240
sg223
F1524076358.052631
sg224
g4
(g17
S'\xfc\x00\x00\x00\x00\x00\x00\x00'
p241
tp242
Rp243
sg228
(lp244
g4
(g17
S'=\x00\x00\x00\x00\x00\x00\x00'
p245
tp246
Rp247
ag4
(g17
S'\xfb\x00\x00\x00\x00\x00\x00\x00'
p248
tp249
Rp250
asa(dp251
S'cut_frame_global'
p252
I541
sS'cut_time_epoch'
p253
g4
(g8
S'\xa1\xb1\xa8c\xe0\xb5\xd6A'
p254
tp255
Rp256
sS'cut_frame_trajectory'
p257
g4
(g17
S'\x03\x00\x00\x00\x00\x00\x00\x00'
p258
tp259
Rp260
sS'objid'
p261
g4
(g17
S'@\x00\x00\x00\x00\x00\x00\x00'
p262
tp263
Rp264
sg219
S'cut'
p265
sg223
F1524076374.031571
sg224
g4
(g17
S'\xfd\x00\x00\x00\x00\x00\x00\x00'
p266
tp267
Rp268
sa(dp269
S'cut_frame_global'
p270
I544
sS'cut_time_epoch'
p271
g4
(g8
S'\x00\xe4\xbbc\xe0\xb5\xd6A'
p272
tp273
Rp274
sS'cut_frame_trajectory'
p275
g4
(g17
S'3\x00\x00\x00\x00\x00\x00\x00'
p276
tp277
Rp278
sS'objid'
p279
g4
(g17
S'\xf8\x00\x00\x00\x00\x00\x00\x00'
p280
tp281
Rp282
sS'action'
p283
S'cut'
p284
sS'order'
p285
F1524076415.096335
sS'new_objid'
p286
g4
(g17
S'\x01\x01\x00\x00\x00\x00\x00\x00'
p287
tp288
Rp289
sa(dp290
g270
I585
sg271
g4
(g8
S'zK\xc2d\xe0\xb5\xd6A'
p291
tp292
Rp293
sg275
g4
(g17
S')\x00\x00\x00\x00\x00\x00\x00'
p294
tp295
Rp296
sg279
g4
(g17
S'\x01\x01\x00\x00\x00\x00\x00\x00'
p297
tp298
Rp299
sg283
g284
sg285
F1524076417.352134
sg286
g4
(g17
S'\x02\x01\x00\x00\x00\x00\x00\x00'
p300
tp301
Rp302
sa(dp303
S'cut_frame_global'
p304
I547
sS'cut_time_epoch'
p305
g4
(g8
S'%\x18\xcfc\xe0\xb5\xd6A'
p306
tp307
Rp308
sS'cut_frame_trajectory'
p309
g4
(g17
S'\x03\x00\x00\x00\x00\x00\x00\x00'
p310
tp311
Rp312
sS'objid'
p313
g4
(g17
S'\x01\x01\x00\x00\x00\x00\x00\x00'
p314
tp315
Rp316
sS'action'
p317
S'cut'
p318
sS'order'
p319
F1524076427.571374
sS'new_objid'
p320
g4
(g17
S'\x04\x01\x00\x00\x00\x00\x00\x00'
p321
tp322
Rp323
sa(dp324
g317
S'join'
p325
sS'data_to_add'
p326
(lp327
sg319
F1524076440.142141
sg320
g4
(g17
S'\x05\x01\x00\x00\x00\x00\x00\x00'
p328
tp329
Rp330
sS'objids'
p331
(lp332
g4
(g17
S'\x01\x01\x00\x00\x00\x00\x00\x00'
p333
tp334
Rp335
ag4
(g17
S'\xfd\x00\x00\x00\x00\x00\x00\x00'
p336
tp337
Rp338
ag4
(g17
S'\xfc\x00\x00\x00\x00\x00\x00\x00'
p339
tp340
Rp341
ag4
(g17
S'C\x00\x00\x00\x00\x00\x00\x00'
p342
tp343
Rp344
asa(dp345
g304
I585
sg305
g4
(g8
S'zK\xc2d\xe0\xb5\xd6A'
p346
tp347
Rp348
sg309
g4
(g17
S'\x02\x00\x00\x00\x00\x00\x00\x00'
p349
tp350
Rp351
sg313
g4
(g17
S'I\x00\x00\x00\x00\x00\x00\x00'
p352
tp353
Rp354
sg317
g318
sg319
F1524076453.551851
sg320
g4
(g17
S'\x06\x01\x00\x00\x00\x00\x00\x00'
p355
tp356
Rp357
sa(dp358
S'action'
p359
S'join'
p360
sS'data_to_add'
p361
(lp362
(lp363
F1524072850.9357917
aF126.45411211982535
aF425.09111216651667
aa(lp364
F1524072850.9357917
aF126.45411211982535
aF425.09111216651667
aa(lp365
F1524072850.8358495
aF115.48205979361158
aF440.96380160317767
aasS'order'
p366
F1524076499.903039
sS'new_objid'
p367
g4
(g17
S'\t\x01\x00\x00\x00\x00\x00\x00'
p368
tp369
Rp370
sS'objids'
p371
(lp372
g4
(g17
S'\x05\x01\x00\x00\x00\x00\x00\x00'
p373
tp374
Rp375
ag4
(g17
S'\x06\x01\x00\x00\x00\x00\x00\x00'
p376
tp377
Rp378
asa(dp379
S'cut_frame_global'
p380
I645
sS'cut_time_epoch'
p381
g4
(g8
S'FKBf\xe0\xb5\xd6A'
p382
tp383
Rp384
sS'cut_frame_trajectory'
p385
g4
(g17
S'\x02\x00\x00\x00\x00\x00\x00\x00'
p386
tp387
Rp388
sS'objid'
p389
g4
(g17
S'Q\x00\x00\x00\x00\x00\x00\x00'
p390
tp391
Rp392
sg359
S'cut'
p393
sg366
F1524076524.506919
sg367
g4
(g17
S'\n\x01\x00\x00\x00\x00\x00\x00'
p394
tp395
Rp396
sa(dp397
g380
I655
sg381
g4
(g8
S'\x17K\x82f\xe0\xb5\xd6A'
p398
tp399
Rp400
sg385
g4
(g17
S'\n\x00\x00\x00\x00\x00\x00\x00'
p401
tp402
Rp403
sg389
g4
(g17
S'\n\x01\x00\x00\x00\x00\x00\x00'
p404
tp405
Rp406
sg359
g393
sg366
F1524076525.866163
sg367
g4
(g17
S'\x0b\x01\x00\x00\x00\x00\x00\x00'
p407
tp408
Rp409
sa(dp410
g380
I657
sg381
g4
(g8
S' \x18\x8ff\xe0\xb5\xd6A'
p411
tp412
Rp413
sg385
g4
(g17
S'H\x00\x00\x00\x00\x00\x00\x00'
p414
tp415
Rp416
sg389
g4
(g17
S'\x02\x01\x00\x00\x00\x00\x00\x00'
p417
tp418
Rp419
sg359
g393
sg366
F1524076529.201862
sg367
g4
(g17
S'\x0c\x01\x00\x00\x00\x00\x00\x00'
p420
tp421
Rp422
sa(dp423
g359
g360
sg361
(lp424
sg366
F1524076538.439896
sg367
g4
(g17
S'\r\x01\x00\x00\x00\x00\x00\x00'
p425
tp426
Rp427
sg371
(lp428
g4
(g17
S'\t\x01\x00\x00\x00\x00\x00\x00'
p429
tp430
Rp431
ag4
(g17
S'\n\x01\x00\x00\x00\x00\x00\x00'
p432
tp433
Rp434
ag4
(g17
S'\x0c\x01\x00\x00\x00\x00\x00\x00'
p435
tp436
Rp437
asa(dp438
S'action'
p439
S'join'
p440
sS'data_to_add'
p441
(lp442
(lp443
F1524072866.5357938
aF159.87139217210796
aF418.7085462439742
aa(lp444
F1524072866.8358402
aF157.99006990366604
aF404.89313697840663
aasS'order'
p445
F1524076579.251198
sS'new_objid'
p446
g4
(g17
S'\x0f\x01\x00\x00\x00\x00\x00\x00'
p447
tp448
Rp449
sS'objids'
p450
(lp451
g4
(g17
S'\r\x01\x00\x00\x00\x00\x00\x00'
p452
tp453
Rp454
ag4
(g17
S'b\x00\x00\x00\x00\x00\x00\x00'
p455
tp456
Rp457
asa(dp458
S'cut_frame_global'
p459
I782
sS'cut_time_epoch'
p460
g4
(g8
S'<\x17\xafi\xe0\xb5\xd6A'
p461
tp462
Rp463
sS'cut_frame_trajectory'
p464
g4
(g17
S'\r\x03\x00\x00\x00\x00\x00\x00'
p465
tp466
Rp467
sS'objid'
p468
g4
(g17
S'\x0f\x01\x00\x00\x00\x00\x00\x00'
p469
tp470
Rp471
sg439
S'cut'
p472
sg445
F1524076595.658994
sg446
g4
(g17
S'\x10\x01\x00\x00\x00\x00\x00\x00'
p473
tp474
Rp475
sa(dp476
g439
g440
sg441
(lp477
sg445
F1524076602.44113
sg446
g4
(g17
S'\x11\x01\x00\x00\x00\x00\x00\x00'
p478
tp479
Rp480
sg450
(lp481
g4
(g17
S'l\x00\x00\x00\x00\x00\x00\x00'
p482
tp483
Rp484
ag4
(g17
S'\x0f\x01\x00\x00\x00\x00\x00\x00'
p485
tp486
Rp487
asa(dp488
S'cut_frame_global'
p489
I839
sS'cut_time_epoch'
p490
g4
(g8
S'\xd0\xe4\x1bk\xe0\xb5\xd6A'
p491
tp492
Rp493
sS'cut_frame_trajectory'
p494
g4
(g17
S'\x9e\x00\x00\x00\x00\x00\x00\x00'
p495
tp496
Rp497
sS'objid'
p498
g4
(g17
S'W\x00\x00\x00\x00\x00\x00\x00'
p499
tp500
Rp501
sS'action'
p502
S'cut'
p503
sS'order'
p504
F1524076625.971318
sS'new_objid'
p505
g4
(g17
S'\x13\x01\x00\x00\x00\x00\x00\x00'
p506
tp507
Rp508
sa(dp509
g489
I842
sg490
g4
(g8
S'/\x17/k\xe0\xb5\xd6A'
p510
tp511
Rp512
sg494
g4
(g17
S'\x03\x00\x00\x00\x00\x00\x00\x00'
p513
tp514
Rp515
sg498
g4
(g17
S'\x13\x01\x00\x00\x00\x00\x00\x00'
p516
tp517
Rp518
sg502
g503
sg504
F1524076627.963418
sg505
g4
(g17
S'\x14\x01\x00\x00\x00\x00\x00\x00'
p519
tp520
Rp521
sa(dp522
g502
S'join'
p523
sS'data_to_add'
p524
(lp525
sg504
F1524076636.257738
sg505
g4
(g17
S'\x15\x01\x00\x00\x00\x00\x00\x00'
p526
tp527
Rp528
sS'objids'
p529
(lp530
g4
(g17
S'\x13\x01\x00\x00\x00\x00\x00\x00'
p531
tp532
Rp533
ag4
(g17
S'x\x00\x00\x00\x00\x00\x00\x00'
p534
tp535
Rp536
ag4
(g17
S'\x11\x01\x00\x00\x00\x00\x00\x00'
p537
tp538
Rp539
asa(dp540
g489
I928
sg490
g4
(g8
S'\x85}Um\xe0\xb5\xd6A'
p541
tp542
Rp543
sg494
g4
(g17
S'\x9f\x03\x00\x00\x00\x00\x00\x00'
p544
tp545
Rp546
sg498
g4
(g17
S'\x15\x01\x00\x00\x00\x00\x00\x00'
p547
tp548
Rp549
sg502
g503
sg504
F1524076659.276584
sg505
g4
(g17
S'\x16\x01\x00\x00\x00\x00\x00\x00'
p550
tp551
Rp552
sa(dp553
g489
I928
sg490
g4
(g8
S'\x85}Um\xe0\xb5\xd6A'
p554
tp555
Rp556
sg494
g4
(g17
S'\x00\x00\x00\x00\x00\x00\x00\x00'
p557
tp558
Rp559
sg498
g4
(g17
S'\x16\x01\x00\x00\x00\x00\x00\x00'
p560
tp561
Rp562
sg502
g503
sg504
F1524076661.757658
sg505
g4
(g17
S'\x17\x01\x00\x00\x00\x00\x00\x00'
p563
tp564
Rp565
sa(dp566
g489
I928
sg490
g4
(g8
S'\x85}Um\xe0\xb5\xd6A'
p567
tp568
Rp569
sg494
g4
(g17
S'V\x00\x00\x00\x00\x00\x00\x00'
p570
tp571
Rp572
sg498
g4
(g17
S'\x14\x01\x00\x00\x00\x00\x00\x00'
p573
tp574
Rp575
sg502
g503
sg504
F1524076664.70018
sg505
g4
(g17
S'\x18\x01\x00\x00\x00\x00\x00\x00'
p576
tp577
Rp578
sa(dp579
g502
g523
sg524
(lp580
sg504
F1524076670.602464
sg505
g4
(g17
S'\x19\x01\x00\x00\x00\x00\x00\x00'
p581
tp582
Rp583
sg529
(lp584
g4
(g17
S'\x18\x01\x00\x00\x00\x00\x00\x00'
p585
tp586
Rp587
ag4
(g17
S'\x15\x01\x00\x00\x00\x00\x00\x00'
p588
tp589
Rp590
asa(dp591
g489
I1003
sg490
g4
(g8
S'\x93~5o\xe0\xb5\xd6A'
p592
tp593
Rp594
sg494
g4
(g17
S'\x06\x00\x00\x00\x00\x00\x00\x00'
p595
tp596
Rp597
sg498
g4
(g17
S'\x94\x00\x00\x00\x00\x00\x00\x00'
p598
tp599
Rp600
sg502
g503
sg504
F1524076688.188005
sg505
g4
(g17
S'\x1a\x01\x00\x00\x00\x00\x00\x00'
p601
tp602
Rp603
sa(dp604
g489
I1002
sg490
g4
(g8
S'6\x17/o\xe0\xb5\xd6A'
p605
tp606
Rp607
sg494
g4
(g17
S'J\x00\x00\x00\x00\x00\x00\x00'
p608
tp609
Rp610
sg498
g4
(g17
S'\x86\x00\x00\x00\x00\x00\x00\x00'
p611
tp612
Rp613
sg502
g503
sg504
F1524076690.614496
sg505
g4
(g17
S'\x1b\x01\x00\x00\x00\x00\x00\x00'
p614
tp615
Rp616
sa(dp617
g489
I998
sg490
g4
(g8
S'\x82}\x15o\xe0\xb5\xd6A'
p618
tp619
Rp620
sg494
g4
(g17
S'F\x00\x00\x00\x00\x00\x00\x00'
p621
tp622
Rp623
sg498
g4
(g17
S'\x86\x00\x00\x00\x00\x00\x00\x00'
p624
tp625
Rp626
sg502
g503
sg504
F1524076695.643969
sg505
g4
(g17
S'\x1c\x01\x00\x00\x00\x00\x00\x00'
p627
tp628
Rp629
sa(dp630
g502
g523
sg524
(lp631
sg504
F1524076701.058757
sg505
g4
(g17
S'\x1d\x01\x00\x00\x00\x00\x00\x00'
p632
tp633
Rp634
sg529
(lp635
g4
(g17
S'\x1c\x01\x00\x00\x00\x00\x00\x00'
p636
tp637
Rp638
ag4
(g17
S'\x19\x01\x00\x00\x00\x00\x00\x00'
p639
tp640
Rp641
ag4
(g17
S'\x1a\x01\x00\x00\x00\x00\x00\x00'
p642
tp643
Rp644
asa(dp645
g489
I1017
sg490
g4
(g8
S'\xe2\x17\x8fo\xe0\xb5\xd6A'
p646
tp647
Rp648
sg494
g4
(g17
S'\x0f\x00\x00\x00\x00\x00\x00\x00'
p649
tp650
Rp651
sg498
g4
(g17
S'\x1b\x01\x00\x00\x00\x00\x00\x00'
p652
tp653
Rp654
sg502
g503
sg504
F1524076720.486065
sg505
g4
(g17
S'\x1e\x01\x00\x00\x00\x00\x00\x00'
p655
tp656
Rp657
sa(dp658
g502
g523
sg524
(lp659
sg504
F1524076724.811281
sg505
g4
(g17
S'\x1f\x01\x00\x00\x00\x00\x00\x00'
p660
tp661
Rp662
sg529
(lp663
g4
(g17
S'\x1e\x01\x00\x00\x00\x00\x00\x00'
p664
tp665
Rp666
ag4
(g17
S'\x1d\x01\x00\x00\x00\x00\x00\x00'
p667
tp668
Rp669
asa(dp670
S'cut_frame_global'
p671
I1320
sS'cut_time_epoch'
p672
g4
(g8
S'kJ"w\xe0\xb5\xd6A'
p673
tp674
Rp675
sS'cut_frame_trajectory'
p676
g4
(g17
S'\x00\x00\x00\x00\x00\x00\x00\x00'
p677
tp678
Rp679
sS'objid'
p680
g4
(g17
S'\xc6\x00\x00\x00\x00\x00\x00\x00'
p681
tp682
Rp683
sS'action'
p684
S'cut'
p685
sS'order'
p686
F1524076755.291066
sS'new_objid'
p687
g4
(g17
S'!\x01\x00\x00\x00\x00\x00\x00'
p688
tp689
Rp690
sa(dp691
g671
I1320
sg672
g4
(g8
S'kJ"w\xe0\xb5\xd6A'
p692
tp693
Rp694
sg676
g4
(g17
S'\x00\x00\x00\x00\x00\x00\x00\x00'
p695
tp696
Rp697
sg680
g4
(g17
S'!\x01\x00\x00\x00\x00\x00\x00'
p698
tp699
Rp700
sg684
g685
sg686
F1524076756.894826
sg687
g4
(g17
S'"\x01\x00\x00\x00\x00\x00\x00'
p701
tp702
Rp703
sa(dp704
S'cut_frame_global'
p705
I634
sS'cut_time_epoch'
p706
g4
(g8
S'\xff\xe3\xfbe\xe0\xb5\xd6A'
p707
tp708
Rp709
sS'cut_frame_trajectory'
p710
g4
(g17
S'y\x02\x00\x00\x00\x00\x00\x00'
p711
tp712
Rp713
sS'objid'
p714
g4
(g17
S'\x1f\x01\x00\x00\x00\x00\x00\x00'
p715
tp716
Rp717
sS'action'
p718
S'cut'
p719
sS'order'
p720
F1524076770.006418
sS'new_objid'
p721
g4
(g17
S'%\x01\x00\x00\x00\x00\x00\x00'
p722
tp723
Rp724
sa(dp725
g705
I1317
sg706
g4
(g8
S'\xbb\x17\x0fw\xe0\xb5\xd6A'
p726
tp727
Rp728
sg710
g4
(g17
S'\xab\x02\x00\x00\x00\x00\x00\x00'
p729
tp730
Rp731
sg714
g4
(g17
S'%\x01\x00\x00\x00\x00\x00\x00'
p732
tp733
Rp734
sg718
g719
sg720
F1524076770.797218
sg721
g4
(g17
S'&\x01\x00\x00\x00\x00\x00\x00'
p735
tp736
Rp737
sa(dp738
g718
S'join'
p739
sS'data_to_add'
p740
(lp741
sg720
F1524076776.516441
sg721
g4
(g17
S"'\x01\x00\x00\x00\x00\x00\x00"
p742
tp743
Rp744
sS'objids'
p745
(lp746
g4
(g17
S'%\x01\x00\x00\x00\x00\x00\x00'
p747
tp748
Rp749
ag4
(g17
S'"\x01\x00\x00\x00\x00\x00\x00'
p750
tp751
Rp752
asa(dp753
g705
I1309
sg706
g4
(g8
S'\x06\xe5\xdbv\xe0\xb5\xd6A'
p754
tp755
Rp756
sg710
g4
(g17
S'&\x01\x00\x00\x00\x00\x00\x00'
p757
tp758
Rp759
sg714
g4
(g17
S'\x96\x00\x00\x00\x00\x00\x00\x00'
p760
tp761
Rp762
sg718
g719
sg720
F1524076787.358675
sg721
g4
(g17
S'(\x01\x00\x00\x00\x00\x00\x00'
p763
tp764
Rp765
sa(dp766
g705
I1309
sg706
g4
(g8
S'\x06\xe5\xdbv\xe0\xb5\xd6A'
p767
tp768
Rp769
sg710
g4
(g17
S'\x00\x00\x00\x00\x00\x00\x00\x00'
p770
tp771
Rp772
sg714
g4
(g17
S'(\x01\x00\x00\x00\x00\x00\x00'
p773
tp774
Rp775
sg718
g719
sg720
F1524076788.166293
sg721
g4
(g17
S')\x01\x00\x00\x00\x00\x00\x00'
p776
tp777
Rp778
sa(dp779
g705
I1399
sg706
g4
(g8
S'\xe8\xe4\x1by\xe0\xb5\xd6A'
p780
tp781
Rp782
sg710
g4
(g17
S'Z\x00\x00\x00\x00\x00\x00\x00'
p783
tp784
Rp785
sg714
g4
(g17
S')\x01\x00\x00\x00\x00\x00\x00'
p786
tp787
Rp788
sg718
g719
sg720
F1524076790.677666
sg721
g4
(g17
S'*\x01\x00\x00\x00\x00\x00\x00'
p789
tp790
Rp791
sa(dp792
g705
I1359
sg706
g4
(g8
S'\xe8\xe4\x1bx\xe0\xb5\xd6A'
p793
tp794
Rp795
sg710
g4
(g17
S'2\x00\x00\x00\x00\x00\x00\x00'
p796
tp797
Rp798
sg714
g4
(g17
S')\x01\x00\x00\x00\x00\x00\x00'
p799
tp800
Rp801
sg718
g719
sg720
F1524076791.462243
sg721
g4
(g17
S'+\x01\x00\x00\x00\x00\x00\x00'
p802
tp803
Rp804
sa(dp805
S'cut_frame_global'
p806
I1361
sS'cut_time_epoch'
p807
g4
(g8
S'v\xb1(x\xe0\xb5\xd6A'
p808
tp809
Rp810
sS'cut_frame_trajectory'
p811
g4
(g17
S'\x02\x00\x00\x00\x00\x00\x00\x00'
p812
tp813
Rp814
sS'objid'
p815
g4
(g17
S'+\x01\x00\x00\x00\x00\x00\x00'
p816
tp817
Rp818
sS'action'
p819
S'cut'
p820
sS'order'
p821
F1524076799.765883
sS'new_objid'
p822
g4
(g17
S'-\x01\x00\x00\x00\x00\x00\x00'
p823
tp824
Rp825
sa(dp826
S'action'
p827
S'join'
p828
sS'data_to_add'
p829
(lp830
sS'order'
p831
F1524076807.644558
sS'new_objid'
p832
g4
(g17
S'.\x01\x00\x00\x00\x00\x00\x00'
p833
tp834
Rp835
sS'objids'
p836
(lp837
g4
(g17
S'-\x01\x00\x00\x00\x00\x00\x00'
p838
tp839
Rp840
ag4
(g17
S"'\x01\x00\x00\x00\x00\x00\x00"
p841
tp842
Rp843
ag4
(g17
S'\xc9\x00\x00\x00\x00\x00\x00\x00'
p844
tp845
Rp846
asa(dp847
S'cut_frame_global'
p848
I1406
sS'cut_time_epoch'
p849
g4
(g8
S'\xb2\xb0Hy\xe0\xb5\xd6A'
p850
tp851
Rp852
sS'cut_frame_trajectory'
p853
g4
(g17
S'\x07\x00\x00\x00\x00\x00\x00\x00'
p854
tp855
Rp856
sS'objid'
p857
g4
(g17
S'*\x01\x00\x00\x00\x00\x00\x00'
p858
tp859
Rp860
sS'action'
p861
S'cut'
p862
sS'order'
p863
F1524076821.264974
sS'new_objid'
p864
g4
(g17
S'/\x01\x00\x00\x00\x00\x00\x00'
p865
tp866
Rp867
sa(dp868
S'action'
p869
S'join'
p870
sS'data_to_add'
p871
(lp872
sS'order'
p873
F1524076826.709173
sS'new_objid'
p874
g4
(g17
S'0\x01\x00\x00\x00\x00\x00\x00'
p875
tp876
Rp877
sS'objids'
p878
(lp879
g4
(g17
S'/\x01\x00\x00\x00\x00\x00\x00'
p880
tp881
Rp882
ag4
(g17
S'.\x01\x00\x00\x00\x00\x00\x00'
p883
tp884
Rp885
ag4
(g17
S'\xcc\x00\x00\x00\x00\x00\x00\x00'
p886
tp887
Rp888
asa(dp889
S'action'
p890
S'join'
p891
sS'data_to_add'
p892
(lp893
sS'order'
p894
F1524076845.68504
sS'new_objid'
p895
g4
(g17
S'1\x01\x00\x00\x00\x00\x00\x00'
p896
tp897
Rp898
sS'objids'
p899
(lp900
g4
(g17
S'\xcf\x00\x00\x00\x00\x00\x00\x00'
p901
tp902
Rp903
ag4
(g17
S'0\x01\x00\x00\x00\x00\x00\x00'
p904
tp905
Rp906
asa(dp907
S'action'
p908
S'join'
p909
sS'data_to_add'
p910
(lp911
sS'order'
p912
F1524076858.757812
sS'new_objid'
p913
g4
(g17
S'2\x01\x00\x00\x00\x00\x00\x00'
p914
tp915
Rp916
sS'objids'
p917
(lp918
g4
(g17
S'\xd1\x00\x00\x00\x00\x00\x00\x00'
p919
tp920
Rp921
ag4
(g17
S'1\x01\x00\x00\x00\x00\x00\x00'
p922
tp923
Rp924
asa(dp925
S'action'
p926
S'delete'
p927
sS'order'
p928
F1524076907.230595
sS'objid'
p929
g4
(g17
S'+\x01\x00\x00\x00\x00\x00\x00'
p930
tp931
Rp932
sa(dp933
S'action'
p934
S'delete'
p935
sS'order'
p936
F1524076907.245676
sS'objid'
p937
g4
(g17
S'*\x01\x00\x00\x00\x00\x00\x00'
p938
tp939
Rp940
sa(dp941
S'action'
p942
S'delete'
p943
sS'order'
p944
F1524076907.255281
sS'objid'
p945
g4
(g17
S')\x01\x00\x00\x00\x00\x00\x00'
p946
tp947
Rp948
sa(dp949
S'action'
p950
S'delete'
p951
sS'order'
p952
F1524076907.265411
sS'objid'
p953
g4
(g17
S'&\x01\x00\x00\x00\x00\x00\x00'
p954
tp955
Rp956
sa(dp957
S'action'
p958
S'delete'
p959
sS'order'
p960
F1524076907.274839
sS'objid'
p961
g4
(g17
S'\x1b\x01\x00\x00\x00\x00\x00\x00'
p962
tp963
Rp964
sa(dp965
S'action'
p966
S'delete'
p967
sS'order'
p968
F1524076907.284307
sS'objid'
p969
g4
(g17
S'\xde\x00\x00\x00\x00\x00\x00\x00'
p970
tp971
Rp972
sa(dp973
S'action'
p974
S'delete'
p975
sS'order'
p976
F1524076907.293842
sS'objid'
p977
g4
(g17
S'\xdd\x00\x00\x00\x00\x00\x00\x00'
p978
tp979
Rp980
sa(dp981
S'action'
p982
S'delete'
p983
sS'order'
p984
F1524076907.303399
sS'objid'
p985
g4
(g17
S'\xdc\x00\x00\x00\x00\x00\x00\x00'
p986
tp987
Rp988
sa(dp989
S'action'
p990
S'delete'
p991
sS'order'
p992
F1524076907.313062
sS'objid'
p993
g4
(g17
S'\xdb\x00\x00\x00\x00\x00\x00\x00'
p994
tp995
Rp996
sa(dp997
S'action'
p998
S'delete'
p999
sS'order'
p1000
F1524076907.322746
sS'objid'
p1001
g4
(g17
S'\xda\x00\x00\x00\x00\x00\x00\x00'
p1002
tp1003
Rp1004
sa(dp1005
S'action'
p1006
S'delete'
p1007
sS'order'
p1008
F1524076907.332525
sS'objid'
p1009
g4
(g17
S'\xd9\x00\x00\x00\x00\x00\x00\x00'
p1010
tp1011
Rp1012
sa(dp1013
S'action'
p1014
S'delete'
p1015
sS'order'
p1016
F1524076907.342344
sS'objid'
p1017
g4
(g17
S'\xd8\x00\x00\x00\x00\x00\x00\x00'
p1018
tp1019
Rp1020
sa(dp1021
S'action'
p1022
S'delete'
p1023
sS'order'
p1024
F1524076907.352271
sS'objid'
p1025
g4
(g17
S'\xd7\x00\x00\x00\x00\x00\x00\x00'
p1026
tp1027
Rp1028
sa(dp1029
S'action'
p1030
S'delete'
p1031
sS'order'
p1032
F1524076907.362202
sS'objid'
p1033
g4
(g17
S'\xd6\x00\x00\x00\x00\x00\x00\x00'
p1034
tp1035
Rp1036
sa(dp1037
S'action'
p1038
S'delete'
p1039
sS'order'
p1040
F1524076907.37224
sS'objid'
p1041
g4
(g17
S'\xd5\x00\x00\x00\x00\x00\x00\x00'
p1042
tp1043
Rp1044
sa(dp1045
S'action'
p1046
S'delete'
p1047
sS'order'
p1048
F1524076907.382265
sS'objid'
p1049
g4
(g17
S'\xd4\x00\x00\x00\x00\x00\x00\x00'
p1050
tp1051
Rp1052
sa(dp1053
S'action'
p1054
S'delete'
p1055
sS'order'
p1056
F1524076907.392405
sS'objid'
p1057
g4
(g17
S'\xd3\x00\x00\x00\x00\x00\x00\x00'
p1058
tp1059
Rp1060
sa(dp1061
S'action'
p1062
S'delete'
p1063
sS'order'
p1064
F1524076907.402582
sS'objid'
p1065
g4
(g17
S'\xd2\x00\x00\x00\x00\x00\x00\x00'
p1066
tp1067
Rp1068
sa(dp1069
S'action'
p1070
S'delete'
p1071
sS'order'
p1072
F1524076907.412834
sS'objid'
p1073
g4
(g17
S'\xd0\x00\x00\x00\x00\x00\x00\x00'
p1074
tp1075
Rp1076
sa(dp1077
S'action'
p1078
S'delete'
p1079
sS'order'
p1080
F1524076907.423117
sS'objid'
p1081
g4
(g17
S'\xce\x00\x00\x00\x00\x00\x00\x00'
p1082
tp1083
Rp1084
sa(dp1085
S'action'
p1086
S'delete'
p1087
sS'order'
p1088
F1524076907.433528
sS'objid'
p1089
g4
(g17
S'\xcd\x00\x00\x00\x00\x00\x00\x00'
p1090
tp1091
Rp1092
sa(dp1093
S'action'
p1094
S'delete'
p1095
sS'order'
p1096
F1524076907.443948
sS'objid'
p1097
g4
(g17
S'\xcb\x00\x00\x00\x00\x00\x00\x00'
p1098
tp1099
Rp1100
sa(dp1101
S'action'
p1102
S'delete'
p1103
sS'order'
p1104
F1524076907.454428
sS'objid'
p1105
g4
(g17
S'\xca\x00\x00\x00\x00\x00\x00\x00'
p1106
tp1107
Rp1108
sa(dp1109
S'action'
p1110
S'delete'
p1111
sS'order'
p1112
F1524076907.46497
sS'objid'
p1113
g4
(g17
S'\xc8\x00\x00\x00\x00\x00\x00\x00'
p1114
tp1115
Rp1116
sa(dp1117
S'action'
p1118
S'delete'
p1119
sS'order'
p1120
F1524076907.475591
sS'objid'
p1121
g4
(g17
S'\xc7\x00\x00\x00\x00\x00\x00\x00'
p1122
tp1123
Rp1124
sa(dp1125
S'action'
p1126
S'delete'
p1127
sS'order'
p1128
F1524076907.486247
sS'objid'
p1129
g4
(g17
S'\xc5\x00\x00\x00\x00\x00\x00\x00'
p1130
tp1131
Rp1132
sa(dp1133
S'action'
p1134
S'delete'
p1135
sS'order'
p1136
F1524076907.496965
sS'objid'
p1137
g4
(g17
S'\xc4\x00\x00\x00\x00\x00\x00\x00'
p1138
tp1139
Rp1140
sa(dp1141
S'action'
p1142
S'delete'
p1143
sS'order'
p1144
F1524076907.507749
sS'objid'
p1145
g4
(g17
S'\xc3\x00\x00\x00\x00\x00\x00\x00'
p1146
tp1147
Rp1148
sa(dp1149
S'action'
p1150
S'delete'
p1151
sS'order'
p1152
F1524076907.518567
sS'objid'
p1153
g4
(g17
S'\xc2\x00\x00\x00\x00\x00\x00\x00'
p1154
tp1155
Rp1156
sa(dp1157
S'action'
p1158
S'delete'
p1159
sS'order'
p1160
F1524076907.529489
sS'objid'
p1161
g4
(g17
S'\xc1\x00\x00\x00\x00\x00\x00\x00'
p1162
tp1163
Rp1164
sa(dp1165
S'action'
p1166
S'delete'
p1167
sS'order'
p1168
F1524076907.540441
sS'objid'
p1169
g4
(g17
S'\xc0\x00\x00\x00\x00\x00\x00\x00'
p1170
tp1171
Rp1172
sa(dp1173
S'action'
p1174
S'delete'
p1175
sS'order'
p1176
F1524076907.551465
sS'objid'
p1177
g4
(g17
S'\xbf\x00\x00\x00\x00\x00\x00\x00'
p1178
tp1179
Rp1180
sa(dp1181
S'action'
p1182
S'delete'
p1183
sS'order'
p1184
F1524076907.562541
sS'objid'
p1185
g4
(g17
S'\xbe\x00\x00\x00\x00\x00\x00\x00'
p1186
tp1187
Rp1188
sa(dp1189
S'action'
p1190
S'delete'
p1191
sS'order'
p1192
F1524076907.573678
sS'objid'
p1193
g4
(g17
S'\xbd\x00\x00\x00\x00\x00\x00\x00'
p1194
tp1195
Rp1196
sa(dp1197
S'action'
p1198
S'delete'
p1199
sS'order'
p1200
F1524076907.584838
sS'objid'
p1201
g4
(g17
S'\xbc\x00\x00\x00\x00\x00\x00\x00'
p1202
tp1203
Rp1204
sa(dp1205
S'action'
p1206
S'delete'
p1207
sS'order'
p1208
F1524076907.596112
sS'objid'
p1209
g4
(g17
S'\xbb\x00\x00\x00\x00\x00\x00\x00'
p1210
tp1211
Rp1212
sa(dp1213
S'action'
p1214
S'delete'
p1215
sS'order'
p1216
F1524076907.607432
sS'objid'
p1217
g4
(g17
S'\xba\x00\x00\x00\x00\x00\x00\x00'
p1218
tp1219
Rp1220
sa(dp1221
S'action'
p1222
S'delete'
p1223
sS'order'
p1224
F1524076907.618774
sS'objid'
p1225
g4
(g17
S'\xb9\x00\x00\x00\x00\x00\x00\x00'
p1226
tp1227
Rp1228
sa(dp1229
S'action'
p1230
S'delete'
p1231
sS'order'
p1232
F1524076907.630235
sS'objid'
p1233
g4
(g17
S'\xb8\x00\x00\x00\x00\x00\x00\x00'
p1234
tp1235
Rp1236
sa(dp1237
S'action'
p1238
S'delete'
p1239
sS'order'
p1240
F1524076907.641748
sS'objid'
p1241
g4
(g17
S'\xb7\x00\x00\x00\x00\x00\x00\x00'
p1242
tp1243
Rp1244
sa(dp1245
S'action'
p1246
S'delete'
p1247
sS'order'
p1248
F1524076907.653306
sS'objid'
p1249
g4
(g17
S'\xb6\x00\x00\x00\x00\x00\x00\x00'
p1250
tp1251
Rp1252
sa(dp1253
S'action'
p1254
S'delete'
p1255
sS'order'
p1256
F1524076907.664939
sS'objid'
p1257
g4
(g17
S'\xb5\x00\x00\x00\x00\x00\x00\x00'
p1258
tp1259
Rp1260
sa(dp1261
S'action'
p1262
S'delete'
p1263
sS'order'
p1264
F1524076907.676635
sS'objid'
p1265
g4
(g17
S'\xb4\x00\x00\x00\x00\x00\x00\x00'
p1266
tp1267
Rp1268
sa(dp1269
S'action'
p1270
S'delete'
p1271
sS'order'
p1272
F1524076907.688345
sS'objid'
p1273
g4
(g17
S'\xb3\x00\x00\x00\x00\x00\x00\x00'
p1274
tp1275
Rp1276
sa(dp1277
S'action'
p1278
S'delete'
p1279
sS'order'
p1280
F1524076907.700165
sS'objid'
p1281
g4
(g17
S'\xb2\x00\x00\x00\x00\x00\x00\x00'
p1282
tp1283
Rp1284
sa(dp1285
S'action'
p1286
S'delete'
p1287
sS'order'
p1288
F1524076907.71198
sS'objid'
p1289
g4
(g17
S'\xb1\x00\x00\x00\x00\x00\x00\x00'
p1290
tp1291
Rp1292
sa(dp1293
S'action'
p1294
S'delete'
p1295
sS'order'
p1296
F1524076907.723865
sS'objid'
p1297
g4
(g17
S'\xb0\x00\x00\x00\x00\x00\x00\x00'
p1298
tp1299
Rp1300
sa(dp1301
S'action'
p1302
S'delete'
p1303
sS'order'
p1304
F1524076907.735916
sS'objid'
p1305
g4
(g17
S'\xaf\x00\x00\x00\x00\x00\x00\x00'
p1306
tp1307
Rp1308
sa(dp1309
S'action'
p1310
S'delete'
p1311
sS'order'
p1312
F1524076907.747922
sS'objid'
p1313
g4
(g17
S'\xae\x00\x00\x00\x00\x00\x00\x00'
p1314
tp1315
Rp1316
sa(dp1317
S'action'
p1318
S'delete'
p1319
sS'order'
p1320
F1524076907.759981
sS'objid'
p1321
g4
(g17
S'\xad\x00\x00\x00\x00\x00\x00\x00'
p1322
tp1323
Rp1324
sa(dp1325
S'action'
p1326
S'delete'
p1327
sS'order'
p1328
F1524076907.772118
sS'objid'
p1329
g4
(g17
S'\xac\x00\x00\x00\x00\x00\x00\x00'
p1330
tp1331
Rp1332
sa(dp1333
S'action'
p1334
S'delete'
p1335
sS'order'
p1336
F1524076907.784308
sS'objid'
p1337
g4
(g17
S'\xab\x00\x00\x00\x00\x00\x00\x00'
p1338
tp1339
Rp1340
sa(dp1341
S'action'
p1342
S'delete'
p1343
sS'order'
p1344
F1524076907.796578
sS'objid'
p1345
g4
(g17
S'\xaa\x00\x00\x00\x00\x00\x00\x00'
p1346
tp1347
Rp1348
sa(dp1349
S'action'
p1350
S'delete'
p1351
sS'order'
p1352
F1524076907.808893
sS'objid'
p1353
g4
(g17
S'\xa9\x00\x00\x00\x00\x00\x00\x00'
p1354
tp1355
Rp1356
sa(dp1357
S'action'
p1358
S'delete'
p1359
sS'order'
p1360
F1524076907.821266
sS'objid'
p1361
g4
(g17
S'\xa8\x00\x00\x00\x00\x00\x00\x00'
p1362
tp1363
Rp1364
sa(dp1365
S'action'
p1366
S'delete'
p1367
sS'order'
p1368
F1524076907.833716
sS'objid'
p1369
g4
(g17
S'\xa7\x00\x00\x00\x00\x00\x00\x00'
p1370
tp1371
Rp1372
sa(dp1373
S'action'
p1374
S'delete'
p1375
sS'order'
p1376
F1524076907.846303
sS'objid'
p1377
g4
(g17
S'\xa6\x00\x00\x00\x00\x00\x00\x00'
p1378
tp1379
Rp1380
sa(dp1381
S'action'
p1382
S'delete'
p1383
sS'order'
p1384
F1524076907.858917
sS'objid'
p1385
g4
(g17
S'\xa5\x00\x00\x00\x00\x00\x00\x00'
p1386
tp1387
Rp1388
sa(dp1389
S'action'
p1390
S'delete'
p1391
sS'order'
p1392
F1524076907.871606
sS'objid'
p1393
g4
(g17
S'\xa4\x00\x00\x00\x00\x00\x00\x00'
p1394
tp1395
Rp1396
sa(dp1397
S'action'
p1398
S'delete'
p1399
sS'order'
p1400
F1524076907.884349
sS'objid'
p1401
g4
(g17
S'\xa3\x00\x00\x00\x00\x00\x00\x00'
p1402
tp1403
Rp1404
sa(dp1405
S'action'
p1406
S'delete'
p1407
sS'order'
p1408
F1524076907.897177
sS'objid'
p1409
g4
(g17
S'\xa2\x00\x00\x00\x00\x00\x00\x00'
p1410
tp1411
Rp1412
sa(dp1413
S'action'
p1414
S'delete'
p1415
sS'order'
p1416
F1524076907.910058
sS'objid'
p1417
g4
(g17
S'\xa1\x00\x00\x00\x00\x00\x00\x00'
p1418
tp1419
Rp1420
sa(dp1421
S'action'
p1422
S'delete'
p1423
sS'order'
p1424
F1524076907.922995
sS'objid'
p1425
g4
(g17
S'\xa0\x00\x00\x00\x00\x00\x00\x00'
p1426
tp1427
Rp1428
sa(dp1429
S'action'
p1430
S'delete'
p1431
sS'order'
p1432
F1524076907.936017
sS'objid'
p1433
g4
(g17
S'\x9f\x00\x00\x00\x00\x00\x00\x00'
p1434
tp1435
Rp1436
sa(dp1437
S'action'
p1438
S'delete'
p1439
sS'order'
p1440
F1524076907.949046
sS'objid'
p1441
g4
(g17
S'\x9e\x00\x00\x00\x00\x00\x00\x00'
p1442
tp1443
Rp1444
sa(dp1445
S'action'
p1446
S'delete'
p1447
sS'order'
p1448
F1524076907.962199
sS'objid'
p1449
g4
(g17
S'\x9d\x00\x00\x00\x00\x00\x00\x00'
p1450
tp1451
Rp1452
sa(dp1453
S'action'
p1454
S'delete'
p1455
sS'order'
p1456
F1524076907.975326
sS'objid'
p1457
g4
(g17
S'\x9c\x00\x00\x00\x00\x00\x00\x00'
p1458
tp1459
Rp1460
sa(dp1461
S'action'
p1462
S'delete'
p1463
sS'order'
p1464
F1524076907.988564
sS'objid'
p1465
g4
(g17
S'\x9b\x00\x00\x00\x00\x00\x00\x00'
p1466
tp1467
Rp1468
sa(dp1469
S'action'
p1470
S'delete'
p1471
sS'order'
p1472
F1524076908.001853
sS'objid'
p1473
g4
(g17
S'\x9a\x00\x00\x00\x00\x00\x00\x00'
p1474
tp1475
Rp1476
sa(dp1477
S'action'
p1478
S'delete'
p1479
sS'order'
p1480
F1524076908.015196
sS'objid'
p1481
g4
(g17
S'\x99\x00\x00\x00\x00\x00\x00\x00'
p1482
tp1483
Rp1484
sa(dp1485
S'action'
p1486
S'delete'
p1487
sS'order'
p1488
F1524076908.028609
sS'objid'
p1489
g4
(g17
S'\x98\x00\x00\x00\x00\x00\x00\x00'
p1490
tp1491
Rp1492
sa(dp1493
S'action'
p1494
S'delete'
p1495
sS'order'
p1496
F1524076908.042083
sS'objid'
p1497
g4
(g17
S'\x97\x00\x00\x00\x00\x00\x00\x00'
p1498
tp1499
Rp1500
sa(dp1501
S'action'
p1502
S'delete'
p1503
sS'order'
p1504
F1524076908.055619
sS'objid'
p1505
g4
(g17
S'\x96\x00\x00\x00\x00\x00\x00\x00'
p1506
tp1507
Rp1508
sa(dp1509
S'action'
p1510
S'delete'
p1511
sS'order'
p1512
F1524076908.069191
sS'objid'
p1513
g4
(g17
S'\x95\x00\x00\x00\x00\x00\x00\x00'
p1514
tp1515
Rp1516
sa(dp1517
S'action'
p1518
S'delete'
p1519
sS'order'
p1520
F1524076908.082898
sS'objid'
p1521
g4
(g17
S'\x94\x00\x00\x00\x00\x00\x00\x00'
p1522
tp1523
Rp1524
sa(dp1525
S'action'
p1526
S'delete'
p1527
sS'order'
p1528
F1524076908.096659
sS'objid'
p1529
g4
(g17
S'\x93\x00\x00\x00\x00\x00\x00\x00'
p1530
tp1531
Rp1532
sa(dp1533
S'action'
p1534
S'delete'
p1535
sS'order'
p1536
F1524076908.110446
sS'objid'
p1537
g4
(g17
S'\x92\x00\x00\x00\x00\x00\x00\x00'
p1538
tp1539
Rp1540
sa(dp1541
S'action'
p1542
S'delete'
p1543
sS'order'
p1544
F1524076908.124263
sS'objid'
p1545
g4
(g17
S'\x91\x00\x00\x00\x00\x00\x00\x00'
p1546
tp1547
Rp1548
sa(dp1549
S'action'
p1550
S'delete'
p1551
sS'order'
p1552
F1524076908.138165
sS'objid'
p1553
g4
(g17
S'\x90\x00\x00\x00\x00\x00\x00\x00'
p1554
tp1555
Rp1556
sa(dp1557
S'action'
p1558
S'delete'
p1559
sS'order'
p1560
F1524076908.152107
sS'objid'
p1561
g4
(g17
S'\x8f\x00\x00\x00\x00\x00\x00\x00'
p1562
tp1563
Rp1564
sa(dp1565
S'action'
p1566
S'delete'
p1567
sS'order'
p1568
F1524076908.166146
sS'objid'
p1569
g4
(g17
S'\x8e\x00\x00\x00\x00\x00\x00\x00'
p1570
tp1571
Rp1572
sa(dp1573
S'action'
p1574
S'delete'
p1575
sS'order'
p1576
F1524076908.180202
sS'objid'
p1577
g4
(g17
S'\x8d\x00\x00\x00\x00\x00\x00\x00'
p1578
tp1579
Rp1580
sa(dp1581
S'action'
p1582
S'delete'
p1583
sS'order'
p1584
F1524076908.19428
sS'objid'
p1585
g4
(g17
S'\x8c\x00\x00\x00\x00\x00\x00\x00'
p1586
tp1587
Rp1588
sa(dp1589
S'action'
p1590
S'delete'
p1591
sS'order'
p1592
F1524076908.208458
sS'objid'
p1593
g4
(g17
S'\x8b\x00\x00\x00\x00\x00\x00\x00'
p1594
tp1595
Rp1596
sa(dp1597
S'action'
p1598
S'delete'
p1599
sS'order'
p1600
F1524076908.222676
sS'objid'
p1601
g4
(g17
S'\x8a\x00\x00\x00\x00\x00\x00\x00'
p1602
tp1603
Rp1604
sa(dp1605
S'action'
p1606
S'delete'
p1607
sS'order'
p1608
F1524076908.236962
sS'objid'
p1609
g4
(g17
S'\x89\x00\x00\x00\x00\x00\x00\x00'
p1610
tp1611
Rp1612
sa(dp1613
S'action'
p1614
S'delete'
p1615
sS'order'
p1616
F1524076908.251346
sS'objid'
p1617
g4
(g17
S'\x86\x00\x00\x00\x00\x00\x00\x00'
p1618
tp1619
Rp1620
sa(dp1621
S'action'
p1622
S'join'
p1623
sS'data_to_add'
p1624
(lp1625
sS'order'
p1626
F1524076940.859128
sS'new_objid'
p1627
g4
(g17
S'3\x01\x00\x00\x00\x00\x00\x00'
p1628
tp1629
Rp1630
sS'objids'
p1631
(lp1632
g4
(g17
S'2\x01\x00\x00\x00\x00\x00\x00'
p1633
tp1634
Rp1635
ag4
(g17
S'\x1f\x01\x00\x00\x00\x00\x00\x00'
p1636
tp1637
Rp1638
asa(dp1639
S'action'
p1640
S'delete'
p1641
sS'order'
p1642
F1524076951.087762
sS'objid'
p1643
g4
(g17
S'\x17\x01\x00\x00\x00\x00\x00\x00'
p1644
tp1645
Rp1646
sa(dp1647
S'action'
p1648
S'delete'
p1649
sS'order'
p1650
F1524076951.108475
sS'objid'
p1651
g4
(g17
S'\x14\x01\x00\x00\x00\x00\x00\x00'
p1652
tp1653
Rp1654
sa(dp1655
S'action'
p1656
S'delete'
p1657
sS'order'
p1658
F1524076951.124044
sS'objid'
p1659
g4
(g17
S'\x88\x00\x00\x00\x00\x00\x00\x00'
p1660
tp1661
Rp1662
sa(dp1663
S'action'
p1664
S'delete'
p1665
sS'order'
p1666
F1524076951.138854
sS'objid'
p1667
g4
(g17
S'\x87\x00\x00\x00\x00\x00\x00\x00'
p1668
tp1669
Rp1670
sa(dp1671
S'action'
p1672
S'delete'
p1673
sS'order'
p1674
F1524076951.15369
sS'objid'
p1675
g4
(g17
S'\x85\x00\x00\x00\x00\x00\x00\x00'
p1676
tp1677
Rp1678
sa(dp1679
S'action'
p1680
S'delete'
p1681
sS'order'
p1682
F1524076951.169952
sS'objid'
p1683
g4
(g17
S'\x84\x00\x00\x00\x00\x00\x00\x00'
p1684
tp1685
Rp1686
sa(dp1687
S'action'
p1688
S'delete'
p1689
sS'order'
p1690
F1524076951.184874
sS'objid'
p1691
g4
(g17
S'\x83\x00\x00\x00\x00\x00\x00\x00'
p1692
tp1693
Rp1694
sa(dp1695
S'action'
p1696
S'delete'
p1697
sS'order'
p1698
F1524076951.19988
sS'objid'
p1699
g4
(g17
S'\x82\x00\x00\x00\x00\x00\x00\x00'
p1700
tp1701
Rp1702
sa(dp1703
S'action'
p1704
S'delete'
p1705
sS'order'
p1706
F1524076951.214904
sS'objid'
p1707
g4
(g17
S'\x81\x00\x00\x00\x00\x00\x00\x00'
p1708
tp1709
Rp1710
sa(dp1711
S'action'
p1712
S'delete'
p1713
sS'order'
p1714
F1524076951.229964
sS'objid'
p1715
g4
(g17
S'\x80\x00\x00\x00\x00\x00\x00\x00'
p1716
tp1717
Rp1718
sa(dp1719
S'action'
p1720
S'delete'
p1721
sS'order'
p1722
F1524076951.245125
sS'objid'
p1723
g4
(g17
S'\x7f\x00\x00\x00\x00\x00\x00\x00'
p1724
tp1725
Rp1726
sa(dp1727
S'action'
p1728
S'delete'
p1729
sS'order'
p1730
F1524076951.260389
sS'objid'
p1731
g4
(g17
S'~\x00\x00\x00\x00\x00\x00\x00'
p1732
tp1733
Rp1734
sa(dp1735
S'action'
p1736
S'delete'
p1737
sS'order'
p1738
F1524076951.275656
sS'objid'
p1739
g4
(g17
S'}\x00\x00\x00\x00\x00\x00\x00'
p1740
tp1741
Rp1742
sa(dp1743
S'action'
p1744
S'delete'
p1745
sS'order'
p1746
F1524076951.290994
sS'objid'
p1747
g4
(g17
S'|\x00\x00\x00\x00\x00\x00\x00'
p1748
tp1749
Rp1750
sa(dp1751
S'action'
p1752
S'delete'
p1753
sS'order'
p1754
F1524076951.306687
sS'objid'
p1755
g4
(g17
S'{\x00\x00\x00\x00\x00\x00\x00'
p1756
tp1757
Rp1758
sa(dp1759
S'action'
p1760
S'delete'
p1761
sS'order'
p1762
F1524076951.322223
sS'objid'
p1763
g4
(g17
S'z\x00\x00\x00\x00\x00\x00\x00'
p1764
tp1765
Rp1766
sa(dp1767
S'action'
p1768
S'delete'
p1769
sS'order'
p1770
F1524076951.339114
sS'objid'
p1771
g4
(g17
S'y\x00\x00\x00\x00\x00\x00\x00'
p1772
tp1773
Rp1774
sa(dp1775
S'action'
p1776
S'delete'
p1777
sS'order'
p1778
F1524076951.354861
sS'objid'
p1779
g4
(g17
S'w\x00\x00\x00\x00\x00\x00\x00'
p1780
tp1781
Rp1782
sa(dp1783
S'action'
p1784
S'delete'
p1785
sS'order'
p1786
F1524076951.370547
sS'objid'
p1787
g4
(g17
S'v\x00\x00\x00\x00\x00\x00\x00'
p1788
tp1789
Rp1790
sa(dp1791
S'action'
p1792
S'delete'
p1793
sS'order'
p1794
F1524076951.386322
sS'objid'
p1795
g4
(g17
S'u\x00\x00\x00\x00\x00\x00\x00'
p1796
tp1797
Rp1798
sa(dp1799
S'action'
p1800
S'delete'
p1801
sS'order'
p1802
F1524076951.402072
sS'objid'
p1803
g4
(g17
S't\x00\x00\x00\x00\x00\x00\x00'
p1804
tp1805
Rp1806
sa(dp1807
S'action'
p1808
S'delete'
p1809
sS'order'
p1810
F1524076951.417835
sS'objid'
p1811
g4
(g17
S's\x00\x00\x00\x00\x00\x00\x00'
p1812
tp1813
Rp1814
sa(dp1815
S'action'
p1816
S'delete'
p1817
sS'order'
p1818
F1524076951.43382
sS'objid'
p1819
g4
(g17
S'r\x00\x00\x00\x00\x00\x00\x00'
p1820
tp1821
Rp1822
sa(dp1823
S'action'
p1824
S'delete'
p1825
sS'order'
p1826
F1524076951.449819
sS'objid'
p1827
g4
(g17
S'q\x00\x00\x00\x00\x00\x00\x00'
p1828
tp1829
Rp1830
sa(dp1831
S'action'
p1832
S'delete'
p1833
sS'order'
p1834
F1524076951.465862
sS'objid'
p1835
g4
(g17
S'p\x00\x00\x00\x00\x00\x00\x00'
p1836
tp1837
Rp1838
sa(dp1839
S'action'
p1840
S'delete'
p1841
sS'order'
p1842
F1524076951.481951
sS'objid'
p1843
g4
(g17
S'o\x00\x00\x00\x00\x00\x00\x00'
p1844
tp1845
Rp1846
sa(dp1847
S'action'
p1848
S'delete'
p1849
sS'order'
p1850
F1524076951.498162
sS'objid'
p1851
g4
(g17
S'n\x00\x00\x00\x00\x00\x00\x00'
p1852
tp1853
Rp1854
sa(dp1855
S'action'
p1856
S'delete'
p1857
sS'order'
p1858
F1524076951.51578
sS'objid'
p1859
g4
(g17
S'm\x00\x00\x00\x00\x00\x00\x00'
p1860
tp1861
Rp1862
sa(dp1863
S'action'
p1864
S'delete'
p1865
sS'order'
p1866
F1524076951.532063
sS'objid'
p1867
g4
(g17
S'W\x00\x00\x00\x00\x00\x00\x00'
p1868
tp1869
Rp1870
sa(dp1871
S'action'
p1872
S'delete'
p1873
sS'order'
p1874
F1524076960.679616
sS'objid'
p1875
g4
(g17
S'\x10\x01\x00\x00\x00\x00\x00\x00'
p1876
tp1877
Rp1878
sa(dp1879
S'action'
p1880
S'delete'
p1881
sS'order'
p1882
F1524076960.701677
sS'objid'
p1883
g4
(g17
S'\x0b\x01\x00\x00\x00\x00\x00\x00'
p1884
tp1885
Rp1886
sa(dp1887
S'action'
p1888
S'delete'
p1889
sS'order'
p1890
F1524076960.718223
sS'objid'
p1891
g4
(g17
S'\x04\x01\x00\x00\x00\x00\x00\x00'
p1892
tp1893
Rp1894
sa(dp1895
S'action'
p1896
S'delete'
p1897
sS'order'
p1898
F1524076960.734673
sS'objid'
p1899
g4
(g17
S'\x02\x01\x00\x00\x00\x00\x00\x00'
p1900
tp1901
Rp1902
sa(dp1903
S'action'
p1904
S'delete'
p1905
sS'order'
p1906
F1524076960.751081
sS'objid'
p1907
g4
(g17
S'\xf9\x00\x00\x00\x00\x00\x00\x00'
p1908
tp1909
Rp1910
sa(dp1911
S'action'
p1912
S'delete'
p1913
sS'order'
p1914
F1524076960.767614
sS'objid'
p1915
g4
(g17
S'\xf8\x00\x00\x00\x00\x00\x00\x00'
p1916
tp1917
Rp1918
sa(dp1919
S'action'
p1920
S'delete'
p1921
sS'order'
p1922
F1524076960.784133
sS'objid'
p1923
g4
(g17
S'k\x00\x00\x00\x00\x00\x00\x00'
p1924
tp1925
Rp1926
sa(dp1927
S'action'
p1928
S'delete'
p1929
sS'order'
p1930
F1524076960.800755
sS'objid'
p1931
g4
(g17
S'j\x00\x00\x00\x00\x00\x00\x00'
p1932
tp1933
Rp1934
sa(dp1935
S'action'
p1936
S'delete'
p1937
sS'order'
p1938
F1524076960.817426
sS'objid'
p1939
g4
(g17
S'i\x00\x00\x00\x00\x00\x00\x00'
p1940
tp1941
Rp1942
sa(dp1943
S'action'
p1944
S'delete'
p1945
sS'order'
p1946
F1524076960.834078
sS'objid'
p1947
g4
(g17
S'h\x00\x00\x00\x00\x00\x00\x00'
p1948
tp1949
Rp1950
sa(dp1951
S'action'
p1952
S'delete'
p1953
sS'order'
p1954
F1524076960.850886
sS'objid'
p1955
g4
(g17
S'g\x00\x00\x00\x00\x00\x00\x00'
p1956
tp1957
Rp1958
sa(dp1959
S'action'
p1960
S'delete'
p1961
sS'order'
p1962
F1524076960.867765
sS'objid'
p1963
g4
(g17
S'f\x00\x00\x00\x00\x00\x00\x00'
p1964
tp1965
Rp1966
sa(dp1967
S'action'
p1968
S'delete'
p1969
sS'order'
p1970
F1524076960.884671
sS'objid'
p1971
g4
(g17
S'e\x00\x00\x00\x00\x00\x00\x00'
p1972
tp1973
Rp1974
sa(dp1975
S'action'
p1976
S'delete'
p1977
sS'order'
p1978
F1524076960.901668
sS'objid'
p1979
g4
(g17
S'd\x00\x00\x00\x00\x00\x00\x00'
p1980
tp1981
Rp1982
sa(dp1983
S'action'
p1984
S'delete'
p1985
sS'order'
p1986
F1524076960.918671
sS'objid'
p1987
g4
(g17
S'c\x00\x00\x00\x00\x00\x00\x00'
p1988
tp1989
Rp1990
sa(dp1991
S'action'
p1992
S'delete'
p1993
sS'order'
p1994
F1524076960.935714
sS'objid'
p1995
g4
(g17
S'a\x00\x00\x00\x00\x00\x00\x00'
p1996
tp1997
Rp1998
sa(dp1999
S'action'
p2000
S'delete'
p2001
sS'order'
p2002
F1524076960.952775
sS'objid'
p2003
g4
(g17
S'`\x00\x00\x00\x00\x00\x00\x00'
p2004
tp2005
Rp2006
sa(dp2007
S'action'
p2008
S'delete'
p2009
sS'order'
p2010
F1524076960.969958
sS'objid'
p2011
g4
(g17
S'_\x00\x00\x00\x00\x00\x00\x00'
p2012
tp2013
Rp2014
sa(dp2015
S'action'
p2016
S'delete'
p2017
sS'order'
p2018
F1524076960.987234
sS'objid'
p2019
g4
(g17
S'^\x00\x00\x00\x00\x00\x00\x00'
p2020
tp2021
Rp2022
sa(dp2023
S'action'
p2024
S'delete'
p2025
sS'order'
p2026
F1524076961.004515
sS'objid'
p2027
g4
(g17
S']\x00\x00\x00\x00\x00\x00\x00'
p2028
tp2029
Rp2030
sa(dp2031
S'action'
p2032
S'delete'
p2033
sS'order'
p2034
F1524076961.021825
sS'objid'
p2035
g4
(g17
S'\\\x00\x00\x00\x00\x00\x00\x00'
p2036
tp2037
Rp2038
sa(dp2039
S'action'
p2040
S'delete'
p2041
sS'order'
p2042
F1524076961.039288
sS'objid'
p2043
g4
(g17
S'[\x00\x00\x00\x00\x00\x00\x00'
p2044
tp2045
Rp2046
sa(dp2047
S'action'
p2048
S'delete'
p2049
sS'order'
p2050
F1524076961.056769
sS'objid'
p2051
g4
(g17
S'Z\x00\x00\x00\x00\x00\x00\x00'
p2052
tp2053
Rp2054
sa(dp2055
S'action'
p2056
S'delete'
p2057
sS'order'
p2058
F1524076961.074336
sS'objid'
p2059
g4
(g17
S'Y\x00\x00\x00\x00\x00\x00\x00'
p2060
tp2061
Rp2062
sa(dp2063
S'action'
p2064
S'delete'
p2065
sS'order'
p2066
F1524076961.091942
sS'objid'
p2067
g4
(g17
S'X\x00\x00\x00\x00\x00\x00\x00'
p2068
tp2069
Rp2070
sa(dp2071
S'action'
p2072
S'delete'
p2073
sS'order'
p2074
F1524076961.109604
sS'objid'
p2075
g4
(g17
S'V\x00\x00\x00\x00\x00\x00\x00'
p2076
tp2077
Rp2078
sa(dp2079
S'action'
p2080
S'delete'
p2081
sS'order'
p2082
F1524076961.127343
sS'objid'
p2083
g4
(g17
S'U\x00\x00\x00\x00\x00\x00\x00'
p2084
tp2085
Rp2086
sa(dp2087
S'action'
p2088
S'delete'
p2089
sS'order'
p2090
F1524076961.145113
sS'objid'
p2091
g4
(g17
S'T\x00\x00\x00\x00\x00\x00\x00'
p2092
tp2093
Rp2094
sa(dp2095
S'action'
p2096
S'delete'
p2097
sS'order'
p2098
F1524076961.162991
sS'objid'
p2099
g4
(g17
S'S\x00\x00\x00\x00\x00\x00\x00'
p2100
tp2101
Rp2102
sa(dp2103
S'action'
p2104
S'delete'
p2105
sS'order'
p2106
F1524076961.180903
sS'objid'
p2107
g4
(g17
S'R\x00\x00\x00\x00\x00\x00\x00'
p2108
tp2109
Rp2110
sa(dp2111
S'action'
p2112
S'delete'
p2113
sS'order'
p2114
F1524076961.198847
sS'objid'
p2115
g4
(g17
S'Q\x00\x00\x00\x00\x00\x00\x00'
p2116
tp2117
Rp2118
sa(dp2119
S'action'
p2120
S'delete'
p2121
sS'order'
p2122
F1524076961.216832
sS'objid'
p2123
g4
(g17
S'P\x00\x00\x00\x00\x00\x00\x00'
p2124
tp2125
Rp2126
sa(dp2127
S'action'
p2128
S'delete'
p2129
sS'order'
p2130
F1524076961.234865
sS'objid'
p2131
g4
(g17
S'O\x00\x00\x00\x00\x00\x00\x00'
p2132
tp2133
Rp2134
sa(dp2135
S'action'
p2136
S'delete'
p2137
sS'order'
p2138
F1524076961.252971
sS'objid'
p2139
g4
(g17
S'N\x00\x00\x00\x00\x00\x00\x00'
p2140
tp2141
Rp2142
sa(dp2143
S'action'
p2144
S'delete'
p2145
sS'order'
p2146
F1524076961.27112
sS'objid'
p2147
g4
(g17
S'M\x00\x00\x00\x00\x00\x00\x00'
p2148
tp2149
Rp2150
sa(dp2151
S'action'
p2152
S'delete'
p2153
sS'order'
p2154
F1524076961.289522
sS'objid'
p2155
g4
(g17
S'L\x00\x00\x00\x00\x00\x00\x00'
p2156
tp2157
Rp2158
sa(dp2159
S'action'
p2160
S'delete'
p2161
sS'order'
p2162
F1524076961.307785
sS'objid'
p2163
g4
(g17
S'K\x00\x00\x00\x00\x00\x00\x00'
p2164
tp2165
Rp2166
sa(dp2167
S'action'
p2168
S'delete'
p2169
sS'order'
p2170
F1524076961.326196
sS'objid'
p2171
g4
(g17
S'J\x00\x00\x00\x00\x00\x00\x00'
p2172
tp2173
Rp2174
sa(dp2175
S'action'
p2176
S'delete'
p2177
sS'order'
p2178
F1524076961.344662
sS'objid'
p2179
g4
(g17
S'I\x00\x00\x00\x00\x00\x00\x00'
p2180
tp2181
Rp2182
sa(dp2183
S'action'
p2184
S'delete'
p2185
sS'order'
p2186
F1524076961.363437
sS'objid'
p2187
g4
(g17
S'H\x00\x00\x00\x00\x00\x00\x00'
p2188
tp2189
Rp2190
sa(dp2191
S'action'
p2192
S'delete'
p2193
sS'order'
p2194
F1524076961.38221
sS'objid'
p2195
g4
(g17
S'G\x00\x00\x00\x00\x00\x00\x00'
p2196
tp2197
Rp2198
sa(dp2199
S'action'
p2200
S'delete'
p2201
sS'order'
p2202
F1524076961.401164
sS'objid'
p2203
g4
(g17
S'F\x00\x00\x00\x00\x00\x00\x00'
p2204
tp2205
Rp2206
sa(dp2207
S'action'
p2208
S'delete'
p2209
sS'order'
p2210
F1524076961.420059
sS'objid'
p2211
g4
(g17
S'E\x00\x00\x00\x00\x00\x00\x00'
p2212
tp2213
Rp2214
sa(dp2215
S'action'
p2216
S'delete'
p2217
sS'order'
p2218
F1524076961.438958
sS'objid'
p2219
g4
(g17
S'D\x00\x00\x00\x00\x00\x00\x00'
p2220
tp2221
Rp2222
sa(dp2223
S'action'
p2224
S'delete'
p2225
sS'order'
p2226
F1524076961.458023
sS'objid'
p2227
g4
(g17
S'B\x00\x00\x00\x00\x00\x00\x00'
p2228
tp2229
Rp2230
sa(dp2231
S'action'
p2232
S'delete'
p2233
sS'order'
p2234
F1524076961.477061
sS'objid'
p2235
g4
(g17
S'A\x00\x00\x00\x00\x00\x00\x00'
p2236
tp2237
Rp2238
sa(dp2239
S'action'
p2240
S'delete'
p2241
sS'order'
p2242
F1524076961.496171
sS'objid'
p2243
g4
(g17
S'@\x00\x00\x00\x00\x00\x00\x00'
p2244
tp2245
Rp2246
sa(dp2247
S'action'
p2248
S'delete'
p2249
sS'order'
p2250
F1524076961.515266
sS'objid'
p2251
g4
(g17
S'?\x00\x00\x00\x00\x00\x00\x00'
p2252
tp2253
Rp2254
sa(dp2255
S'action'
p2256
S'delete'
p2257
sS'order'
p2258
F1524076961.534427
sS'objid'
p2259
g4
(g17
S'>\x00\x00\x00\x00\x00\x00\x00'
p2260
tp2261
Rp2262
sa(dp2263
S'action'
p2264
S'delete'
p2265
sS'order'
p2266
F1524076961.553679
sS'objid'
p2267
g4
(g17
S'<\x00\x00\x00\x00\x00\x00\x00'
p2268
tp2269
Rp2270
sa(dp2271
S'action'
p2272
S'delete'
p2273
sS'order'
p2274
F1524076961.572999
sS'objid'
p2275
g4
(g17
S';\x00\x00\x00\x00\x00\x00\x00'
p2276
tp2277
Rp2278
sa(dp2279
S'action'
p2280
S'delete'
p2281
sS'order'
p2282
F1524076961.592427
sS'objid'
p2283
g4
(g17
S':\x00\x00\x00\x00\x00\x00\x00'
p2284
tp2285
Rp2286
sa(dp2287
S'action'
p2288
S'delete'
p2289
sS'order'
p2290
F1524076961.61184
sS'objid'
p2291
g4
(g17
S'9\x00\x00\x00\x00\x00\x00\x00'
p2292
tp2293
Rp2294
sa(dp2295
S'action'
p2296
S'delete'
p2297
sS'order'
p2298
F1524076961.631391
sS'objid'
p2299
g4
(g17
S'8\x00\x00\x00\x00\x00\x00\x00'
p2300
tp2301
Rp2302
sa(dp2303
S'action'
p2304
S'delete'
p2305
sS'order'
p2306
F1524076961.651033
sS'objid'
p2307
g4
(g17
S'7\x00\x00\x00\x00\x00\x00\x00'
p2308
tp2309
Rp2310
sa(dp2311
S'action'
p2312
S'delete'
p2313
sS'order'
p2314
F1524076961.670623
sS'objid'
p2315
g4
(g17
S'6\x00\x00\x00\x00\x00\x00\x00'
p2316
tp2317
Rp2318
sa(dp2319
S'action'
p2320
S'delete'
p2321
sS'order'
p2322
F1524076970.495689
sS'objid'
p2323
g4
(g17
S'4\x00\x00\x00\x00\x00\x00\x00'
p2324
tp2325
Rp2326
sa(dp2327
S'action'
p2328
S'delete'
p2329
sS'order'
p2330
F1524076970.521044
sS'objid'
p2331
g4
(g17
S'2\x00\x00\x00\x00\x00\x00\x00'
p2332
tp2333
Rp2334
sa(dp2335
S'action'
p2336
S'delete'
p2337
sS'order'
p2338
F1524076970.541856
sS'objid'
p2339
g4
(g17
S'1\x00\x00\x00\x00\x00\x00\x00'
p2340
tp2341
Rp2342
sa(dp2343
S'action'
p2344
S'delete'
p2345
sS'order'
p2346
F1524076970.561773
sS'objid'
p2347
g4
(g17
S'0\x00\x00\x00\x00\x00\x00\x00'
p2348
tp2349
Rp2350
sa(dp2351
S'action'
p2352
S'delete'
p2353
sS'order'
p2354
F1524076970.581679
sS'objid'
p2355
g4
(g17
S'/\x00\x00\x00\x00\x00\x00\x00'
p2356
tp2357
Rp2358
sa(dp2359
S'action'
p2360
S'delete'
p2361
sS'order'
p2362
F1524076970.601688
sS'objid'
p2363
g4
(g17
S'.\x00\x00\x00\x00\x00\x00\x00'
p2364
tp2365
Rp2366
sa(dp2367
S'action'
p2368
S'delete'
p2369
sS'order'
p2370
F1524076970.621757
sS'objid'
p2371
g4
(g17
S'-\x00\x00\x00\x00\x00\x00\x00'
p2372
tp2373
Rp2374
sa(dp2375
S'action'
p2376
S'delete'
p2377
sS'order'
p2378
F1524076970.64199
sS'objid'
p2379
g4
(g17
S',\x00\x00\x00\x00\x00\x00\x00'
p2380
tp2381
Rp2382
sa(dp2383
S'action'
p2384
S'delete'
p2385
sS'order'
p2386
F1524076970.662216
sS'objid'
p2387
g4
(g17
S'+\x00\x00\x00\x00\x00\x00\x00'
p2388
tp2389
Rp2390
sa(dp2391
S'action'
p2392
S'delete'
p2393
sS'order'
p2394
F1524076970.68242
sS'objid'
p2395
g4
(g17
S'*\x00\x00\x00\x00\x00\x00\x00'
p2396
tp2397
Rp2398
sa(dp2399
S'action'
p2400
S'delete'
p2401
sS'order'
p2402
F1524076970.702729
sS'objid'
p2403
g4
(g17
S')\x00\x00\x00\x00\x00\x00\x00'
p2404
tp2405
Rp2406
sa(dp2407
S'action'
p2408
S'delete'
p2409
sS'order'
p2410
F1524076970.72313
sS'objid'
p2411
g4
(g17
S'(\x00\x00\x00\x00\x00\x00\x00'
p2412
tp2413
Rp2414
sa(dp2415
S'action'
p2416
S'delete'
p2417
sS'order'
p2418
F1524076970.743507
sS'objid'
p2419
g4
(g17
S"'\x00\x00\x00\x00\x00\x00\x00"
p2420
tp2421
Rp2422
sa(dp2423
S'action'
p2424
S'delete'
p2425
sS'order'
p2426
F1524076970.763942
sS'objid'
p2427
g4
(g17
S'&\x00\x00\x00\x00\x00\x00\x00'
p2428
tp2429
Rp2430
sa(dp2431
S'action'
p2432
S'delete'
p2433
sS'order'
p2434
F1524076970.784484
sS'objid'
p2435
g4
(g17
S'%\x00\x00\x00\x00\x00\x00\x00'
p2436
tp2437
Rp2438
sa(dp2439
S'action'
p2440
S'delete'
p2441
sS'order'
p2442
F1524076970.805041
sS'objid'
p2443
g4
(g17
S'$\x00\x00\x00\x00\x00\x00\x00'
p2444
tp2445
Rp2446
sa(dp2447
S'action'
p2448
S'delete'
p2449
sS'order'
p2450
F1524076970.825678
sS'objid'
p2451
g4
(g17
S'"\x00\x00\x00\x00\x00\x00\x00'
p2452
tp2453
Rp2454
sa(dp2455
S'action'
p2456
S'delete'
p2457
sS'order'
p2458
F1524076970.846354
sS'objid'
p2459
g4
(g17
S'!\x00\x00\x00\x00\x00\x00\x00'
p2460
tp2461
Rp2462
sa(dp2463
S'action'
p2464
S'delete'
p2465
sS'order'
p2466
F1524076970.867144
sS'objid'
p2467
g4
(g17
S' \x00\x00\x00\x00\x00\x00\x00'
p2468
tp2469
Rp2470
sa(dp2471
S'action'
p2472
S'delete'
p2473
sS'order'
p2474
F1524076970.887976
sS'objid'
p2475
g4
(g17
S'\x1f\x00\x00\x00\x00\x00\x00\x00'
p2476
tp2477
Rp2478
sa(dp2479
S'action'
p2480
S'delete'
p2481
sS'order'
p2482
F1524076970.908902
sS'objid'
p2483
g4
(g17
S'\x1e\x00\x00\x00\x00\x00\x00\x00'
p2484
tp2485
Rp2486
sa(dp2487
S'action'
p2488
S'delete'
p2489
sS'order'
p2490
F1524076970.929845
sS'objid'
p2491
g4
(g17
S'\x1d\x00\x00\x00\x00\x00\x00\x00'
p2492
tp2493
Rp2494
sa(dp2495
S'action'
p2496
S'delete'
p2497
sS'order'
p2498
F1524076970.950901
sS'objid'
p2499
g4
(g17
S'\x1c\x00\x00\x00\x00\x00\x00\x00'
p2500
tp2501
Rp2502
sa(dp2503
S'action'
p2504
S'delete'
p2505
sS'order'
p2506
F1524076970.971976
sS'objid'
p2507
g4
(g17
S'\x1b\x00\x00\x00\x00\x00\x00\x00'
p2508
tp2509
Rp2510
sa(dp2511
S'action'
p2512
S'delete'
p2513
sS'order'
p2514
F1524076970.993119
sS'objid'
p2515
g4
(g17
S'\x1a\x00\x00\x00\x00\x00\x00\x00'
p2516
tp2517
Rp2518
sa(dp2519
S'action'
p2520
S'delete'
p2521
sS'order'
p2522
F1524076971.014282
sS'objid'
p2523
g4
(g17
S'\x18\x00\x00\x00\x00\x00\x00\x00'
p2524
tp2525
Rp2526
sa(dp2527
S'action'
p2528
S'delete'
p2529
sS'order'
p2530
F1524076971.035544
sS'objid'
p2531
g4
(g17
S'\x17\x00\x00\x00\x00\x00\x00\x00'
p2532
tp2533
Rp2534
sa(dp2535
S'action'
p2536
S'delete'
p2537
sS'order'
p2538
F1524076971.056779
sS'objid'
p2539
g4
(g17
S'\x16\x00\x00\x00\x00\x00\x00\x00'
p2540
tp2541
Rp2542
sa(dp2543
S'action'
p2544
S'delete'
p2545
sS'order'
p2546
F1524076971.078182
sS'objid'
p2547
g4
(g17
S'\x15\x00\x00\x00\x00\x00\x00\x00'
p2548
tp2549
Rp2550
sa(dp2551
S'action'
p2552
S'delete'
p2553
sS'order'
p2554
F1524076971.099576
sS'objid'
p2555
g4
(g17
S'\x14\x00\x00\x00\x00\x00\x00\x00'
p2556
tp2557
Rp2558
sa(dp2559
S'action'
p2560
S'delete'
p2561
sS'order'
p2562
F1524076971.121019
sS'objid'
p2563
g4
(g17
S'\x12\x00\x00\x00\x00\x00\x00\x00'
p2564
tp2565
Rp2566
sa(dp2567
S'action'
p2568
S'delete'
p2569
sS'order'
p2570
F1524076971.142502
sS'objid'
p2571
g4
(g17
S'\x11\x00\x00\x00\x00\x00\x00\x00'
p2572
tp2573
Rp2574
sa(dp2575
S'action'
p2576
S'delete'
p2577
sS'order'
p2578
F1524076971.164229
sS'objid'
p2579
g4
(g17
S'\x10\x00\x00\x00\x00\x00\x00\x00'
p2580
tp2581
Rp2582
sa(dp2583
S'action'
p2584
S'delete'
p2585
sS'order'
p2586
F1524076971.185866
sS'objid'
p2587
g4
(g17
S'\x0f\x00\x00\x00\x00\x00\x00\x00'
p2588
tp2589
Rp2590
sa(dp2591
S'action'
p2592
S'delete'
p2593
sS'order'
p2594
F1524076971.207557
sS'objid'
p2595
g4
(g17
S'\x0e\x00\x00\x00\x00\x00\x00\x00'
p2596
tp2597
Rp2598
sa(dp2599
S'action'
p2600
S'delete'
p2601
sS'order'
p2602
F1524076971.229271
sS'objid'
p2603
g4
(g17
S'\r\x00\x00\x00\x00\x00\x00\x00'
p2604
tp2605
Rp2606
sa(dp2607
S'action'
p2608
S'delete'
p2609
sS'order'
p2610
F1524076971.251061
sS'objid'
p2611
g4
(g17
S'\x0c\x00\x00\x00\x00\x00\x00\x00'
p2612
tp2613
Rp2614
sa(dp2615
S'action'
p2616
S'delete'
p2617
sS'order'
p2618
F1524076971.273144
sS'objid'
p2619
g4
(g17
S'\x0b\x00\x00\x00\x00\x00\x00\x00'
p2620
tp2621
Rp2622
sa(dp2623
S'action'
p2624
S'delete'
p2625
sS'order'
p2626
F1524076971.29511
sS'objid'
p2627
g4
(g17
S'\n\x00\x00\x00\x00\x00\x00\x00'
p2628
tp2629
Rp2630
sa(dp2631
S'action'
p2632
S'delete'
p2633
sS'order'
p2634
F1524076971.317083
sS'objid'
p2635
g4
(g17
S'\t\x00\x00\x00\x00\x00\x00\x00'
p2636
tp2637
Rp2638
sa(dp2639
S'action'
p2640
S'delete'
p2641
sS'order'
p2642
F1524076971.339123
sS'objid'
p2643
g4
(g17
S'\x08\x00\x00\x00\x00\x00\x00\x00'
p2644
tp2645
Rp2646
sa(dp2647
S'action'
p2648
S'delete'
p2649
sS'order'
p2650
F1524076971.361236
sS'objid'
p2651
g4
(g17
S'\x07\x00\x00\x00\x00\x00\x00\x00'
p2652
tp2653
Rp2654
sa(dp2655
S'action'
p2656
S'delete'
p2657
sS'order'
p2658
F1524076971.383464
sS'objid'
p2659
g4
(g17
S'\x06\x00\x00\x00\x00\x00\x00\x00'
p2660
tp2661
Rp2662
sa(dp2663
S'action'
p2664
S'delete'
p2665
sS'order'
p2666
F1524076971.405721
sS'objid'
p2667
g4
(g17
S'\x05\x00\x00\x00\x00\x00\x00\x00'
p2668
tp2669
Rp2670
sa(dp2671
S'action'
p2672
S'delete'
p2673
sS'order'
p2674
F1524076971.428051
sS'objid'
p2675
g4
(g17
S'\x04\x00\x00\x00\x00\x00\x00\x00'
p2676
tp2677
Rp2678
sa(dp2679
S'action'
p2680
S'delete'
p2681
sS'order'
p2682
F1524076971.450421
sS'objid'
p2683
g4
(g17
S'\x03\x00\x00\x00\x00\x00\x00\x00'
p2684
tp2685
Rp2686
sa(dp2687
S'action'
p2688
S'delete'
p2689
sS'order'
p2690
F1524076976.680364
sS'objid'
p2691
g4
(g17
S'\xec\x00\x00\x00\x00\x00\x00\x00'
p2692
tp2693
Rp2694
sa(dp2695
S'action'
p2696
S'delete'
p2697
sS'order'
p2698
F1524076976.709508
sS'objid'
p2699
g4
(g17
S'\x02\x00\x00\x00\x00\x00\x00\x00'
p2700
tp2701
Rp2702
sa.