(lp0
(dp1
S'action'
p2
S'join'
p3
sS'data_to_add'
p4
(lp5
sS'order'
p6
F1523901424.35582
sS'new_objid'
p7
cnumpy.core.multiarray
scalar
p8
(cnumpy
dtype
p9
(S'i8'
p10
I0
I1
tp11
Rp12
(I3
S'<'
p13
NNNI-1
I-1
I0
tp14
bS'\x93\x00\x00\x00\x00\x00\x00\x00'
p15
tp16
Rp17
sS'objids'
p18
(lp19
g8
(g12
S'\x00\x00\x00\x00\x00\x00\x00\x00'
p20
tp21
Rp22
ag8
(g12
S'\x02\x00\x00\x00\x00\x00\x00\x00'
p23
tp24
Rp25
ag8
(g12
S'\x04\x00\x00\x00\x00\x00\x00\x00'
p26
tp27
Rp28
asa(dp29
S'action'
p30
S'join'
p31
sS'data_to_add'
p32
(lp33
sS'order'
p34
F1523901432.233091
sS'new_objid'
p35
g8
(g12
S'\x94\x00\x00\x00\x00\x00\x00\x00'
p36
tp37
Rp38
sS'objids'
p39
(lp40
g8
(g12
S'\x05\x00\x00\x00\x00\x00\x00\x00'
p41
tp42
Rp43
ag8
(g12
S'\x93\x00\x00\x00\x00\x00\x00\x00'
p44
tp45
Rp46
asa(dp47
S'action'
p48
S'join'
p49
sS'data_to_add'
p50
(lp51
sS'order'
p52
F1523901440.847137
sS'new_objid'
p53
g8
(g12
S'\x95\x00\x00\x00\x00\x00\x00\x00'
p54
tp55
Rp56
sS'objids'
p57
(lp58
g8
(g12
S'\r\x00\x00\x00\x00\x00\x00\x00'
p59
tp60
Rp61
ag8
(g12
S'\x94\x00\x00\x00\x00\x00\x00\x00'
p62
tp63
Rp64
asa(dp65
S'action'
p66
S'join'
p67
sS'data_to_add'
p68
(lp69
sS'order'
p70
F1523901448.753132
sS'new_objid'
p71
g8
(g12
S'\x96\x00\x00\x00\x00\x00\x00\x00'
p72
tp73
Rp74
sS'objids'
p75
(lp76
g8
(g12
S')\x00\x00\x00\x00\x00\x00\x00'
p77
tp78
Rp79
ag8
(g12
S'\x95\x00\x00\x00\x00\x00\x00\x00'
p80
tp81
Rp82
ag8
(g12
S'/\x00\x00\x00\x00\x00\x00\x00'
p83
tp84
Rp85
asa(dp86
S'cut_frame_global'
p87
I990
sS'cut_time_epoch'
p88
g8
(g9
(S'f8'
p89
I0
I1
tp90
Rp91
(I3
S'<'
p92
NNNI-1
I-1
I0
tp93
bS"\x03\xe8'\xd5f\xb4\xd6A"
p94
tp95
Rp96
sS'cut_frame_trajectory'
p97
g8
(g12
S'\x02\x00\x00\x00\x00\x00\x00\x00'
p98
tp99
Rp100
sS'objid'
p101
g8
(g12
S'?\x00\x00\x00\x00\x00\x00\x00'
p102
tp103
Rp104
sS'action'
p105
S'cut'
p106
sS'order'
p107
F1523901457.275006
sS'new_objid'
p108
g8
(g12
S'\x97\x00\x00\x00\x00\x00\x00\x00'
p109
tp110
Rp111
sa(dp112
S'action'
p113
S'join'
p114
sS'data_to_add'
p115
(lp116
sS'order'
p117
F1523901462.969658
sS'new_objid'
p118
g8
(g12
S'\x98\x00\x00\x00\x00\x00\x00\x00'
p119
tp120
Rp121
sS'objids'
p122
(lp123
g8
(g12
S'\x97\x00\x00\x00\x00\x00\x00\x00'
p124
tp125
Rp126
ag8
(g12
S'\x96\x00\x00\x00\x00\x00\x00\x00'
p127
tp128
Rp129
asa(dp130
S'cut_frame_global'
p131
I1141
sS'cut_time_epoch'
p132
g8
(g91
S'\xeeN\xee\xd8f\xb4\xd6A'
p133
tp134
Rp135
sS'cut_frame_trajectory'
p136
g8
(g12
S'\n\x00\x00\x00\x00\x00\x00\x00'
p137
tp138
Rp139
sS'objid'
p140
g8
(g12
S'T\x00\x00\x00\x00\x00\x00\x00'
p141
tp142
Rp143
sS'action'
p144
S'cut'
p145
sS'order'
p146
F1523901476.93132
sS'new_objid'
p147
g8
(g12
S'\x99\x00\x00\x00\x00\x00\x00\x00'
p148
tp149
Rp150
sa(dp151
S'action'
p152
S'join'
p153
sS'data_to_add'
p154
(lp155
sS'order'
p156
F1523901484.49038
sS'new_objid'
p157
g8
(g12
S'\x9a\x00\x00\x00\x00\x00\x00\x00'
p158
tp159
Rp160
sS'objids'
p161
(lp162
g8
(g12
S'\x99\x00\x00\x00\x00\x00\x00\x00'
p163
tp164
Rp165
ag8
(g12
S'\x98\x00\x00\x00\x00\x00\x00\x00'
p166
tp167
Rp168
ag8
(g12
S'S\x00\x00\x00\x00\x00\x00\x00'
p169
tp170
Rp171
ag8
(g12
S'P\x00\x00\x00\x00\x00\x00\x00'
p172
tp173
Rp174
asa(dp175
S'action'
p176
S'join'
p177
sS'data_to_add'
p178
(lp179
sS'order'
p180
F1523901491.922058
sS'new_objid'
p181
g8
(g12
S'\x9b\x00\x00\x00\x00\x00\x00\x00'
p182
tp183
Rp184
sS'objids'
p185
(lp186
g8
(g12
S'i\x00\x00\x00\x00\x00\x00\x00'
p187
tp188
Rp189
ag8
(g12
S'\x9a\x00\x00\x00\x00\x00\x00\x00'
p190
tp191
Rp192
ag8
(g12
S'l\x00\x00\x00\x00\x00\x00\x00'
p193
tp194
Rp195
asa(dp196
S'cut_frame_global'
p197
I1687
sS'cut_time_epoch'
p198
g8
(g91
S'C\xb5\x94\xe6f\xb4\xd6A'
p199
tp200
Rp201
sS'cut_frame_trajectory'
p202
g8
(g12
S'\x96\x06\x00\x00\x00\x00\x00\x00'
p203
tp204
Rp205
sS'objid'
p206
g8
(g12
S'\x9b\x00\x00\x00\x00\x00\x00\x00'
p207
tp208
Rp209
sS'action'
p210
S'cut'
p211
sS'order'
p212
F1523901518.348831
sS'new_objid'
p213
g8
(g12
S'\x9c\x00\x00\x00\x00\x00\x00\x00'
p214
tp215
Rp216
sa(dp217
S'action'
p218
S'join'
p219
sS'data_to_add'
p220
(lp221
sS'order'
p222
F1523901528.458616
sS'new_objid'
p223
g8
(g12
S'\x9d\x00\x00\x00\x00\x00\x00\x00'
p224
tp225
Rp226
sS'objids'
p227
(lp228
g8
(g12
S'\x85\x00\x00\x00\x00\x00\x00\x00'
p229
tp230
Rp231
ag8
(g12
S'\x84\x00\x00\x00\x00\x00\x00\x00'
p232
tp233
Rp234
ag8
(g12
S'\x9b\x00\x00\x00\x00\x00\x00\x00'
p235
tp236
Rp237
asa(dp238
S'action'
p239
S'join'
p240
sS'data_to_add'
p241
(lp242
sS'order'
p243
F1523901537.08339
sS'new_objid'
p244
g8
(g12
S'\x9e\x00\x00\x00\x00\x00\x00\x00'
p245
tp246
Rp247
sS'objids'
p248
(lp249
g8
(g12
S'\x87\x00\x00\x00\x00\x00\x00\x00'
p250
tp251
Rp252
ag8
(g12
S'\x9d\x00\x00\x00\x00\x00\x00\x00'
p253
tp254
Rp255
asa(dp256
S'action'
p257
S'delete'
p258
sS'order'
p259
F1523901552.97908
sS'objid'
p260
g8
(g12
S'\x9c\x00\x00\x00\x00\x00\x00\x00'
p261
tp262
Rp263
sa(dp264
S'action'
p265
S'delete'
p266
sS'order'
p267
F1523901552.982676
sS'objid'
p268
g8
(g12
S'\x88\x00\x00\x00\x00\x00\x00\x00'
p269
tp270
Rp271
sa(dp272
S'action'
p273
S'delete'
p274
sS'order'
p275
F1523901552.986964
sS'objid'
p276
g8
(g12
S'\x86\x00\x00\x00\x00\x00\x00\x00'
p277
tp278
Rp279
sa(dp280
S'action'
p281
S'delete'
p282
sS'order'
p283
F1523901552.989825
sS'objid'
p284
g8
(g12
S'\x83\x00\x00\x00\x00\x00\x00\x00'
p285
tp286
Rp287
sa(dp288
S'action'
p289
S'delete'
p290
sS'order'
p291
F1523901552.992656
sS'objid'
p292
g8
(g12
S'\x82\x00\x00\x00\x00\x00\x00\x00'
p293
tp294
Rp295
sa(dp296
S'action'
p297
S'delete'
p298
sS'order'
p299
F1523901552.995512
sS'objid'
p300
g8
(g12
S'\x81\x00\x00\x00\x00\x00\x00\x00'
p301
tp302
Rp303
sa(dp304
S'action'
p305
S'delete'
p306
sS'order'
p307
F1523901552.998988
sS'objid'
p308
g8
(g12
S'\x80\x00\x00\x00\x00\x00\x00\x00'
p309
tp310
Rp311
sa(dp312
S'action'
p313
S'delete'
p314
sS'order'
p315
F1523901553.002456
sS'objid'
p316
g8
(g12
S'\x7f\x00\x00\x00\x00\x00\x00\x00'
p317
tp318
Rp319
sa(dp320
S'action'
p321
S'delete'
p322
sS'order'
p323
F1523901553.005849
sS'objid'
p324
g8
(g12
S'~\x00\x00\x00\x00\x00\x00\x00'
p325
tp326
Rp327
sa(dp328
S'action'
p329
S'delete'
p330
sS'order'
p331
F1523901553.009282
sS'objid'
p332
g8
(g12
S'}\x00\x00\x00\x00\x00\x00\x00'
p333
tp334
Rp335
sa(dp336
S'action'
p337
S'delete'
p338
sS'order'
p339
F1523901553.012418
sS'objid'
p340
g8
(g12
S'|\x00\x00\x00\x00\x00\x00\x00'
p341
tp342
Rp343
sa(dp344
S'action'
p345
S'delete'
p346
sS'order'
p347
F1523901553.015617
sS'objid'
p348
g8
(g12
S'{\x00\x00\x00\x00\x00\x00\x00'
p349
tp350
Rp351
sa(dp352
S'action'
p353
S'delete'
p354
sS'order'
p355
F1523901553.019052
sS'objid'
p356
g8
(g12
S'z\x00\x00\x00\x00\x00\x00\x00'
p357
tp358
Rp359
sa(dp360
S'action'
p361
S'delete'
p362
sS'order'
p363
F1523901553.02241
sS'objid'
p364
g8
(g12
S'y\x00\x00\x00\x00\x00\x00\x00'
p365
tp366
Rp367
sa(dp368
S'action'
p369
S'delete'
p370
sS'order'
p371
F1523901553.025779
sS'objid'
p372
g8
(g12
S'x\x00\x00\x00\x00\x00\x00\x00'
p373
tp374
Rp375
sa(dp376
S'action'
p377
S'delete'
p378
sS'order'
p379
F1523901553.029211
sS'objid'
p380
g8
(g12
S'w\x00\x00\x00\x00\x00\x00\x00'
p381
tp382
Rp383
sa(dp384
S'action'
p385
S'delete'
p386
sS'order'
p387
F1523901553.032696
sS'objid'
p388
g8
(g12
S'v\x00\x00\x00\x00\x00\x00\x00'
p389
tp390
Rp391
sa(dp392
S'action'
p393
S'delete'
p394
sS'order'
p395
F1523901553.036242
sS'objid'
p396
g8
(g12
S'u\x00\x00\x00\x00\x00\x00\x00'
p397
tp398
Rp399
sa(dp400
S'action'
p401
S'delete'
p402
sS'order'
p403
F1523901553.039833
sS'objid'
p404
g8
(g12
S't\x00\x00\x00\x00\x00\x00\x00'
p405
tp406
Rp407
sa(dp408
S'action'
p409
S'delete'
p410
sS'order'
p411
F1523901553.043494
sS'objid'
p412
g8
(g12
S's\x00\x00\x00\x00\x00\x00\x00'
p413
tp414
Rp415
sa(dp416
S'action'
p417
S'delete'
p418
sS'order'
p419
F1523901553.047201
sS'objid'
p420
g8
(g12
S'r\x00\x00\x00\x00\x00\x00\x00'
p421
tp422
Rp423
sa(dp424
S'action'
p425
S'delete'
p426
sS'order'
p427
F1523901553.050955
sS'objid'
p428
g8
(g12
S'q\x00\x00\x00\x00\x00\x00\x00'
p429
tp430
Rp431
sa(dp432
S'action'
p433
S'delete'
p434
sS'order'
p435
F1523901553.054792
sS'objid'
p436
g8
(g12
S'p\x00\x00\x00\x00\x00\x00\x00'
p437
tp438
Rp439
sa(dp440
S'action'
p441
S'delete'
p442
sS'order'
p443
F1523901553.058672
sS'objid'
p444
g8
(g12
S'o\x00\x00\x00\x00\x00\x00\x00'
p445
tp446
Rp447
sa(dp448
S'action'
p449
S'delete'
p450
sS'order'
p451
F1523901553.062616
sS'objid'
p452
g8
(g12
S'n\x00\x00\x00\x00\x00\x00\x00'
p453
tp454
Rp455
sa(dp456
S'action'
p457
S'delete'
p458
sS'order'
p459
F1523901553.066652
sS'objid'
p460
g8
(g12
S'm\x00\x00\x00\x00\x00\x00\x00'
p461
tp462
Rp463
sa(dp464
S'action'
p465
S'delete'
p466
sS'order'
p467
F1523901553.070706
sS'objid'
p468
g8
(g12
S'k\x00\x00\x00\x00\x00\x00\x00'
p469
tp470
Rp471
sa(dp472
S'action'
p473
S'delete'
p474
sS'order'
p475
F1523901553.074829
sS'objid'
p476
g8
(g12
S'j\x00\x00\x00\x00\x00\x00\x00'
p477
tp478
Rp479
sa(dp480
S'action'
p481
S'delete'
p482
sS'order'
p483
F1523901553.079004
sS'objid'
p484
g8
(g12
S'h\x00\x00\x00\x00\x00\x00\x00'
p485
tp486
Rp487
sa(dp488
S'action'
p489
S'delete'
p490
sS'order'
p491
F1523901553.083226
sS'objid'
p492
g8
(g12
S'g\x00\x00\x00\x00\x00\x00\x00'
p493
tp494
Rp495
sa(dp496
S'action'
p497
S'delete'
p498
sS'order'
p499
F1523901553.08751
sS'objid'
p500
g8
(g12
S'f\x00\x00\x00\x00\x00\x00\x00'
p501
tp502
Rp503
sa(dp504
S'action'
p505
S'delete'
p506
sS'order'
p507
F1523901553.091847
sS'objid'
p508
g8
(g12
S'e\x00\x00\x00\x00\x00\x00\x00'
p509
tp510
Rp511
sa(dp512
S'action'
p513
S'delete'
p514
sS'order'
p515
F1523901553.096236
sS'objid'
p516
g8
(g12
S'd\x00\x00\x00\x00\x00\x00\x00'
p517
tp518
Rp519
sa(dp520
S'action'
p521
S'delete'
p522
sS'order'
p523
F1523901553.100685
sS'objid'
p524
g8
(g12
S'c\x00\x00\x00\x00\x00\x00\x00'
p525
tp526
Rp527
sa(dp528
S'action'
p529
S'delete'
p530
sS'order'
p531
F1523901553.10519
sS'objid'
p532
g8
(g12
S'b\x00\x00\x00\x00\x00\x00\x00'
p533
tp534
Rp535
sa(dp536
S'action'
p537
S'delete'
p538
sS'order'
p539
F1523901553.110466
sS'objid'
p540
g8
(g12
S'a\x00\x00\x00\x00\x00\x00\x00'
p541
tp542
Rp543
sa(dp544
S'action'
p545
S'delete'
p546
sS'order'
p547
F1523901553.1158
sS'objid'
p548
g8
(g12
S'`\x00\x00\x00\x00\x00\x00\x00'
p549
tp550
Rp551
sa(dp552
S'action'
p553
S'delete'
p554
sS'order'
p555
F1523901553.120859
sS'objid'
p556
g8
(g12
S'_\x00\x00\x00\x00\x00\x00\x00'
p557
tp558
Rp559
sa(dp560
S'action'
p561
S'delete'
p562
sS'order'
p563
F1523901553.125655
sS'objid'
p564
g8
(g12
S'^\x00\x00\x00\x00\x00\x00\x00'
p565
tp566
Rp567
sa(dp568
S'action'
p569
S'delete'
p570
sS'order'
p571
F1523901553.130442
sS'objid'
p572
g8
(g12
S']\x00\x00\x00\x00\x00\x00\x00'
p573
tp574
Rp575
sa(dp576
S'action'
p577
S'delete'
p578
sS'order'
p579
F1523901553.135304
sS'objid'
p580
g8
(g12
S'\\\x00\x00\x00\x00\x00\x00\x00'
p581
tp582
Rp583
sa(dp584
S'action'
p585
S'delete'
p586
sS'order'
p587
F1523901553.140204
sS'objid'
p588
g8
(g12
S'[\x00\x00\x00\x00\x00\x00\x00'
p589
tp590
Rp591
sa(dp592
S'action'
p593
S'delete'
p594
sS'order'
p595
F1523901553.145158
sS'objid'
p596
g8
(g12
S'Z\x00\x00\x00\x00\x00\x00\x00'
p597
tp598
Rp599
sa(dp600
S'action'
p601
S'delete'
p602
sS'order'
p603
F1523901553.15016
sS'objid'
p604
g8
(g12
S'Y\x00\x00\x00\x00\x00\x00\x00'
p605
tp606
Rp607
sa(dp608
S'action'
p609
S'delete'
p610
sS'order'
p611
F1523901553.15525
sS'objid'
p612
g8
(g12
S'X\x00\x00\x00\x00\x00\x00\x00'
p613
tp614
Rp615
sa(dp616
S'action'
p617
S'delete'
p618
sS'order'
p619
F1523901553.1604
sS'objid'
p620
g8
(g12
S'W\x00\x00\x00\x00\x00\x00\x00'
p621
tp622
Rp623
sa(dp624
S'action'
p625
S'delete'
p626
sS'order'
p627
F1523901553.165589
sS'objid'
p628
g8
(g12
S'V\x00\x00\x00\x00\x00\x00\x00'
p629
tp630
Rp631
sa(dp632
S'action'
p633
S'delete'
p634
sS'order'
p635
F1523901553.170831
sS'objid'
p636
g8
(g12
S'U\x00\x00\x00\x00\x00\x00\x00'
p637
tp638
Rp639
sa(dp640
S'action'
p641
S'delete'
p642
sS'order'
p643
F1523901553.176155
sS'objid'
p644
g8
(g12
S'T\x00\x00\x00\x00\x00\x00\x00'
p645
tp646
Rp647
sa(dp648
S'action'
p649
S'delete'
p650
sS'order'
p651
F1523901553.181515
sS'objid'
p652
g8
(g12
S'R\x00\x00\x00\x00\x00\x00\x00'
p653
tp654
Rp655
sa(dp656
S'action'
p657
S'delete'
p658
sS'order'
p659
F1523901553.186919
sS'objid'
p660
g8
(g12
S'Q\x00\x00\x00\x00\x00\x00\x00'
p661
tp662
Rp663
sa(dp664
S'action'
p665
S'delete'
p666
sS'order'
p667
F1523901553.192393
sS'objid'
p668
g8
(g12
S'O\x00\x00\x00\x00\x00\x00\x00'
p669
tp670
Rp671
sa(dp672
S'action'
p673
S'delete'
p674
sS'order'
p675
F1523901553.197921
sS'objid'
p676
g8
(g12
S'N\x00\x00\x00\x00\x00\x00\x00'
p677
tp678
Rp679
sa(dp680
S'action'
p681
S'delete'
p682
sS'order'
p683
F1523901553.203521
sS'objid'
p684
g8
(g12
S'M\x00\x00\x00\x00\x00\x00\x00'
p685
tp686
Rp687
sa(dp688
S'action'
p689
S'delete'
p690
sS'order'
p691
F1523901553.20917
sS'objid'
p692
g8
(g12
S'L\x00\x00\x00\x00\x00\x00\x00'
p693
tp694
Rp695
sa(dp696
S'action'
p697
S'delete'
p698
sS'order'
p699
F1523901553.216074
sS'objid'
p700
g8
(g12
S'K\x00\x00\x00\x00\x00\x00\x00'
p701
tp702
Rp703
sa(dp704
S'action'
p705
S'delete'
p706
sS'order'
p707
F1523901553.22237
sS'objid'
p708
g8
(g12
S'J\x00\x00\x00\x00\x00\x00\x00'
p709
tp710
Rp711
sa(dp712
S'action'
p713
S'delete'
p714
sS'order'
p715
F1523901553.228296
sS'objid'
p716
g8
(g12
S'I\x00\x00\x00\x00\x00\x00\x00'
p717
tp718
Rp719
sa(dp720
S'action'
p721
S'delete'
p722
sS'order'
p723
F1523901553.234183
sS'objid'
p724
g8
(g12
S'H\x00\x00\x00\x00\x00\x00\x00'
p725
tp726
Rp727
sa(dp728
S'action'
p729
S'delete'
p730
sS'order'
p731
F1523901553.24015
sS'objid'
p732
g8
(g12
S'G\x00\x00\x00\x00\x00\x00\x00'
p733
tp734
Rp735
sa(dp736
S'action'
p737
S'delete'
p738
sS'order'
p739
F1523901553.246137
sS'objid'
p740
g8
(g12
S'F\x00\x00\x00\x00\x00\x00\x00'
p741
tp742
Rp743
sa(dp744
S'action'
p745
S'delete'
p746
sS'order'
p747
F1523901553.252172
sS'objid'
p748
g8
(g12
S'E\x00\x00\x00\x00\x00\x00\x00'
p749
tp750
Rp751
sa(dp752
S'action'
p753
S'delete'
p754
sS'order'
p755
F1523901553.258289
sS'objid'
p756
g8
(g12
S'D\x00\x00\x00\x00\x00\x00\x00'
p757
tp758
Rp759
sa(dp760
S'action'
p761
S'delete'
p762
sS'order'
p763
F1523901553.264463
sS'objid'
p764
g8
(g12
S'C\x00\x00\x00\x00\x00\x00\x00'
p765
tp766
Rp767
sa(dp768
S'action'
p769
S'delete'
p770
sS'order'
p771
F1523901553.270676
sS'objid'
p772
g8
(g12
S'B\x00\x00\x00\x00\x00\x00\x00'
p773
tp774
Rp775
sa(dp776
S'action'
p777
S'delete'
p778
sS'order'
p779
F1523901553.276959
sS'objid'
p780
g8
(g12
S'A\x00\x00\x00\x00\x00\x00\x00'
p781
tp782
Rp783
sa(dp784
S'action'
p785
S'delete'
p786
sS'order'
p787
F1523901553.283285
sS'objid'
p788
g8
(g12
S'@\x00\x00\x00\x00\x00\x00\x00'
p789
tp790
Rp791
sa(dp792
S'action'
p793
S'delete'
p794
sS'order'
p795
F1523901553.289651
sS'objid'
p796
g8
(g12
S'?\x00\x00\x00\x00\x00\x00\x00'
p797
tp798
Rp799
sa(dp800
S'action'
p801
S'delete'
p802
sS'order'
p803
F1523901553.296084
sS'objid'
p804
g8
(g12
S'>\x00\x00\x00\x00\x00\x00\x00'
p805
tp806
Rp807
sa(dp808
S'action'
p809
S'delete'
p810
sS'order'
p811
F1523901553.302573
sS'objid'
p812
g8
(g12
S'=\x00\x00\x00\x00\x00\x00\x00'
p813
tp814
Rp815
sa(dp816
S'action'
p817
S'delete'
p818
sS'order'
p819
F1523901553.309125
sS'objid'
p820
g8
(g12
S'<\x00\x00\x00\x00\x00\x00\x00'
p821
tp822
Rp823
sa(dp824
S'action'
p825
S'delete'
p826
sS'order'
p827
F1523901553.31679
sS'objid'
p828
g8
(g12
S';\x00\x00\x00\x00\x00\x00\x00'
p829
tp830
Rp831
sa(dp832
S'action'
p833
S'delete'
p834
sS'order'
p835
F1523901553.324165
sS'objid'
p836
g8
(g12
S':\x00\x00\x00\x00\x00\x00\x00'
p837
tp838
Rp839
sa(dp840
S'action'
p841
S'delete'
p842
sS'order'
p843
F1523901553.330915
sS'objid'
p844
g8
(g12
S'9\x00\x00\x00\x00\x00\x00\x00'
p845
tp846
Rp847
sa(dp848
S'action'
p849
S'delete'
p850
sS'order'
p851
F1523901553.337687
sS'objid'
p852
g8
(g12
S'8\x00\x00\x00\x00\x00\x00\x00'
p853
tp854
Rp855
sa(dp856
S'action'
p857
S'delete'
p858
sS'order'
p859
F1523901553.344513
sS'objid'
p860
g8
(g12
S'7\x00\x00\x00\x00\x00\x00\x00'
p861
tp862
Rp863
sa(dp864
S'action'
p865
S'delete'
p866
sS'order'
p867
F1523901553.351395
sS'objid'
p868
g8
(g12
S'6\x00\x00\x00\x00\x00\x00\x00'
p869
tp870
Rp871
sa(dp872
S'action'
p873
S'delete'
p874
sS'order'
p875
F1523901553.358313
sS'objid'
p876
g8
(g12
S'5\x00\x00\x00\x00\x00\x00\x00'
p877
tp878
Rp879
sa(dp880
S'action'
p881
S'delete'
p882
sS'order'
p883
F1523901553.365338
sS'objid'
p884
g8
(g12
S'4\x00\x00\x00\x00\x00\x00\x00'
p885
tp886
Rp887
sa(dp888
S'action'
p889
S'delete'
p890
sS'order'
p891
F1523901553.372397
sS'objid'
p892
g8
(g12
S'3\x00\x00\x00\x00\x00\x00\x00'
p893
tp894
Rp895
sa(dp896
S'action'
p897
S'delete'
p898
sS'order'
p899
F1523901553.379505
sS'objid'
p900
g8
(g12
S'2\x00\x00\x00\x00\x00\x00\x00'
p901
tp902
Rp903
sa(dp904
S'action'
p905
S'delete'
p906
sS'order'
p907
F1523901553.386703
sS'objid'
p908
g8
(g12
S'1\x00\x00\x00\x00\x00\x00\x00'
p909
tp910
Rp911
sa(dp912
S'action'
p913
S'delete'
p914
sS'order'
p915
F1523901553.393941
sS'objid'
p916
g8
(g12
S'0\x00\x00\x00\x00\x00\x00\x00'
p917
tp918
Rp919
sa(dp920
S'action'
p921
S'delete'
p922
sS'order'
p923
F1523901553.40125
sS'objid'
p924
g8
(g12
S'.\x00\x00\x00\x00\x00\x00\x00'
p925
tp926
Rp927
sa(dp928
S'action'
p929
S'delete'
p930
sS'order'
p931
F1523901553.408661
sS'objid'
p932
g8
(g12
S'-\x00\x00\x00\x00\x00\x00\x00'
p933
tp934
Rp935
sa(dp936
S'action'
p937
S'delete'
p938
sS'order'
p939
F1523901553.416926
sS'objid'
p940
g8
(g12
S',\x00\x00\x00\x00\x00\x00\x00'
p941
tp942
Rp943
sa(dp944
S'action'
p945
S'delete'
p946
sS'order'
p947
F1523901553.425264
sS'objid'
p948
g8
(g12
S'+\x00\x00\x00\x00\x00\x00\x00'
p949
tp950
Rp951
sa(dp952
S'action'
p953
S'delete'
p954
sS'order'
p955
F1523901553.43286
sS'objid'
p956
g8
(g12
S'*\x00\x00\x00\x00\x00\x00\x00'
p957
tp958
Rp959
sa(dp960
S'action'
p961
S'delete'
p962
sS'order'
p963
F1523901553.440498
sS'objid'
p964
g8
(g12
S'(\x00\x00\x00\x00\x00\x00\x00'
p965
tp966
Rp967
sa(dp968
S'action'
p969
S'delete'
p970
sS'order'
p971
F1523901553.448158
sS'objid'
p972
g8
(g12
S"'\x00\x00\x00\x00\x00\x00\x00"
p973
tp974
Rp975
sa(dp976
S'action'
p977
S'delete'
p978
sS'order'
p979
F1523901553.455852
sS'objid'
p980
g8
(g12
S'&\x00\x00\x00\x00\x00\x00\x00'
p981
tp982
Rp983
sa(dp984
S'action'
p985
S'delete'
p986
sS'order'
p987
F1523901553.463607
sS'objid'
p988
g8
(g12
S'%\x00\x00\x00\x00\x00\x00\x00'
p989
tp990
Rp991
sa(dp992
S'action'
p993
S'delete'
p994
sS'order'
p995
F1523901560.21997
sS'objid'
p996
g8
(g12
S'$\x00\x00\x00\x00\x00\x00\x00'
p997
tp998
Rp999
sa(dp1000
S'action'
p1001
S'delete'
p1002
sS'order'
p1003
F1523901560.233823
sS'objid'
p1004
g8
(g12
S'#\x00\x00\x00\x00\x00\x00\x00'
p1005
tp1006
Rp1007
sa(dp1008
S'action'
p1009
S'delete'
p1010
sS'order'
p1011
F1523901560.24832
sS'objid'
p1012
g8
(g12
S'"\x00\x00\x00\x00\x00\x00\x00'
p1013
tp1014
Rp1015
sa(dp1016
S'action'
p1017
S'delete'
p1018
sS'order'
p1019
F1523901560.257988
sS'objid'
p1020
g8
(g12
S'!\x00\x00\x00\x00\x00\x00\x00'
p1021
tp1022
Rp1023
sa(dp1024
S'action'
p1025
S'delete'
p1026
sS'order'
p1027
F1523901560.266107
sS'objid'
p1028
g8
(g12
S' \x00\x00\x00\x00\x00\x00\x00'
p1029
tp1030
Rp1031
sa(dp1032
S'action'
p1033
S'delete'
p1034
sS'order'
p1035
F1523901560.274256
sS'objid'
p1036
g8
(g12
S'\x1f\x00\x00\x00\x00\x00\x00\x00'
p1037
tp1038
Rp1039
sa(dp1040
S'action'
p1041
S'delete'
p1042
sS'order'
p1043
F1523901560.282424
sS'objid'
p1044
g8
(g12
S'\x1e\x00\x00\x00\x00\x00\x00\x00'
p1045
tp1046
Rp1047
sa(dp1048
S'action'
p1049
S'delete'
p1050
sS'order'
p1051
F1523901560.29065
sS'objid'
p1052
g8
(g12
S'\x1d\x00\x00\x00\x00\x00\x00\x00'
p1053
tp1054
Rp1055
sa(dp1056
S'action'
p1057
S'delete'
p1058
sS'order'
p1059
F1523901560.29891
sS'objid'
p1060
g8
(g12
S'\x1c\x00\x00\x00\x00\x00\x00\x00'
p1061
tp1062
Rp1063
sa(dp1064
S'action'
p1065
S'delete'
p1066
sS'order'
p1067
F1523901560.307241
sS'objid'
p1068
g8
(g12
S'\x1b\x00\x00\x00\x00\x00\x00\x00'
p1069
tp1070
Rp1071
sa(dp1072
S'action'
p1073
S'delete'
p1074
sS'order'
p1075
F1523901560.315623
sS'objid'
p1076
g8
(g12
S'\x1a\x00\x00\x00\x00\x00\x00\x00'
p1077
tp1078
Rp1079
sa(dp1080
S'action'
p1081
S'delete'
p1082
sS'order'
p1083
F1523901560.324054
sS'objid'
p1084
g8
(g12
S'\x19\x00\x00\x00\x00\x00\x00\x00'
p1085
tp1086
Rp1087
sa(dp1088
S'action'
p1089
S'delete'
p1090
sS'order'
p1091
F1523901560.332557
sS'objid'
p1092
g8
(g12
S'\x18\x00\x00\x00\x00\x00\x00\x00'
p1093
tp1094
Rp1095
sa(dp1096
S'action'
p1097
S'delete'
p1098
sS'order'
p1099
F1523901560.341183
sS'objid'
p1100
g8
(g12
S'\x17\x00\x00\x00\x00\x00\x00\x00'
p1101
tp1102
Rp1103
sa(dp1104
S'action'
p1105
S'delete'
p1106
sS'order'
p1107
F1523901560.34984
sS'objid'
p1108
g8
(g12
S'\x16\x00\x00\x00\x00\x00\x00\x00'
p1109
tp1110
Rp1111
sa(dp1112
S'action'
p1113
S'delete'
p1114
sS'order'
p1115
F1523901560.358676
sS'objid'
p1116
g8
(g12
S'\x15\x00\x00\x00\x00\x00\x00\x00'
p1117
tp1118
Rp1119
sa(dp1120
S'action'
p1121
S'delete'
p1122
sS'order'
p1123
F1523901560.367482
sS'objid'
p1124
g8
(g12
S'\x14\x00\x00\x00\x00\x00\x00\x00'
p1125
tp1126
Rp1127
sa(dp1128
S'action'
p1129
S'delete'
p1130
sS'order'
p1131
F1523901560.37626
sS'objid'
p1132
g8
(g12
S'\x13\x00\x00\x00\x00\x00\x00\x00'
p1133
tp1134
Rp1135
sa(dp1136
S'action'
p1137
S'delete'
p1138
sS'order'
p1139
F1523901560.385104
sS'objid'
p1140
g8
(g12
S'\x12\x00\x00\x00\x00\x00\x00\x00'
p1141
tp1142
Rp1143
sa(dp1144
S'action'
p1145
S'delete'
p1146
sS'order'
p1147
F1523901560.394008
sS'objid'
p1148
g8
(g12
S'\x11\x00\x00\x00\x00\x00\x00\x00'
p1149
tp1150
Rp1151
sa(dp1152
S'action'
p1153
S'delete'
p1154
sS'order'
p1155
F1523901560.403035
sS'objid'
p1156
g8
(g12
S'\x10\x00\x00\x00\x00\x00\x00\x00'
p1157
tp1158
Rp1159
sa(dp1160
S'action'
p1161
S'delete'
p1162
sS'order'
p1163
F1523901560.412081
sS'objid'
p1164
g8
(g12
S'\x0f\x00\x00\x00\x00\x00\x00\x00'
p1165
tp1166
Rp1167
sa(dp1168
S'action'
p1169
S'delete'
p1170
sS'order'
p1171
F1523901560.421164
sS'objid'
p1172
g8
(g12
S'\x0e\x00\x00\x00\x00\x00\x00\x00'
p1173
tp1174
Rp1175
sa(dp1176
S'action'
p1177
S'delete'
p1178
sS'order'
p1179
F1523901560.430323
sS'objid'
p1180
g8
(g12
S'\x0c\x00\x00\x00\x00\x00\x00\x00'
p1181
tp1182
Rp1183
sa(dp1184
S'action'
p1185
S'delete'
p1186
sS'order'
p1187
F1523901560.439499
sS'objid'
p1188
g8
(g12
S'\x0b\x00\x00\x00\x00\x00\x00\x00'
p1189
tp1190
Rp1191
sa(dp1192
S'action'
p1193
S'delete'
p1194
sS'order'
p1195
F1523901560.44878
sS'objid'
p1196
g8
(g12
S'\n\x00\x00\x00\x00\x00\x00\x00'
p1197
tp1198
Rp1199
sa(dp1200
S'action'
p1201
S'delete'
p1202
sS'order'
p1203
F1523901560.45814
sS'objid'
p1204
g8
(g12
S'\t\x00\x00\x00\x00\x00\x00\x00'
p1205
tp1206
Rp1207
sa(dp1208
S'action'
p1209
S'delete'
p1210
sS'order'
p1211
F1523901560.467543
sS'objid'
p1212
g8
(g12
S'\x08\x00\x00\x00\x00\x00\x00\x00'
p1213
tp1214
Rp1215
sa(dp1216
S'action'
p1217
S'delete'
p1218
sS'order'
p1219
F1523901560.477007
sS'objid'
p1220
g8
(g12
S'\x07\x00\x00\x00\x00\x00\x00\x00'
p1221
tp1222
Rp1223
sa(dp1224
S'action'
p1225
S'delete'
p1226
sS'order'
p1227
F1523901560.486458
sS'objid'
p1228
g8
(g12
S'\x06\x00\x00\x00\x00\x00\x00\x00'
p1229
tp1230
Rp1231
sa(dp1232
S'action'
p1233
S'delete'
p1234
sS'order'
p1235
F1523901560.495978
sS'objid'
p1236
g8
(g12
S'\x03\x00\x00\x00\x00\x00\x00\x00'
p1237
tp1238
Rp1239
sa(dp1240
S'action'
p1241
S'delete'
p1242
sS'order'
p1243
F1523901564.867815
sS'objid'
p1244
g8
(g12
S'\x01\x00\x00\x00\x00\x00\x00\x00'
p1245
tp1246
Rp1247
sa.