(lp0
(dp1
S'action'
p2
S'join'
p3
sS'data_to_add'
p4
(lp5
sS'order'
p6
F1523920974.907338
sS'new_objid'
p7
cnumpy.core.multiarray
scalar
p8
(cnumpy
dtype
p9
(S'i8'
p10
I0
I1
tp11
Rp12
(I3
S'<'
p13
NNNI-1
I-1
I0
tp14
bS'\x0e\x01\x00\x00\x00\x00\x00\x00'
p15
tp16
Rp17
sS'objids'
p18
(lp19
g8
(g12
S'z\x00\x00\x00\x00\x00\x00\x00'
p20
tp21
Rp22
ag8
(g12
S'\x02\x00\x00\x00\x00\x00\x00\x00'
p23
tp24
Rp25
asa(dp26
S'action'
p27
S'join'
p28
sS'data_to_add'
p29
(lp30
sS'order'
p31
F1523920985.455404
sS'new_objid'
p32
g8
(g12
S'\x0f\x01\x00\x00\x00\x00\x00\x00'
p33
tp34
Rp35
sS'objids'
p36
(lp37
g8
(g12
S'\x0e\x01\x00\x00\x00\x00\x00\x00'
p38
tp39
Rp40
ag8
(g12
S'\xd8\x00\x00\x00\x00\x00\x00\x00'
p41
tp42
Rp43
asa(dp44
S'action'
p45
S'join'
p46
sS'data_to_add'
p47
(lp48
sS'order'
p49
F1523920997.191291
sS'new_objid'
p50
g8
(g12
S'\x10\x01\x00\x00\x00\x00\x00\x00'
p51
tp52
Rp53
sS'objids'
p54
(lp55
g8
(g12
S'\x0f\x01\x00\x00\x00\x00\x00\x00'
p56
tp57
Rp58
ag8
(g12
S'\xf8\x00\x00\x00\x00\x00\x00\x00'
p59
tp60
Rp61
ag8
(g12
S'\xf2\x00\x00\x00\x00\x00\x00\x00'
p62
tp63
Rp64
asa(dp65
S'action'
p66
S'delete'
p67
sS'order'
p68
F1523921020.714637
sS'objid'
p69
g8
(g12
S'\x03\x01\x00\x00\x00\x00\x00\x00'
p70
tp71
Rp72
sa(dp73
S'action'
p74
S'delete'
p75
sS'order'
p76
F1523921020.716683
sS'objid'
p77
g8
(g12
S'\x02\x01\x00\x00\x00\x00\x00\x00'
p78
tp79
Rp80
sa(dp81
S'action'
p82
S'delete'
p83
sS'order'
p84
F1523921020.718802
sS'objid'
p85
g8
(g12
S'\x01\x01\x00\x00\x00\x00\x00\x00'
p86
tp87
Rp88
sa(dp89
S'action'
p90
S'delete'
p91
sS'order'
p92
F1523921020.72093
sS'objid'
p93
g8
(g12
S'\x00\x01\x00\x00\x00\x00\x00\x00'
p94
tp95
Rp96
sa(dp97
S'action'
p98
S'delete'
p99
sS'order'
p100
F1523921020.723182
sS'objid'
p101
g8
(g12
S'\xff\x00\x00\x00\x00\x00\x00\x00'
p102
tp103
Rp104
sa(dp105
S'action'
p106
S'delete'
p107
sS'order'
p108
F1523921020.72463
sS'objid'
p109
g8
(g12
S'\xfe\x00\x00\x00\x00\x00\x00\x00'
p110
tp111
Rp112
sa(dp113
S'action'
p114
S'delete'
p115
sS'order'
p116
F1523921020.72608
sS'objid'
p117
g8
(g12
S'\xfd\x00\x00\x00\x00\x00\x00\x00'
p118
tp119
Rp120
sa(dp121
S'action'
p122
S'delete'
p123
sS'order'
p124
F1523921020.727678
sS'objid'
p125
g8
(g12
S'\xfc\x00\x00\x00\x00\x00\x00\x00'
p126
tp127
Rp128
sa(dp129
S'action'
p130
S'delete'
p131
sS'order'
p132
F1523921020.729234
sS'objid'
p133
g8
(g12
S'\xfb\x00\x00\x00\x00\x00\x00\x00'
p134
tp135
Rp136
sa(dp137
S'action'
p138
S'delete'
p139
sS'order'
p140
F1523921020.730849
sS'objid'
p141
g8
(g12
S'\xfa\x00\x00\x00\x00\x00\x00\x00'
p142
tp143
Rp144
sa(dp145
S'action'
p146
S'delete'
p147
sS'order'
p148
F1523921020.732543
sS'objid'
p149
g8
(g12
S'\xf9\x00\x00\x00\x00\x00\x00\x00'
p150
tp151
Rp152
sa(dp153
S'action'
p154
S'delete'
p155
sS'order'
p156
F1523921020.734453
sS'objid'
p157
g8
(g12
S'\xf7\x00\x00\x00\x00\x00\x00\x00'
p158
tp159
Rp160
sa(dp161
S'action'
p162
S'delete'
p163
sS'order'
p164
F1523921020.736246
sS'objid'
p165
g8
(g12
S'\xf6\x00\x00\x00\x00\x00\x00\x00'
p166
tp167
Rp168
sa(dp169
S'action'
p170
S'delete'
p171
sS'order'
p172
F1523921020.738083
sS'objid'
p173
g8
(g12
S'\xf5\x00\x00\x00\x00\x00\x00\x00'
p174
tp175
Rp176
sa(dp177
S'action'
p178
S'delete'
p179
sS'order'
p180
F1523921020.739992
sS'objid'
p181
g8
(g12
S'\xf4\x00\x00\x00\x00\x00\x00\x00'
p182
tp183
Rp184
sa(dp185
S'action'
p186
S'delete'
p187
sS'order'
p188
F1523921020.741993
sS'objid'
p189
g8
(g12
S'\xf3\x00\x00\x00\x00\x00\x00\x00'
p190
tp191
Rp192
sa(dp193
S'action'
p194
S'delete'
p195
sS'order'
p196
F1523921020.744019
sS'objid'
p197
g8
(g12
S'\xf1\x00\x00\x00\x00\x00\x00\x00'
p198
tp199
Rp200
sa(dp201
S'action'
p202
S'delete'
p203
sS'order'
p204
F1523921020.746086
sS'objid'
p205
g8
(g12
S'\xf0\x00\x00\x00\x00\x00\x00\x00'
p206
tp207
Rp208
sa(dp209
S'action'
p210
S'delete'
p211
sS'order'
p212
F1523921020.748215
sS'objid'
p213
g8
(g12
S'\xef\x00\x00\x00\x00\x00\x00\x00'
p214
tp215
Rp216
sa(dp217
S'action'
p218
S'delete'
p219
sS'order'
p220
F1523921020.750397
sS'objid'
p221
g8
(g12
S'\xee\x00\x00\x00\x00\x00\x00\x00'
p222
tp223
Rp224
sa(dp225
S'action'
p226
S'delete'
p227
sS'order'
p228
F1523921020.752692
sS'objid'
p229
g8
(g12
S'\xed\x00\x00\x00\x00\x00\x00\x00'
p230
tp231
Rp232
sa(dp233
S'action'
p234
S'delete'
p235
sS'order'
p236
F1523921020.755005
sS'objid'
p237
g8
(g12
S'\xec\x00\x00\x00\x00\x00\x00\x00'
p238
tp239
Rp240
sa(dp241
S'action'
p242
S'delete'
p243
sS'order'
p244
F1523921020.757383
sS'objid'
p245
g8
(g12
S'\xeb\x00\x00\x00\x00\x00\x00\x00'
p246
tp247
Rp248
sa(dp249
S'action'
p250
S'delete'
p251
sS'order'
p252
F1523921020.759811
sS'objid'
p253
g8
(g12
S'\xea\x00\x00\x00\x00\x00\x00\x00'
p254
tp255
Rp256
sa(dp257
S'action'
p258
S'delete'
p259
sS'order'
p260
F1523921020.762285
sS'objid'
p261
g8
(g12
S'\xe9\x00\x00\x00\x00\x00\x00\x00'
p262
tp263
Rp264
sa(dp265
S'action'
p266
S'delete'
p267
sS'order'
p268
F1523921020.764827
sS'objid'
p269
g8
(g12
S'\xe8\x00\x00\x00\x00\x00\x00\x00'
p270
tp271
Rp272
sa(dp273
S'action'
p274
S'delete'
p275
sS'order'
p276
F1523921020.767436
sS'objid'
p277
g8
(g12
S'\xe7\x00\x00\x00\x00\x00\x00\x00'
p278
tp279
Rp280
sa(dp281
S'action'
p282
S'delete'
p283
sS'order'
p284
F1523921020.770098
sS'objid'
p285
g8
(g12
S'\xe6\x00\x00\x00\x00\x00\x00\x00'
p286
tp287
Rp288
sa(dp289
S'action'
p290
S'delete'
p291
sS'order'
p292
F1523921020.772812
sS'objid'
p293
g8
(g12
S'\xe5\x00\x00\x00\x00\x00\x00\x00'
p294
tp295
Rp296
sa(dp297
S'action'
p298
S'delete'
p299
sS'order'
p300
F1523921020.77558
sS'objid'
p301
g8
(g12
S'\xe4\x00\x00\x00\x00\x00\x00\x00'
p302
tp303
Rp304
sa(dp305
S'action'
p306
S'delete'
p307
sS'order'
p308
F1523921020.778402
sS'objid'
p309
g8
(g12
S'\xe3\x00\x00\x00\x00\x00\x00\x00'
p310
tp311
Rp312
sa(dp313
S'action'
p314
S'delete'
p315
sS'order'
p316
F1523921020.781292
sS'objid'
p317
g8
(g12
S'\xe2\x00\x00\x00\x00\x00\x00\x00'
p318
tp319
Rp320
sa(dp321
S'action'
p322
S'delete'
p323
sS'order'
p324
F1523921020.784269
sS'objid'
p325
g8
(g12
S'\xe1\x00\x00\x00\x00\x00\x00\x00'
p326
tp327
Rp328
sa(dp329
S'action'
p330
S'delete'
p331
sS'order'
p332
F1523921020.787264
sS'objid'
p333
g8
(g12
S'\xe0\x00\x00\x00\x00\x00\x00\x00'
p334
tp335
Rp336
sa(dp337
S'action'
p338
S'delete'
p339
sS'order'
p340
F1523921020.790315
sS'objid'
p341
g8
(g12
S'\xdf\x00\x00\x00\x00\x00\x00\x00'
p342
tp343
Rp344
sa(dp345
S'action'
p346
S'delete'
p347
sS'order'
p348
F1523921020.793447
sS'objid'
p349
g8
(g12
S'\xde\x00\x00\x00\x00\x00\x00\x00'
p350
tp351
Rp352
sa(dp353
S'action'
p354
S'delete'
p355
sS'order'
p356
F1523921020.796649
sS'objid'
p357
g8
(g12
S'\xdd\x00\x00\x00\x00\x00\x00\x00'
p358
tp359
Rp360
sa(dp361
S'action'
p362
S'delete'
p363
sS'order'
p364
F1523921020.799902
sS'objid'
p365
g8
(g12
S'\xdc\x00\x00\x00\x00\x00\x00\x00'
p366
tp367
Rp368
sa(dp369
S'action'
p370
S'delete'
p371
sS'order'
p372
F1523921020.803204
sS'objid'
p373
g8
(g12
S'\xdb\x00\x00\x00\x00\x00\x00\x00'
p374
tp375
Rp376
sa(dp377
S'action'
p378
S'delete'
p379
sS'order'
p380
F1523921020.806574
sS'objid'
p381
g8
(g12
S'\xda\x00\x00\x00\x00\x00\x00\x00'
p382
tp383
Rp384
sa(dp385
S'action'
p386
S'delete'
p387
sS'order'
p388
F1523921020.809993
sS'objid'
p389
g8
(g12
S'\xd9\x00\x00\x00\x00\x00\x00\x00'
p390
tp391
Rp392
sa(dp393
S'action'
p394
S'delete'
p395
sS'order'
p396
F1523921020.813473
sS'objid'
p397
g8
(g12
S'\xd7\x00\x00\x00\x00\x00\x00\x00'
p398
tp399
Rp400
sa(dp401
S'action'
p402
S'delete'
p403
sS'order'
p404
F1523921020.817013
sS'objid'
p405
g8
(g12
S'\xd6\x00\x00\x00\x00\x00\x00\x00'
p406
tp407
Rp408
sa(dp409
S'action'
p410
S'delete'
p411
sS'order'
p412
F1523921020.820667
sS'objid'
p413
g8
(g12
S'\xd5\x00\x00\x00\x00\x00\x00\x00'
p414
tp415
Rp416
sa(dp417
S'action'
p418
S'delete'
p419
sS'order'
p420
F1523921020.824347
sS'objid'
p421
g8
(g12
S'\xd4\x00\x00\x00\x00\x00\x00\x00'
p422
tp423
Rp424
sa(dp425
S'action'
p426
S'delete'
p427
sS'order'
p428
F1523921020.828081
sS'objid'
p429
g8
(g12
S'\xd3\x00\x00\x00\x00\x00\x00\x00'
p430
tp431
Rp432
sa(dp433
S'action'
p434
S'delete'
p435
sS'order'
p436
F1523921020.831878
sS'objid'
p437
g8
(g12
S'\xd2\x00\x00\x00\x00\x00\x00\x00'
p438
tp439
Rp440
sa(dp441
S'action'
p442
S'delete'
p443
sS'order'
p444
F1523921020.835729
sS'objid'
p445
g8
(g12
S'\xd1\x00\x00\x00\x00\x00\x00\x00'
p446
tp447
Rp448
sa(dp449
S'action'
p450
S'delete'
p451
sS'order'
p452
F1523921020.839639
sS'objid'
p453
g8
(g12
S'\xd0\x00\x00\x00\x00\x00\x00\x00'
p454
tp455
Rp456
sa(dp457
S'action'
p458
S'delete'
p459
sS'order'
p460
F1523921020.843581
sS'objid'
p461
g8
(g12
S'\xcf\x00\x00\x00\x00\x00\x00\x00'
p462
tp463
Rp464
sa(dp465
S'action'
p466
S'delete'
p467
sS'order'
p468
F1523921020.847582
sS'objid'
p469
g8
(g12
S'\xce\x00\x00\x00\x00\x00\x00\x00'
p470
tp471
Rp472
sa(dp473
S'action'
p474
S'delete'
p475
sS'order'
p476
F1523921020.851653
sS'objid'
p477
g8
(g12
S'\xcd\x00\x00\x00\x00\x00\x00\x00'
p478
tp479
Rp480
sa(dp481
S'action'
p482
S'delete'
p483
sS'order'
p484
F1523921020.855763
sS'objid'
p485
g8
(g12
S'\xcc\x00\x00\x00\x00\x00\x00\x00'
p486
tp487
Rp488
sa(dp489
S'action'
p490
S'delete'
p491
sS'order'
p492
F1523921020.859929
sS'objid'
p493
g8
(g12
S'\xcb\x00\x00\x00\x00\x00\x00\x00'
p494
tp495
Rp496
sa(dp497
S'action'
p498
S'delete'
p499
sS'order'
p500
F1523921020.86416
sS'objid'
p501
g8
(g12
S'\xca\x00\x00\x00\x00\x00\x00\x00'
p502
tp503
Rp504
sa(dp505
S'action'
p506
S'delete'
p507
sS'order'
p508
F1523921020.868457
sS'objid'
p509
g8
(g12
S'\xc9\x00\x00\x00\x00\x00\x00\x00'
p510
tp511
Rp512
sa(dp513
S'action'
p514
S'delete'
p515
sS'order'
p516
F1523921020.872805
sS'objid'
p517
g8
(g12
S'\xc8\x00\x00\x00\x00\x00\x00\x00'
p518
tp519
Rp520
sa(dp521
S'action'
p522
S'delete'
p523
sS'order'
p524
F1523921020.877205
sS'objid'
p525
g8
(g12
S'\xc7\x00\x00\x00\x00\x00\x00\x00'
p526
tp527
Rp528
sa(dp529
S'action'
p530
S'delete'
p531
sS'order'
p532
F1523921020.881681
sS'objid'
p533
g8
(g12
S'\xc6\x00\x00\x00\x00\x00\x00\x00'
p534
tp535
Rp536
sa(dp537
S'action'
p538
S'delete'
p539
sS'order'
p540
F1523921020.886205
sS'objid'
p541
g8
(g12
S'\xc5\x00\x00\x00\x00\x00\x00\x00'
p542
tp543
Rp544
sa(dp545
S'action'
p546
S'delete'
p547
sS'order'
p548
F1523921020.890789
sS'objid'
p549
g8
(g12
S'\xc4\x00\x00\x00\x00\x00\x00\x00'
p550
tp551
Rp552
sa(dp553
S'action'
p554
S'delete'
p555
sS'order'
p556
F1523921020.89543
sS'objid'
p557
g8
(g12
S'\xc3\x00\x00\x00\x00\x00\x00\x00'
p558
tp559
Rp560
sa(dp561
S'action'
p562
S'delete'
p563
sS'order'
p564
F1523921020.900151
sS'objid'
p565
g8
(g12
S'\xc2\x00\x00\x00\x00\x00\x00\x00'
p566
tp567
Rp568
sa(dp569
S'action'
p570
S'delete'
p571
sS'order'
p572
F1523921020.904919
sS'objid'
p573
g8
(g12
S'\xc1\x00\x00\x00\x00\x00\x00\x00'
p574
tp575
Rp576
sa(dp577
S'action'
p578
S'delete'
p579
sS'order'
p580
F1523921020.90972
sS'objid'
p581
g8
(g12
S'\xc0\x00\x00\x00\x00\x00\x00\x00'
p582
tp583
Rp584
sa(dp585
S'action'
p586
S'delete'
p587
sS'order'
p588
F1523921020.914604
sS'objid'
p589
g8
(g12
S'\xbf\x00\x00\x00\x00\x00\x00\x00'
p590
tp591
Rp592
sa(dp593
S'action'
p594
S'delete'
p595
sS'order'
p596
F1523921020.919556
sS'objid'
p597
g8
(g12
S'\xbe\x00\x00\x00\x00\x00\x00\x00'
p598
tp599
Rp600
sa(dp601
S'action'
p602
S'delete'
p603
sS'order'
p604
F1523921020.924611
sS'objid'
p605
g8
(g12
S'\xbd\x00\x00\x00\x00\x00\x00\x00'
p606
tp607
Rp608
sa(dp609
S'action'
p610
S'delete'
p611
sS'order'
p612
F1523921020.929694
sS'objid'
p613
g8
(g12
S'\xbc\x00\x00\x00\x00\x00\x00\x00'
p614
tp615
Rp616
sa(dp617
S'action'
p618
S'delete'
p619
sS'order'
p620
F1523921020.934838
sS'objid'
p621
g8
(g12
S'\xbb\x00\x00\x00\x00\x00\x00\x00'
p622
tp623
Rp624
sa(dp625
S'action'
p626
S'delete'
p627
sS'order'
p628
F1523921020.940042
sS'objid'
p629
g8
(g12
S'\xba\x00\x00\x00\x00\x00\x00\x00'
p630
tp631
Rp632
sa(dp633
S'action'
p634
S'delete'
p635
sS'order'
p636
F1523921020.945281
sS'objid'
p637
g8
(g12
S'\xb9\x00\x00\x00\x00\x00\x00\x00'
p638
tp639
Rp640
sa(dp641
S'action'
p642
S'delete'
p643
sS'order'
p644
F1523921020.950576
sS'objid'
p645
g8
(g12
S'\xb8\x00\x00\x00\x00\x00\x00\x00'
p646
tp647
Rp648
sa(dp649
S'action'
p650
S'delete'
p651
sS'order'
p652
F1523921020.95595
sS'objid'
p653
g8
(g12
S'\xb7\x00\x00\x00\x00\x00\x00\x00'
p654
tp655
Rp656
sa(dp657
S'action'
p658
S'delete'
p659
sS'order'
p660
F1523921020.961351
sS'objid'
p661
g8
(g12
S'\xb6\x00\x00\x00\x00\x00\x00\x00'
p662
tp663
Rp664
sa(dp665
S'action'
p666
S'delete'
p667
sS'order'
p668
F1523921020.96683
sS'objid'
p669
g8
(g12
S'\xb5\x00\x00\x00\x00\x00\x00\x00'
p670
tp671
Rp672
sa(dp673
S'action'
p674
S'delete'
p675
sS'order'
p676
F1523921020.972346
sS'objid'
p677
g8
(g12
S'\xb4\x00\x00\x00\x00\x00\x00\x00'
p678
tp679
Rp680
sa(dp681
S'action'
p682
S'delete'
p683
sS'order'
p684
F1523921020.977917
sS'objid'
p685
g8
(g12
S'\xb3\x00\x00\x00\x00\x00\x00\x00'
p686
tp687
Rp688
sa(dp689
S'action'
p690
S'delete'
p691
sS'order'
p692
F1523921020.983552
sS'objid'
p693
g8
(g12
S'\xb2\x00\x00\x00\x00\x00\x00\x00'
p694
tp695
Rp696
sa(dp697
S'action'
p698
S'delete'
p699
sS'order'
p700
F1523921020.989214
sS'objid'
p701
g8
(g12
S'\xb1\x00\x00\x00\x00\x00\x00\x00'
p702
tp703
Rp704
sa(dp705
S'action'
p706
S'delete'
p707
sS'order'
p708
F1523921034.952056
sS'objid'
p709
g8
(g12
S'\xb0\x00\x00\x00\x00\x00\x00\x00'
p710
tp711
Rp712
sa(dp713
S'action'
p714
S'delete'
p715
sS'order'
p716
F1523921034.96097
sS'objid'
p717
g8
(g12
S'\xaf\x00\x00\x00\x00\x00\x00\x00'
p718
tp719
Rp720
sa(dp721
S'action'
p722
S'delete'
p723
sS'order'
p724
F1523921034.969907
sS'objid'
p725
g8
(g12
S'\xae\x00\x00\x00\x00\x00\x00\x00'
p726
tp727
Rp728
sa(dp729
S'action'
p730
S'delete'
p731
sS'order'
p732
F1523921034.975961
sS'objid'
p733
g8
(g12
S'\xad\x00\x00\x00\x00\x00\x00\x00'
p734
tp735
Rp736
sa(dp737
S'action'
p738
S'delete'
p739
sS'order'
p740
F1523921034.982002
sS'objid'
p741
g8
(g12
S'\xac\x00\x00\x00\x00\x00\x00\x00'
p742
tp743
Rp744
sa(dp745
S'action'
p746
S'delete'
p747
sS'order'
p748
F1523921034.988245
sS'objid'
p749
g8
(g12
S'\xab\x00\x00\x00\x00\x00\x00\x00'
p750
tp751
Rp752
sa(dp753
S'action'
p754
S'delete'
p755
sS'order'
p756
F1523921034.99434
sS'objid'
p757
g8
(g12
S'\xaa\x00\x00\x00\x00\x00\x00\x00'
p758
tp759
Rp760
sa(dp761
S'action'
p762
S'delete'
p763
sS'order'
p764
F1523921035.000478
sS'objid'
p765
g8
(g12
S'\xa9\x00\x00\x00\x00\x00\x00\x00'
p766
tp767
Rp768
sa(dp769
S'action'
p770
S'delete'
p771
sS'order'
p772
F1523921035.006641
sS'objid'
p773
g8
(g12
S'\xa8\x00\x00\x00\x00\x00\x00\x00'
p774
tp775
Rp776
sa(dp777
S'action'
p778
S'delete'
p779
sS'order'
p780
F1523921035.012884
sS'objid'
p781
g8
(g12
S'\xa7\x00\x00\x00\x00\x00\x00\x00'
p782
tp783
Rp784
sa(dp785
S'action'
p786
S'delete'
p787
sS'order'
p788
F1523921035.019167
sS'objid'
p789
g8
(g12
S'\xa6\x00\x00\x00\x00\x00\x00\x00'
p790
tp791
Rp792
sa(dp793
S'action'
p794
S'delete'
p795
sS'order'
p796
F1523921035.025497
sS'objid'
p797
g8
(g12
S'\xa5\x00\x00\x00\x00\x00\x00\x00'
p798
tp799
Rp800
sa(dp801
S'action'
p802
S'delete'
p803
sS'order'
p804
F1523921035.0319
sS'objid'
p805
g8
(g12
S'\xa4\x00\x00\x00\x00\x00\x00\x00'
p806
tp807
Rp808
sa(dp809
S'action'
p810
S'delete'
p811
sS'order'
p812
F1523921035.038333
sS'objid'
p813
g8
(g12
S'\xa3\x00\x00\x00\x00\x00\x00\x00'
p814
tp815
Rp816
sa(dp817
S'action'
p818
S'delete'
p819
sS'order'
p820
F1523921035.044853
sS'objid'
p821
g8
(g12
S'\xa2\x00\x00\x00\x00\x00\x00\x00'
p822
tp823
Rp824
sa(dp825
S'action'
p826
S'delete'
p827
sS'order'
p828
F1523921035.051428
sS'objid'
p829
g8
(g12
S'\xa1\x00\x00\x00\x00\x00\x00\x00'
p830
tp831
Rp832
sa(dp833
S'action'
p834
S'delete'
p835
sS'order'
p836
F1523921035.058044
sS'objid'
p837
g8
(g12
S'\xa0\x00\x00\x00\x00\x00\x00\x00'
p838
tp839
Rp840
sa(dp841
S'action'
p842
S'delete'
p843
sS'order'
p844
F1523921035.064713
sS'objid'
p845
g8
(g12
S'\x9f\x00\x00\x00\x00\x00\x00\x00'
p846
tp847
Rp848
sa(dp849
S'action'
p850
S'delete'
p851
sS'order'
p852
F1523921035.071456
sS'objid'
p853
g8
(g12
S'\x9e\x00\x00\x00\x00\x00\x00\x00'
p854
tp855
Rp856
sa(dp857
S'action'
p858
S'delete'
p859
sS'order'
p860
F1523921035.078316
sS'objid'
p861
g8
(g12
S'\x9d\x00\x00\x00\x00\x00\x00\x00'
p862
tp863
Rp864
sa(dp865
S'action'
p866
S'delete'
p867
sS'order'
p868
F1523921035.085252
sS'objid'
p869
g8
(g12
S'\x9c\x00\x00\x00\x00\x00\x00\x00'
p870
tp871
Rp872
sa(dp873
S'action'
p874
S'delete'
p875
sS'order'
p876
F1523921035.092169
sS'objid'
p877
g8
(g12
S'\x9b\x00\x00\x00\x00\x00\x00\x00'
p878
tp879
Rp880
sa(dp881
S'action'
p882
S'delete'
p883
sS'order'
p884
F1523921035.099127
sS'objid'
p885
g8
(g12
S'\x9a\x00\x00\x00\x00\x00\x00\x00'
p886
tp887
Rp888
sa(dp889
S'action'
p890
S'delete'
p891
sS'order'
p892
F1523921035.106139
sS'objid'
p893
g8
(g12
S'\x99\x00\x00\x00\x00\x00\x00\x00'
p894
tp895
Rp896
sa(dp897
S'action'
p898
S'delete'
p899
sS'order'
p900
F1523921035.113224
sS'objid'
p901
g8
(g12
S'\x98\x00\x00\x00\x00\x00\x00\x00'
p902
tp903
Rp904
sa(dp905
S'action'
p906
S'delete'
p907
sS'order'
p908
F1523921035.12037
sS'objid'
p909
g8
(g12
S'\x97\x00\x00\x00\x00\x00\x00\x00'
p910
tp911
Rp912
sa(dp913
S'action'
p914
S'delete'
p915
sS'order'
p916
F1523921035.127595
sS'objid'
p917
g8
(g12
S'\x96\x00\x00\x00\x00\x00\x00\x00'
p918
tp919
Rp920
sa(dp921
S'action'
p922
S'delete'
p923
sS'order'
p924
F1523921035.134833
sS'objid'
p925
g8
(g12
S'\x95\x00\x00\x00\x00\x00\x00\x00'
p926
tp927
Rp928
sa(dp929
S'action'
p930
S'delete'
p931
sS'order'
p932
F1523921035.142147
sS'objid'
p933
g8
(g12
S'\x94\x00\x00\x00\x00\x00\x00\x00'
p934
tp935
Rp936
sa(dp937
S'action'
p938
S'delete'
p939
sS'order'
p940
F1523921035.149508
sS'objid'
p941
g8
(g12
S'\x93\x00\x00\x00\x00\x00\x00\x00'
p942
tp943
Rp944
sa(dp945
S'action'
p946
S'delete'
p947
sS'order'
p948
F1523921035.156918
sS'objid'
p949
g8
(g12
S'\x92\x00\x00\x00\x00\x00\x00\x00'
p950
tp951
Rp952
sa(dp953
S'action'
p954
S'delete'
p955
sS'order'
p956
F1523921035.164418
sS'objid'
p957
g8
(g12
S'\x91\x00\x00\x00\x00\x00\x00\x00'
p958
tp959
Rp960
sa(dp961
S'action'
p962
S'delete'
p963
sS'order'
p964
F1523921035.171964
sS'objid'
p965
g8
(g12
S'\x90\x00\x00\x00\x00\x00\x00\x00'
p966
tp967
Rp968
sa(dp969
S'action'
p970
S'delete'
p971
sS'order'
p972
F1523921035.179618
sS'objid'
p973
g8
(g12
S'\x8f\x00\x00\x00\x00\x00\x00\x00'
p974
tp975
Rp976
sa(dp977
S'action'
p978
S'delete'
p979
sS'order'
p980
F1523921035.187373
sS'objid'
p981
g8
(g12
S'\x8e\x00\x00\x00\x00\x00\x00\x00'
p982
tp983
Rp984
sa(dp985
S'action'
p986
S'delete'
p987
sS'order'
p988
F1523921035.195105
sS'objid'
p989
g8
(g12
S'\x8d\x00\x00\x00\x00\x00\x00\x00'
p990
tp991
Rp992
sa(dp993
S'action'
p994
S'delete'
p995
sS'order'
p996
F1523921035.202867
sS'objid'
p997
g8
(g12
S'\x8c\x00\x00\x00\x00\x00\x00\x00'
p998
tp999
Rp1000
sa(dp1001
S'action'
p1002
S'delete'
p1003
sS'order'
p1004
F1523921035.210678
sS'objid'
p1005
g8
(g12
S'\x8b\x00\x00\x00\x00\x00\x00\x00'
p1006
tp1007
Rp1008
sa(dp1009
S'action'
p1010
S'delete'
p1011
sS'order'
p1012
F1523921035.218548
sS'objid'
p1013
g8
(g12
S'\x8a\x00\x00\x00\x00\x00\x00\x00'
p1014
tp1015
Rp1016
sa(dp1017
S'action'
p1018
S'delete'
p1019
sS'order'
p1020
F1523921035.226489
sS'objid'
p1021
g8
(g12
S'\x89\x00\x00\x00\x00\x00\x00\x00'
p1022
tp1023
Rp1024
sa(dp1025
S'action'
p1026
S'delete'
p1027
sS'order'
p1028
F1523921035.23449
sS'objid'
p1029
g8
(g12
S'\x88\x00\x00\x00\x00\x00\x00\x00'
p1030
tp1031
Rp1032
sa(dp1033
S'action'
p1034
S'delete'
p1035
sS'order'
p1036
F1523921035.242537
sS'objid'
p1037
g8
(g12
S'\x87\x00\x00\x00\x00\x00\x00\x00'
p1038
tp1039
Rp1040
sa(dp1041
S'action'
p1042
S'delete'
p1043
sS'order'
p1044
F1523921035.25066
sS'objid'
p1045
g8
(g12
S'\x86\x00\x00\x00\x00\x00\x00\x00'
p1046
tp1047
Rp1048
sa(dp1049
S'action'
p1050
S'delete'
p1051
sS'order'
p1052
F1523921035.25883
sS'objid'
p1053
g8
(g12
S'\x85\x00\x00\x00\x00\x00\x00\x00'
p1054
tp1055
Rp1056
sa(dp1057
S'action'
p1058
S'delete'
p1059
sS'order'
p1060
F1523921035.267053
sS'objid'
p1061
g8
(g12
S'\x84\x00\x00\x00\x00\x00\x00\x00'
p1062
tp1063
Rp1064
sa(dp1065
S'action'
p1066
S'delete'
p1067
sS'order'
p1068
F1523921035.275362
sS'objid'
p1069
g8
(g12
S'\x83\x00\x00\x00\x00\x00\x00\x00'
p1070
tp1071
Rp1072
sa(dp1073
S'action'
p1074
S'delete'
p1075
sS'order'
p1076
F1523921035.283807
sS'objid'
p1077
g8
(g12
S'\x82\x00\x00\x00\x00\x00\x00\x00'
p1078
tp1079
Rp1080
sa(dp1081
S'action'
p1082
S'delete'
p1083
sS'order'
p1084
F1523921035.292306
sS'objid'
p1085
g8
(g12
S'\x81\x00\x00\x00\x00\x00\x00\x00'
p1086
tp1087
Rp1088
sa(dp1089
S'action'
p1090
S'delete'
p1091
sS'order'
p1092
F1523921035.300755
sS'objid'
p1093
g8
(g12
S'\x80\x00\x00\x00\x00\x00\x00\x00'
p1094
tp1095
Rp1096
sa(dp1097
S'action'
p1098
S'delete'
p1099
sS'order'
p1100
F1523921035.309279
sS'objid'
p1101
g8
(g12
S'\x7f\x00\x00\x00\x00\x00\x00\x00'
p1102
tp1103
Rp1104
sa(dp1105
S'action'
p1106
S'delete'
p1107
sS'order'
p1108
F1523921035.317867
sS'objid'
p1109
g8
(g12
S'~\x00\x00\x00\x00\x00\x00\x00'
p1110
tp1111
Rp1112
sa(dp1113
S'action'
p1114
S'delete'
p1115
sS'order'
p1116
F1523921035.326498
sS'objid'
p1117
g8
(g12
S'}\x00\x00\x00\x00\x00\x00\x00'
p1118
tp1119
Rp1120
sa(dp1121
S'action'
p1122
S'delete'
p1123
sS'order'
p1124
F1523921035.335328
sS'objid'
p1125
g8
(g12
S'|\x00\x00\x00\x00\x00\x00\x00'
p1126
tp1127
Rp1128
sa(dp1129
S'action'
p1130
S'delete'
p1131
sS'order'
p1132
F1523921035.344093
sS'objid'
p1133
g8
(g12
S'{\x00\x00\x00\x00\x00\x00\x00'
p1134
tp1135
Rp1136
sa(dp1137
S'action'
p1138
S'delete'
p1139
sS'order'
p1140
F1523921035.352913
sS'objid'
p1141
g8
(g12
S'y\x00\x00\x00\x00\x00\x00\x00'
p1142
tp1143
Rp1144
sa(dp1145
S'action'
p1146
S'delete'
p1147
sS'order'
p1148
F1523921035.361764
sS'objid'
p1149
g8
(g12
S'x\x00\x00\x00\x00\x00\x00\x00'
p1150
tp1151
Rp1152
sa(dp1153
S'action'
p1154
S'delete'
p1155
sS'order'
p1156
F1523921035.370661
sS'objid'
p1157
g8
(g12
S'w\x00\x00\x00\x00\x00\x00\x00'
p1158
tp1159
Rp1160
sa(dp1161
S'action'
p1162
S'delete'
p1163
sS'order'
p1164
F1523921035.379684
sS'objid'
p1165
g8
(g12
S'v\x00\x00\x00\x00\x00\x00\x00'
p1166
tp1167
Rp1168
sa(dp1169
S'action'
p1170
S'delete'
p1171
sS'order'
p1172
F1523921035.38883
sS'objid'
p1173
g8
(g12
S'u\x00\x00\x00\x00\x00\x00\x00'
p1174
tp1175
Rp1176
sa(dp1177
S'action'
p1178
S'delete'
p1179
sS'order'
p1180
F1523921035.397974
sS'objid'
p1181
g8
(g12
S't\x00\x00\x00\x00\x00\x00\x00'
p1182
tp1183
Rp1184
sa(dp1185
S'action'
p1186
S'delete'
p1187
sS'order'
p1188
F1523921035.407171
sS'objid'
p1189
g8
(g12
S's\x00\x00\x00\x00\x00\x00\x00'
p1190
tp1191
Rp1192
sa(dp1193
S'action'
p1194
S'delete'
p1195
sS'order'
p1196
F1523921035.416398
sS'objid'
p1197
g8
(g12
S'r\x00\x00\x00\x00\x00\x00\x00'
p1198
tp1199
Rp1200
sa(dp1201
S'action'
p1202
S'delete'
p1203
sS'order'
p1204
F1523921035.425649
sS'objid'
p1205
g8
(g12
S'q\x00\x00\x00\x00\x00\x00\x00'
p1206
tp1207
Rp1208
sa(dp1209
S'action'
p1210
S'delete'
p1211
sS'order'
p1212
F1523921035.434967
sS'objid'
p1213
g8
(g12
S'p\x00\x00\x00\x00\x00\x00\x00'
p1214
tp1215
Rp1216
sa(dp1217
S'action'
p1218
S'delete'
p1219
sS'order'
p1220
F1523921035.44435
sS'objid'
p1221
g8
(g12
S'o\x00\x00\x00\x00\x00\x00\x00'
p1222
tp1223
Rp1224
sa(dp1225
S'action'
p1226
S'delete'
p1227
sS'order'
p1228
F1523921035.453783
sS'objid'
p1229
g8
(g12
S'n\x00\x00\x00\x00\x00\x00\x00'
p1230
tp1231
Rp1232
sa(dp1233
S'action'
p1234
S'delete'
p1235
sS'order'
p1236
F1523921048.751852
sS'objid'
p1237
g8
(g12
S'm\x00\x00\x00\x00\x00\x00\x00'
p1238
tp1239
Rp1240
sa(dp1241
S'action'
p1242
S'delete'
p1243
sS'order'
p1244
F1523921048.768082
sS'objid'
p1245
g8
(g12
S'l\x00\x00\x00\x00\x00\x00\x00'
p1246
tp1247
Rp1248
sa(dp1249
S'action'
p1250
S'delete'
p1251
sS'order'
p1252
F1523921048.777842
sS'objid'
p1253
g8
(g12
S'k\x00\x00\x00\x00\x00\x00\x00'
p1254
tp1255
Rp1256
sa(dp1257
S'action'
p1258
S'delete'
p1259
sS'order'
p1260
F1523921048.78834
sS'objid'
p1261
g8
(g12
S'j\x00\x00\x00\x00\x00\x00\x00'
p1262
tp1263
Rp1264
sa(dp1265
S'action'
p1266
S'delete'
p1267
sS'order'
p1268
F1523921048.798303
sS'objid'
p1269
g8
(g12
S'i\x00\x00\x00\x00\x00\x00\x00'
p1270
tp1271
Rp1272
sa(dp1273
S'action'
p1274
S'delete'
p1275
sS'order'
p1276
F1523921048.813835
sS'objid'
p1277
g8
(g12
S'h\x00\x00\x00\x00\x00\x00\x00'
p1278
tp1279
Rp1280
sa(dp1281
S'action'
p1282
S'delete'
p1283
sS'order'
p1284
F1523921048.824056
sS'objid'
p1285
g8
(g12
S'g\x00\x00\x00\x00\x00\x00\x00'
p1286
tp1287
Rp1288
sa(dp1289
S'action'
p1290
S'delete'
p1291
sS'order'
p1292
F1523921048.842068
sS'objid'
p1293
g8
(g12
S'f\x00\x00\x00\x00\x00\x00\x00'
p1294
tp1295
Rp1296
sa(dp1297
S'action'
p1298
S'delete'
p1299
sS'order'
p1300
F1523921048.852076
sS'objid'
p1301
g8
(g12
S'e\x00\x00\x00\x00\x00\x00\x00'
p1302
tp1303
Rp1304
sa(dp1305
S'action'
p1306
S'delete'
p1307
sS'order'
p1308
F1523921048.862138
sS'objid'
p1309
g8
(g12
S'd\x00\x00\x00\x00\x00\x00\x00'
p1310
tp1311
Rp1312
sa(dp1313
S'action'
p1314
S'delete'
p1315
sS'order'
p1316
F1523921048.872277
sS'objid'
p1317
g8
(g12
S'c\x00\x00\x00\x00\x00\x00\x00'
p1318
tp1319
Rp1320
sa(dp1321
S'action'
p1322
S'delete'
p1323
sS'order'
p1324
F1523921048.882465
sS'objid'
p1325
g8
(g12
S'b\x00\x00\x00\x00\x00\x00\x00'
p1326
tp1327
Rp1328
sa(dp1329
S'action'
p1330
S'delete'
p1331
sS'order'
p1332
F1523921048.892672
sS'objid'
p1333
g8
(g12
S'a\x00\x00\x00\x00\x00\x00\x00'
p1334
tp1335
Rp1336
sa(dp1337
S'action'
p1338
S'delete'
p1339
sS'order'
p1340
F1523921048.902957
sS'objid'
p1341
g8
(g12
S'`\x00\x00\x00\x00\x00\x00\x00'
p1342
tp1343
Rp1344
sa(dp1345
S'action'
p1346
S'delete'
p1347
sS'order'
p1348
F1523921048.913351
sS'objid'
p1349
g8
(g12
S'_\x00\x00\x00\x00\x00\x00\x00'
p1350
tp1351
Rp1352
sa(dp1353
S'action'
p1354
S'delete'
p1355
sS'order'
p1356
F1523921048.924208
sS'objid'
p1357
g8
(g12
S'^\x00\x00\x00\x00\x00\x00\x00'
p1358
tp1359
Rp1360
sa(dp1361
S'action'
p1362
S'delete'
p1363
sS'order'
p1364
F1523921048.941518
sS'objid'
p1365
g8
(g12
S']\x00\x00\x00\x00\x00\x00\x00'
p1366
tp1367
Rp1368
sa(dp1369
S'action'
p1370
S'delete'
p1371
sS'order'
p1372
F1523921048.952364
sS'objid'
p1373
g8
(g12
S'\\\x00\x00\x00\x00\x00\x00\x00'
p1374
tp1375
Rp1376
sa(dp1377
S'action'
p1378
S'delete'
p1379
sS'order'
p1380
F1523921048.963007
sS'objid'
p1381
g8
(g12
S'[\x00\x00\x00\x00\x00\x00\x00'
p1382
tp1383
Rp1384
sa(dp1385
S'action'
p1386
S'delete'
p1387
sS'order'
p1388
F1523921048.973742
sS'objid'
p1389
g8
(g12
S'Z\x00\x00\x00\x00\x00\x00\x00'
p1390
tp1391
Rp1392
sa(dp1393
S'action'
p1394
S'delete'
p1395
sS'order'
p1396
F1523921048.984492
sS'objid'
p1397
g8
(g12
S'Y\x00\x00\x00\x00\x00\x00\x00'
p1398
tp1399
Rp1400
sa(dp1401
S'action'
p1402
S'delete'
p1403
sS'order'
p1404
F1523921048.995318
sS'objid'
p1405
g8
(g12
S'X\x00\x00\x00\x00\x00\x00\x00'
p1406
tp1407
Rp1408
sa(dp1409
S'action'
p1410
S'delete'
p1411
sS'order'
p1412
F1523921049.006219
sS'objid'
p1413
g8
(g12
S'W\x00\x00\x00\x00\x00\x00\x00'
p1414
tp1415
Rp1416
sa(dp1417
S'action'
p1418
S'delete'
p1419
sS'order'
p1420
F1523921049.017331
sS'objid'
p1421
g8
(g12
S'V\x00\x00\x00\x00\x00\x00\x00'
p1422
tp1423
Rp1424
sa(dp1425
S'action'
p1426
S'delete'
p1427
sS'order'
p1428
F1523921049.029006
sS'objid'
p1429
g8
(g12
S'U\x00\x00\x00\x00\x00\x00\x00'
p1430
tp1431
Rp1432
sa(dp1433
S'action'
p1434
S'delete'
p1435
sS'order'
p1436
F1523921049.044213
sS'objid'
p1437
g8
(g12
S'T\x00\x00\x00\x00\x00\x00\x00'
p1438
tp1439
Rp1440
sa(dp1441
S'action'
p1442
S'delete'
p1443
sS'order'
p1444
F1523921049.05532
sS'objid'
p1445
g8
(g12
S'S\x00\x00\x00\x00\x00\x00\x00'
p1446
tp1447
Rp1448
sa(dp1449
S'action'
p1450
S'delete'
p1451
sS'order'
p1452
F1523921049.066457
sS'objid'
p1453
g8
(g12
S'R\x00\x00\x00\x00\x00\x00\x00'
p1454
tp1455
Rp1456
sa(dp1457
S'action'
p1458
S'delete'
p1459
sS'order'
p1460
F1523921049.07773
sS'objid'
p1461
g8
(g12
S'Q\x00\x00\x00\x00\x00\x00\x00'
p1462
tp1463
Rp1464
sa(dp1465
S'action'
p1466
S'delete'
p1467
sS'order'
p1468
F1523921049.089061
sS'objid'
p1469
g8
(g12
S'P\x00\x00\x00\x00\x00\x00\x00'
p1470
tp1471
Rp1472
sa(dp1473
S'action'
p1474
S'delete'
p1475
sS'order'
p1476
F1523921049.100385
sS'objid'
p1477
g8
(g12
S'O\x00\x00\x00\x00\x00\x00\x00'
p1478
tp1479
Rp1480
sa(dp1481
S'action'
p1482
S'delete'
p1483
sS'order'
p1484
F1523921049.111822
sS'objid'
p1485
g8
(g12
S'N\x00\x00\x00\x00\x00\x00\x00'
p1486
tp1487
Rp1488
sa(dp1489
S'action'
p1490
S'delete'
p1491
sS'order'
p1492
F1523921049.123689
sS'objid'
p1493
g8
(g12
S'M\x00\x00\x00\x00\x00\x00\x00'
p1494
tp1495
Rp1496
sa(dp1497
S'action'
p1498
S'delete'
p1499
sS'order'
p1500
F1523921049.14055
sS'objid'
p1501
g8
(g12
S'L\x00\x00\x00\x00\x00\x00\x00'
p1502
tp1503
Rp1504
sa(dp1505
S'action'
p1506
S'delete'
p1507
sS'order'
p1508
F1523921049.152937
sS'objid'
p1509
g8
(g12
S'K\x00\x00\x00\x00\x00\x00\x00'
p1510
tp1511
Rp1512
sa(dp1513
S'action'
p1514
S'delete'
p1515
sS'order'
p1516
F1523921049.164547
sS'objid'
p1517
g8
(g12
S'J\x00\x00\x00\x00\x00\x00\x00'
p1518
tp1519
Rp1520
sa(dp1521
S'action'
p1522
S'delete'
p1523
sS'order'
p1524
F1523921049.176212
sS'objid'
p1525
g8
(g12
S'I\x00\x00\x00\x00\x00\x00\x00'
p1526
tp1527
Rp1528
sa(dp1529
S'action'
p1530
S'delete'
p1531
sS'order'
p1532
F1523921049.187977
sS'objid'
p1533
g8
(g12
S'H\x00\x00\x00\x00\x00\x00\x00'
p1534
tp1535
Rp1536
sa(dp1537
S'action'
p1538
S'delete'
p1539
sS'order'
p1540
F1523921049.199756
sS'objid'
p1541
g8
(g12
S'G\x00\x00\x00\x00\x00\x00\x00'
p1542
tp1543
Rp1544
sa(dp1545
S'action'
p1546
S'delete'
p1547
sS'order'
p1548
F1523921049.211639
sS'objid'
p1549
g8
(g12
S'F\x00\x00\x00\x00\x00\x00\x00'
p1550
tp1551
Rp1552
sa(dp1553
S'action'
p1554
S'delete'
p1555
sS'order'
p1556
F1523921049.223736
sS'objid'
p1557
g8
(g12
S'E\x00\x00\x00\x00\x00\x00\x00'
p1558
tp1559
Rp1560
sa(dp1561
S'action'
p1562
S'delete'
p1563
sS'order'
p1564
F1523921049.239942
sS'objid'
p1565
g8
(g12
S'D\x00\x00\x00\x00\x00\x00\x00'
p1566
tp1567
Rp1568
sa(dp1569
S'action'
p1570
S'delete'
p1571
sS'order'
p1572
F1523921049.253075
sS'objid'
p1573
g8
(g12
S'C\x00\x00\x00\x00\x00\x00\x00'
p1574
tp1575
Rp1576
sa(dp1577
S'action'
p1578
S'delete'
p1579
sS'order'
p1580
F1523921049.265166
sS'objid'
p1581
g8
(g12
S'B\x00\x00\x00\x00\x00\x00\x00'
p1582
tp1583
Rp1584
sa(dp1585
S'action'
p1586
S'delete'
p1587
sS'order'
p1588
F1523921049.277342
sS'objid'
p1589
g8
(g12
S'A\x00\x00\x00\x00\x00\x00\x00'
p1590
tp1591
Rp1592
sa(dp1593
S'action'
p1594
S'delete'
p1595
sS'order'
p1596
F1523921049.289539
sS'objid'
p1597
g8
(g12
S'@\x00\x00\x00\x00\x00\x00\x00'
p1598
tp1599
Rp1600
sa(dp1601
S'action'
p1602
S'delete'
p1603
sS'order'
p1604
F1523921049.301815
sS'objid'
p1605
g8
(g12
S'?\x00\x00\x00\x00\x00\x00\x00'
p1606
tp1607
Rp1608
sa(dp1609
S'action'
p1610
S'delete'
p1611
sS'order'
p1612
F1523921049.314118
sS'objid'
p1613
g8
(g12
S'>\x00\x00\x00\x00\x00\x00\x00'
p1614
tp1615
Rp1616
sa(dp1617
S'action'
p1618
S'delete'
p1619
sS'order'
p1620
F1523921049.326771
sS'objid'
p1621
g8
(g12
S'=\x00\x00\x00\x00\x00\x00\x00'
p1622
tp1623
Rp1624
sa(dp1625
S'action'
p1626
S'delete'
p1627
sS'order'
p1628
F1523921049.343308
sS'objid'
p1629
g8
(g12
S'<\x00\x00\x00\x00\x00\x00\x00'
p1630
tp1631
Rp1632
sa(dp1633
S'action'
p1634
S'delete'
p1635
sS'order'
p1636
F1523921049.355823
sS'objid'
p1637
g8
(g12
S';\x00\x00\x00\x00\x00\x00\x00'
p1638
tp1639
Rp1640
sa(dp1641
S'action'
p1642
S'delete'
p1643
sS'order'
p1644
F1523921049.368376
sS'objid'
p1645
g8
(g12
S':\x00\x00\x00\x00\x00\x00\x00'
p1646
tp1647
Rp1648
sa(dp1649
S'action'
p1650
S'delete'
p1651
sS'order'
p1652
F1523921049.380953
sS'objid'
p1653
g8
(g12
S'9\x00\x00\x00\x00\x00\x00\x00'
p1654
tp1655
Rp1656
sa(dp1657
S'action'
p1658
S'delete'
p1659
sS'order'
p1660
F1523921049.393629
sS'objid'
p1661
g8
(g12
S'8\x00\x00\x00\x00\x00\x00\x00'
p1662
tp1663
Rp1664
sa(dp1665
S'action'
p1666
S'delete'
p1667
sS'order'
p1668
F1523921049.406338
sS'objid'
p1669
g8
(g12
S'7\x00\x00\x00\x00\x00\x00\x00'
p1670
tp1671
Rp1672
sa(dp1673
S'action'
p1674
S'delete'
p1675
sS'order'
p1676
F1523921049.419193
sS'objid'
p1677
g8
(g12
S'6\x00\x00\x00\x00\x00\x00\x00'
p1678
tp1679
Rp1680
sa(dp1681
S'action'
p1682
S'delete'
p1683
sS'order'
p1684
F1523921049.432496
sS'objid'
p1685
g8
(g12
S'5\x00\x00\x00\x00\x00\x00\x00'
p1686
tp1687
Rp1688
sa(dp1689
S'action'
p1690
S'delete'
p1691
sS'order'
p1692
F1523921049.448783
sS'objid'
p1693
g8
(g12
S'4\x00\x00\x00\x00\x00\x00\x00'
p1694
tp1695
Rp1696
sa(dp1697
S'action'
p1698
S'delete'
p1699
sS'order'
p1700
F1523921049.461751
sS'objid'
p1701
g8
(g12
S'3\x00\x00\x00\x00\x00\x00\x00'
p1702
tp1703
Rp1704
sa(dp1705
S'action'
p1706
S'delete'
p1707
sS'order'
p1708
F1523921049.474734
sS'objid'
p1709
g8
(g12
S'2\x00\x00\x00\x00\x00\x00\x00'
p1710
tp1711
Rp1712
sa(dp1713
S'action'
p1714
S'delete'
p1715
sS'order'
p1716
F1523921049.487817
sS'objid'
p1717
g8
(g12
S'1\x00\x00\x00\x00\x00\x00\x00'
p1718
tp1719
Rp1720
sa(dp1721
S'action'
p1722
S'delete'
p1723
sS'order'
p1724
F1523921049.50092
sS'objid'
p1725
g8
(g12
S'0\x00\x00\x00\x00\x00\x00\x00'
p1726
tp1727
Rp1728
sa(dp1729
S'action'
p1730
S'delete'
p1731
sS'order'
p1732
F1523921049.514064
sS'objid'
p1733
g8
(g12
S'/\x00\x00\x00\x00\x00\x00\x00'
p1734
tp1735
Rp1736
sa(dp1737
S'action'
p1738
S'delete'
p1739
sS'order'
p1740
F1523921049.527593
sS'objid'
p1741
g8
(g12
S'.\x00\x00\x00\x00\x00\x00\x00'
p1742
tp1743
Rp1744
sa(dp1745
S'action'
p1746
S'delete'
p1747
sS'order'
p1748
F1523921049.543755
sS'objid'
p1749
g8
(g12
S'-\x00\x00\x00\x00\x00\x00\x00'
p1750
tp1751
Rp1752
sa(dp1753
S'action'
p1754
S'delete'
p1755
sS'order'
p1756
F1523921049.557145
sS'objid'
p1757
g8
(g12
S',\x00\x00\x00\x00\x00\x00\x00'
p1758
tp1759
Rp1760
sa(dp1761
S'action'
p1762
S'delete'
p1763
sS'order'
p1764
F1523921049.570541
sS'objid'
p1765
g8
(g12
S'+\x00\x00\x00\x00\x00\x00\x00'
p1766
tp1767
Rp1768
sa(dp1769
S'action'
p1770
S'delete'
p1771
sS'order'
p1772
F1523921049.584043
sS'objid'
p1773
g8
(g12
S'*\x00\x00\x00\x00\x00\x00\x00'
p1774
tp1775
Rp1776
sa(dp1777
S'action'
p1778
S'delete'
p1779
sS'order'
p1780
F1523921049.597595
sS'objid'
p1781
g8
(g12
S')\x00\x00\x00\x00\x00\x00\x00'
p1782
tp1783
Rp1784
sa(dp1785
S'action'
p1786
S'delete'
p1787
sS'order'
p1788
F1523921049.611168
sS'objid'
p1789
g8
(g12
S'(\x00\x00\x00\x00\x00\x00\x00'
p1790
tp1791
Rp1792
sa(dp1793
S'action'
p1794
S'delete'
p1795
sS'order'
p1796
F1523921049.624941
sS'objid'
p1797
g8
(g12
S"'\x00\x00\x00\x00\x00\x00\x00"
p1798
tp1799
Rp1800
sa(dp1801
S'action'
p1802
S'delete'
p1803
sS'order'
p1804
F1523921049.639433
sS'objid'
p1805
g8
(g12
S'&\x00\x00\x00\x00\x00\x00\x00'
p1806
tp1807
Rp1808
sa(dp1809
S'action'
p1810
S'delete'
p1811
sS'order'
p1812
F1523921049.654605
sS'objid'
p1813
g8
(g12
S'%\x00\x00\x00\x00\x00\x00\x00'
p1814
tp1815
Rp1816
sa(dp1817
S'action'
p1818
S'delete'
p1819
sS'order'
p1820
F1523921049.668446
sS'objid'
p1821
g8
(g12
S'$\x00\x00\x00\x00\x00\x00\x00'
p1822
tp1823
Rp1824
sa(dp1825
S'action'
p1826
S'delete'
p1827
sS'order'
p1828
F1523921049.682298
sS'objid'
p1829
g8
(g12
S'#\x00\x00\x00\x00\x00\x00\x00'
p1830
tp1831
Rp1832
sa(dp1833
S'action'
p1834
S'delete'
p1835
sS'order'
p1836
F1523921049.696205
sS'objid'
p1837
g8
(g12
S'"\x00\x00\x00\x00\x00\x00\x00'
p1838
tp1839
Rp1840
sa(dp1841
S'action'
p1842
S'delete'
p1843
sS'order'
p1844
F1523921049.710205
sS'objid'
p1845
g8
(g12
S'!\x00\x00\x00\x00\x00\x00\x00'
p1846
tp1847
Rp1848
sa(dp1849
S'action'
p1850
S'delete'
p1851
sS'order'
p1852
F1523921049.724365
sS'objid'
p1853
g8
(g12
S' \x00\x00\x00\x00\x00\x00\x00'
p1854
tp1855
Rp1856
sa(dp1857
S'action'
p1858
S'delete'
p1859
sS'order'
p1860
F1523921057.22409
sS'objid'
p1861
g8
(g12
S'\x1f\x00\x00\x00\x00\x00\x00\x00'
p1862
tp1863
Rp1864
sa(dp1865
S'action'
p1866
S'delete'
p1867
sS'order'
p1868
F1523921057.241595
sS'objid'
p1869
g8
(g12
S'\x1e\x00\x00\x00\x00\x00\x00\x00'
p1870
tp1871
Rp1872
sa(dp1873
S'action'
p1874
S'delete'
p1875
sS'order'
p1876
F1523921057.256595
sS'objid'
p1877
g8
(g12
S'\x1d\x00\x00\x00\x00\x00\x00\x00'
p1878
tp1879
Rp1880
sa(dp1881
S'action'
p1882
S'delete'
p1883
sS'order'
p1884
F1523921057.271526
sS'objid'
p1885
g8
(g12
S'\x1c\x00\x00\x00\x00\x00\x00\x00'
p1886
tp1887
Rp1888
sa(dp1889
S'action'
p1890
S'delete'
p1891
sS'order'
p1892
F1523921057.285846
sS'objid'
p1893
g8
(g12
S'\x1b\x00\x00\x00\x00\x00\x00\x00'
p1894
tp1895
Rp1896
sa(dp1897
S'action'
p1898
S'delete'
p1899
sS'order'
p1900
F1523921057.300201
sS'objid'
p1901
g8
(g12
S'\x1a\x00\x00\x00\x00\x00\x00\x00'
p1902
tp1903
Rp1904
sa(dp1905
S'action'
p1906
S'delete'
p1907
sS'order'
p1908
F1523921057.31455
sS'objid'
p1909
g8
(g12
S'\x19\x00\x00\x00\x00\x00\x00\x00'
p1910
tp1911
Rp1912
sa(dp1913
S'action'
p1914
S'delete'
p1915
sS'order'
p1916
F1523921057.328958
sS'objid'
p1917
g8
(g12
S'\x18\x00\x00\x00\x00\x00\x00\x00'
p1918
tp1919
Rp1920
sa(dp1921
S'action'
p1922
S'delete'
p1923
sS'order'
p1924
F1523921057.343643
sS'objid'
p1925
g8
(g12
S'\x17\x00\x00\x00\x00\x00\x00\x00'
p1926
tp1927
Rp1928
sa(dp1929
S'action'
p1930
S'delete'
p1931
sS'order'
p1932
F1523921057.358765
sS'objid'
p1933
g8
(g12
S'\x16\x00\x00\x00\x00\x00\x00\x00'
p1934
tp1935
Rp1936
sa(dp1937
S'action'
p1938
S'delete'
p1939
sS'order'
p1940
F1523921057.373367
sS'objid'
p1941
g8
(g12
S'\x15\x00\x00\x00\x00\x00\x00\x00'
p1942
tp1943
Rp1944
sa(dp1945
S'action'
p1946
S'delete'
p1947
sS'order'
p1948
F1523921057.388
sS'objid'
p1949
g8
(g12
S'\x14\x00\x00\x00\x00\x00\x00\x00'
p1950
tp1951
Rp1952
sa(dp1953
S'action'
p1954
S'delete'
p1955
sS'order'
p1956
F1523921057.402672
sS'objid'
p1957
g8
(g12
S'\x13\x00\x00\x00\x00\x00\x00\x00'
p1958
tp1959
Rp1960
sa(dp1961
S'action'
p1962
S'delete'
p1963
sS'order'
p1964
F1523921057.417479
sS'objid'
p1965
g8
(g12
S'\x12\x00\x00\x00\x00\x00\x00\x00'
p1966
tp1967
Rp1968
sa(dp1969
S'action'
p1970
S'delete'
p1971
sS'order'
p1972
F1523921057.432261
sS'objid'
p1973
g8
(g12
S'\x11\x00\x00\x00\x00\x00\x00\x00'
p1974
tp1975
Rp1976
sa(dp1977
S'action'
p1978
S'delete'
p1979
sS'order'
p1980
F1523921057.447778
sS'objid'
p1981
g8
(g12
S'\x10\x00\x00\x00\x00\x00\x00\x00'
p1982
tp1983
Rp1984
sa(dp1985
S'action'
p1986
S'delete'
p1987
sS'order'
p1988
F1523921057.462719
sS'objid'
p1989
g8
(g12
S'\x0f\x00\x00\x00\x00\x00\x00\x00'
p1990
tp1991
Rp1992
sa(dp1993
S'action'
p1994
S'delete'
p1995
sS'order'
p1996
F1523921057.477728
sS'objid'
p1997
g8
(g12
S'\x0e\x00\x00\x00\x00\x00\x00\x00'
p1998
tp1999
Rp2000
sa(dp2001
S'action'
p2002
S'delete'
p2003
sS'order'
p2004
F1523921057.492754
sS'objid'
p2005
g8
(g12
S'\r\x00\x00\x00\x00\x00\x00\x00'
p2006
tp2007
Rp2008
sa(dp2009
S'action'
p2010
S'delete'
p2011
sS'order'
p2012
F1523921057.507873
sS'objid'
p2013
g8
(g12
S'\x0c\x00\x00\x00\x00\x00\x00\x00'
p2014
tp2015
Rp2016
sa(dp2017
S'action'
p2018
S'delete'
p2019
sS'order'
p2020
F1523921057.523017
sS'objid'
p2021
g8
(g12
S'\x0b\x00\x00\x00\x00\x00\x00\x00'
p2022
tp2023
Rp2024
sa(dp2025
S'action'
p2026
S'delete'
p2027
sS'order'
p2028
F1523921057.538291
sS'objid'
p2029
g8
(g12
S'\n\x00\x00\x00\x00\x00\x00\x00'
p2030
tp2031
Rp2032
sa(dp2033
S'action'
p2034
S'delete'
p2035
sS'order'
p2036
F1523921057.5542
sS'objid'
p2037
g8
(g12
S'\t\x00\x00\x00\x00\x00\x00\x00'
p2038
tp2039
Rp2040
sa(dp2041
S'action'
p2042
S'delete'
p2043
sS'order'
p2044
F1523921057.569586
sS'objid'
p2045
g8
(g12
S'\x08\x00\x00\x00\x00\x00\x00\x00'
p2046
tp2047
Rp2048
sa(dp2049
S'action'
p2050
S'delete'
p2051
sS'order'
p2052
F1523921057.584971
sS'objid'
p2053
g8
(g12
S'\x07\x00\x00\x00\x00\x00\x00\x00'
p2054
tp2055
Rp2056
sa(dp2057
S'action'
p2058
S'delete'
p2059
sS'order'
p2060
F1523921057.600501
sS'objid'
p2061
g8
(g12
S'\x06\x00\x00\x00\x00\x00\x00\x00'
p2062
tp2063
Rp2064
sa(dp2065
S'action'
p2066
S'delete'
p2067
sS'order'
p2068
F1523921057.615984
sS'objid'
p2069
g8
(g12
S'\x05\x00\x00\x00\x00\x00\x00\x00'
p2070
tp2071
Rp2072
sa(dp2073
S'action'
p2074
S'delete'
p2075
sS'order'
p2076
F1523921057.631494
sS'objid'
p2077
g8
(g12
S'\x04\x00\x00\x00\x00\x00\x00\x00'
p2078
tp2079
Rp2080
sa(dp2081
S'action'
p2082
S'delete'
p2083
sS'order'
p2084
F1523921057.647244
sS'objid'
p2085
g8
(g12
S'\x03\x00\x00\x00\x00\x00\x00\x00'
p2086
tp2087
Rp2088
sa(dp2089
S'action'
p2090
S'delete'
p2091
sS'order'
p2092
F1523921057.663613
sS'objid'
p2093
g8
(g12
S'\x01\x00\x00\x00\x00\x00\x00\x00'
p2094
tp2095
Rp2096
sa(dp2097
S'action'
p2098
S'delete'
p2099
sS'order'
p2100
F1523921057.679357
sS'objid'
p2101
g8
(g12
S'\x00\x00\x00\x00\x00\x00\x00\x00'
p2102
tp2103
Rp2104
sa.