(lp0
(dp1
S'action'
p2
S'join'
p3
sS'data_to_add'
p4
(lp5
sS'order'
p6
F1523920144.586709
sS'new_objid'
p7
cnumpy.core.multiarray
scalar
p8
(cnumpy
dtype
p9
(S'i8'
p10
I0
I1
tp11
Rp12
(I3
S'<'
p13
NNNI-1
I-1
I0
tp14
bS'\x18\x00\x00\x00\x00\x00\x00\x00'
p15
tp16
Rp17
sS'objids'
p18
(lp19
g8
(g12
S'\x00\x00\x00\x00\x00\x00\x00\x00'
p20
tp21
Rp22
ag8
(g12
S'\x01\x00\x00\x00\x00\x00\x00\x00'
p23
tp24
Rp25
asa(dp26
S'action'
p27
S'join'
p28
sS'data_to_add'
p29
(lp30
sS'order'
p31
F1523920157.232618
sS'new_objid'
p32
g8
(g12
S'\x19\x00\x00\x00\x00\x00\x00\x00'
p33
tp34
Rp35
sS'objids'
p36
(lp37
g8
(g12
S'\x08\x00\x00\x00\x00\x00\x00\x00'
p38
tp39
Rp40
ag8
(g12
S'\x18\x00\x00\x00\x00\x00\x00\x00'
p41
tp42
Rp43
asa(dp44
S'action'
p45
S'delete'
p46
sS'order'
p47
F1523920166.219381
sS'objid'
p48
g8
(g12
S'\r\x00\x00\x00\x00\x00\x00\x00'
p49
tp50
Rp51
sa(dp52
S'action'
p53
S'delete'
p54
sS'order'
p55
F1523920166.221055
sS'objid'
p56
g8
(g12
S'\x0c\x00\x00\x00\x00\x00\x00\x00'
p57
tp58
Rp59
sa(dp60
S'action'
p61
S'delete'
p62
sS'order'
p63
F1523920166.222584
sS'objid'
p64
g8
(g12
S'\x0b\x00\x00\x00\x00\x00\x00\x00'
p65
tp66
Rp67
sa(dp68
S'action'
p69
S'delete'
p70
sS'order'
p71
F1523920166.224186
sS'objid'
p72
g8
(g12
S'\n\x00\x00\x00\x00\x00\x00\x00'
p73
tp74
Rp75
sa(dp76
S'action'
p77
S'delete'
p78
sS'order'
p79
F1523920166.225855
sS'objid'
p80
g8
(g12
S'\t\x00\x00\x00\x00\x00\x00\x00'
p81
tp82
Rp83
sa(dp84
S'action'
p85
S'delete'
p86
sS'order'
p87
F1523920166.227516
sS'objid'
p88
g8
(g12
S'\x07\x00\x00\x00\x00\x00\x00\x00'
p89
tp90
Rp91
sa(dp92
S'action'
p93
S'delete'
p94
sS'order'
p95
F1523920166.228783
sS'objid'
p96
g8
(g12
S'\x06\x00\x00\x00\x00\x00\x00\x00'
p97
tp98
Rp99
sa(dp100
S'action'
p101
S'delete'
p102
sS'order'
p103
F1523920166.230132
sS'objid'
p104
g8
(g12
S'\x05\x00\x00\x00\x00\x00\x00\x00'
p105
tp106
Rp107
sa(dp108
S'action'
p109
S'delete'
p110
sS'order'
p111
F1523920166.23159
sS'objid'
p112
g8
(g12
S'\x04\x00\x00\x00\x00\x00\x00\x00'
p113
tp114
Rp115
sa(dp116
S'action'
p117
S'delete'
p118
sS'order'
p119
F1523920166.233041
sS'objid'
p120
g8
(g12
S'\x03\x00\x00\x00\x00\x00\x00\x00'
p121
tp122
Rp123
sa(dp124
S'action'
p125
S'delete'
p126
sS'order'
p127
F1523920166.234535
sS'objid'
p128
g8
(g12
S'\x02\x00\x00\x00\x00\x00\x00\x00'
p129
tp130
Rp131
sa.