(lp0
(dp1
S'action'
p2
S'join'
p3
sS'data_to_add'
p4
(lp5
sS'order'
p6
F1523919746.099186
sS'new_objid'
p7
cnumpy.core.multiarray
scalar
p8
(cnumpy
dtype
p9
(S'i8'
p10
I0
I1
tp11
Rp12
(I3
S'<'
p13
NNNI-1
I-1
I0
tp14
bS'\x17\x01\x00\x00\x00\x00\x00\x00'
p15
tp16
Rp17
sS'objids'
p18
(lp19
g8
(g12
S'\xa3\x00\x00\x00\x00\x00\x00\x00'
p20
tp21
Rp22
ag8
(g12
S'\x00\x00\x00\x00\x00\x00\x00\x00'
p23
tp24
Rp25
asa(dp26
S'action'
p27
S'join'
p28
sS'data_to_add'
p29
(lp30
sS'order'
p31
F1523919755.344623
sS'new_objid'
p32
g8
(g12
S'\x18\x01\x00\x00\x00\x00\x00\x00'
p33
tp34
Rp35
sS'objids'
p36
(lp37
g8
(g12
S'\x17\x01\x00\x00\x00\x00\x00\x00'
p38
tp39
Rp40
ag8
(g12
S'\xd5\x00\x00\x00\x00\x00\x00\x00'
p41
tp42
Rp43
asa(dp44
S'action'
p45
S'join'
p46
sS'data_to_add'
p47
(lp48
sS'order'
p49
F1523919768.124177
sS'new_objid'
p50
g8
(g12
S'\x19\x01\x00\x00\x00\x00\x00\x00'
p51
tp52
Rp53
sS'objids'
p54
(lp55
g8
(g12
S'\x18\x01\x00\x00\x00\x00\x00\x00'
p56
tp57
Rp58
ag8
(g12
S'\xfb\x00\x00\x00\x00\x00\x00\x00'
p59
tp60
Rp61
asa(dp62
S'action'
p63
S'delete'
p64
sS'order'
p65
F1523919783.155978
sS'objid'
p66
g8
(g12
S'\x0c\x01\x00\x00\x00\x00\x00\x00'
p67
tp68
Rp69
sa(dp70
S'action'
p71
S'delete'
p72
sS'order'
p73
F1523919783.15739
sS'objid'
p74
g8
(g12
S'\x0b\x01\x00\x00\x00\x00\x00\x00'
p75
tp76
Rp77
sa(dp78
S'action'
p79
S'delete'
p80
sS'order'
p81
F1523919783.158638
sS'objid'
p82
g8
(g12
S'\n\x01\x00\x00\x00\x00\x00\x00'
p83
tp84
Rp85
sa(dp86
S'action'
p87
S'delete'
p88
sS'order'
p89
F1523919783.159923
sS'objid'
p90
g8
(g12
S'\t\x01\x00\x00\x00\x00\x00\x00'
p91
tp92
Rp93
sa(dp94
S'action'
p95
S'delete'
p96
sS'order'
p97
F1523919783.161254
sS'objid'
p98
g8
(g12
S'\x08\x01\x00\x00\x00\x00\x00\x00'
p99
tp100
Rp101
sa(dp102
S'action'
p103
S'delete'
p104
sS'order'
p105
F1523919783.162631
sS'objid'
p106
g8
(g12
S'\x07\x01\x00\x00\x00\x00\x00\x00'
p107
tp108
Rp109
sa(dp110
S'action'
p111
S'delete'
p112
sS'order'
p113
F1523919783.165699
sS'objid'
p114
g8
(g12
S'\x06\x01\x00\x00\x00\x00\x00\x00'
p115
tp116
Rp117
sa(dp118
S'action'
p119
S'delete'
p120
sS'order'
p121
F1523919783.168877
sS'objid'
p122
g8
(g12
S'\x05\x01\x00\x00\x00\x00\x00\x00'
p123
tp124
Rp125
sa(dp126
S'action'
p127
S'delete'
p128
sS'order'
p129
F1523919783.17117
sS'objid'
p130
g8
(g12
S'\x04\x01\x00\x00\x00\x00\x00\x00'
p131
tp132
Rp133
sa(dp134
S'action'
p135
S'delete'
p136
sS'order'
p137
F1523919783.172846
sS'objid'
p138
g8
(g12
S'\x03\x01\x00\x00\x00\x00\x00\x00'
p139
tp140
Rp141
sa(dp142
S'action'
p143
S'delete'
p144
sS'order'
p145
F1523919783.174535
sS'objid'
p146
g8
(g12
S'\x02\x01\x00\x00\x00\x00\x00\x00'
p147
tp148
Rp149
sa(dp150
S'action'
p151
S'delete'
p152
sS'order'
p153
F1523919783.176305
sS'objid'
p154
g8
(g12
S'\x01\x01\x00\x00\x00\x00\x00\x00'
p155
tp156
Rp157
sa(dp158
S'action'
p159
S'delete'
p160
sS'order'
p161
F1523919783.17812
sS'objid'
p162
g8
(g12
S'\x00\x01\x00\x00\x00\x00\x00\x00'
p163
tp164
Rp165
sa(dp166
S'action'
p167
S'delete'
p168
sS'order'
p169
F1523919783.179983
sS'objid'
p170
g8
(g12
S'\xff\x00\x00\x00\x00\x00\x00\x00'
p171
tp172
Rp173
sa(dp174
S'action'
p175
S'delete'
p176
sS'order'
p177
F1523919783.181918
sS'objid'
p178
g8
(g12
S'\xfe\x00\x00\x00\x00\x00\x00\x00'
p179
tp180
Rp181
sa(dp182
S'action'
p183
S'delete'
p184
sS'order'
p185
F1523919783.183982
sS'objid'
p186
g8
(g12
S'\xfd\x00\x00\x00\x00\x00\x00\x00'
p187
tp188
Rp189
sa(dp190
S'action'
p191
S'delete'
p192
sS'order'
p193
F1523919783.186047
sS'objid'
p194
g8
(g12
S'\xfc\x00\x00\x00\x00\x00\x00\x00'
p195
tp196
Rp197
sa(dp198
S'action'
p199
S'delete'
p200
sS'order'
p201
F1523919783.188267
sS'objid'
p202
g8
(g12
S'\xfa\x00\x00\x00\x00\x00\x00\x00'
p203
tp204
Rp205
sa(dp206
S'action'
p207
S'delete'
p208
sS'order'
p209
F1523919783.19042
sS'objid'
p210
g8
(g12
S'\xf9\x00\x00\x00\x00\x00\x00\x00'
p211
tp212
Rp213
sa(dp214
S'action'
p215
S'delete'
p216
sS'order'
p217
F1523919783.19266
sS'objid'
p218
g8
(g12
S'\xf8\x00\x00\x00\x00\x00\x00\x00'
p219
tp220
Rp221
sa(dp222
S'action'
p223
S'delete'
p224
sS'order'
p225
F1523919783.196237
sS'objid'
p226
g8
(g12
S'\xf7\x00\x00\x00\x00\x00\x00\x00'
p227
tp228
Rp229
sa(dp230
S'action'
p231
S'delete'
p232
sS'order'
p233
F1523919783.200309
sS'objid'
p234
g8
(g12
S'\xf6\x00\x00\x00\x00\x00\x00\x00'
p235
tp236
Rp237
sa(dp238
S'action'
p239
S'delete'
p240
sS'order'
p241
F1523919783.202954
sS'objid'
p242
g8
(g12
S'\xf5\x00\x00\x00\x00\x00\x00\x00'
p243
tp244
Rp245
sa(dp246
S'action'
p247
S'delete'
p248
sS'order'
p249
F1523919783.20546
sS'objid'
p250
g8
(g12
S'\xf4\x00\x00\x00\x00\x00\x00\x00'
p251
tp252
Rp253
sa(dp254
S'action'
p255
S'delete'
p256
sS'order'
p257
F1523919783.207985
sS'objid'
p258
g8
(g12
S'\xf3\x00\x00\x00\x00\x00\x00\x00'
p259
tp260
Rp261
sa(dp262
S'action'
p263
S'delete'
p264
sS'order'
p265
F1523919783.210643
sS'objid'
p266
g8
(g12
S'\xf2\x00\x00\x00\x00\x00\x00\x00'
p267
tp268
Rp269
sa(dp270
S'action'
p271
S'delete'
p272
sS'order'
p273
F1523919783.213365
sS'objid'
p274
g8
(g12
S'\xf1\x00\x00\x00\x00\x00\x00\x00'
p275
tp276
Rp277
sa(dp278
S'action'
p279
S'delete'
p280
sS'order'
p281
F1523919783.21608
sS'objid'
p282
g8
(g12
S'\xf0\x00\x00\x00\x00\x00\x00\x00'
p283
tp284
Rp285
sa(dp286
S'action'
p287
S'delete'
p288
sS'order'
p289
F1523919783.220849
sS'objid'
p290
g8
(g12
S'\xef\x00\x00\x00\x00\x00\x00\x00'
p291
tp292
Rp293
sa(dp294
S'action'
p295
S'delete'
p296
sS'order'
p297
F1523919783.224054
sS'objid'
p298
g8
(g12
S'\xee\x00\x00\x00\x00\x00\x00\x00'
p299
tp300
Rp301
sa(dp302
S'action'
p303
S'delete'
p304
sS'order'
p305
F1523919783.226924
sS'objid'
p306
g8
(g12
S'\xed\x00\x00\x00\x00\x00\x00\x00'
p307
tp308
Rp309
sa(dp310
S'action'
p311
S'delete'
p312
sS'order'
p313
F1523919783.229987
sS'objid'
p314
g8
(g12
S'\xec\x00\x00\x00\x00\x00\x00\x00'
p315
tp316
Rp317
sa(dp318
S'action'
p319
S'delete'
p320
sS'order'
p321
F1523919783.233009
sS'objid'
p322
g8
(g12
S'\xeb\x00\x00\x00\x00\x00\x00\x00'
p323
tp324
Rp325
sa(dp326
S'action'
p327
S'delete'
p328
sS'order'
p329
F1523919783.238543
sS'objid'
p330
g8
(g12
S'\xea\x00\x00\x00\x00\x00\x00\x00'
p331
tp332
Rp333
sa(dp334
S'action'
p335
S'delete'
p336
sS'order'
p337
F1523919783.241714
sS'objid'
p338
g8
(g12
S'\xe9\x00\x00\x00\x00\x00\x00\x00'
p339
tp340
Rp341
sa(dp342
S'action'
p343
S'delete'
p344
sS'order'
p345
F1523919783.244967
sS'objid'
p346
g8
(g12
S'\xe8\x00\x00\x00\x00\x00\x00\x00'
p347
tp348
Rp349
sa(dp350
S'action'
p351
S'delete'
p352
sS'order'
p353
F1523919783.248241
sS'objid'
p354
g8
(g12
S'\xe7\x00\x00\x00\x00\x00\x00\x00'
p355
tp356
Rp357
sa(dp358
S'action'
p359
S'delete'
p360
sS'order'
p361
F1523919783.251586
sS'objid'
p362
g8
(g12
S'\xe6\x00\x00\x00\x00\x00\x00\x00'
p363
tp364
Rp365
sa(dp366
S'action'
p367
S'delete'
p368
sS'order'
p369
F1523919783.254977
sS'objid'
p370
g8
(g12
S'\xe5\x00\x00\x00\x00\x00\x00\x00'
p371
tp372
Rp373
sa(dp374
S'action'
p375
S'delete'
p376
sS'order'
p377
F1523919783.258472
sS'objid'
p378
g8
(g12
S'\xe4\x00\x00\x00\x00\x00\x00\x00'
p379
tp380
Rp381
sa(dp382
S'action'
p383
S'delete'
p384
sS'order'
p385
F1523919783.261989
sS'objid'
p386
g8
(g12
S'\xe3\x00\x00\x00\x00\x00\x00\x00'
p387
tp388
Rp389
sa(dp390
S'action'
p391
S'delete'
p392
sS'order'
p393
F1523919783.265591
sS'objid'
p394
g8
(g12
S'\xe2\x00\x00\x00\x00\x00\x00\x00'
p395
tp396
Rp397
sa(dp398
S'action'
p399
S'delete'
p400
sS'order'
p401
F1523919783.269217
sS'objid'
p402
g8
(g12
S'\xe1\x00\x00\x00\x00\x00\x00\x00'
p403
tp404
Rp405
sa(dp406
S'action'
p407
S'delete'
p408
sS'order'
p409
F1523919783.27295
sS'objid'
p410
g8
(g12
S'\xe0\x00\x00\x00\x00\x00\x00\x00'
p411
tp412
Rp413
sa(dp414
S'action'
p415
S'delete'
p416
sS'order'
p417
F1523919783.276723
sS'objid'
p418
g8
(g12
S'\xdf\x00\x00\x00\x00\x00\x00\x00'
p419
tp420
Rp421
sa(dp422
S'action'
p423
S'delete'
p424
sS'order'
p425
F1523919783.281601
sS'objid'
p426
g8
(g12
S'\xde\x00\x00\x00\x00\x00\x00\x00'
p427
tp428
Rp429
sa(dp430
S'action'
p431
S'delete'
p432
sS'order'
p433
F1523919783.288341
sS'objid'
p434
g8
(g12
S'\xdd\x00\x00\x00\x00\x00\x00\x00'
p435
tp436
Rp437
sa(dp438
S'action'
p439
S'delete'
p440
sS'order'
p441
F1523919799.586894
sS'objid'
p442
g8
(g12
S'\xdc\x00\x00\x00\x00\x00\x00\x00'
p443
tp444
Rp445
sa(dp446
S'action'
p447
S'delete'
p448
sS'order'
p449
F1523919799.592837
sS'objid'
p450
g8
(g12
S'\xdb\x00\x00\x00\x00\x00\x00\x00'
p451
tp452
Rp453
sa(dp454
S'action'
p455
S'delete'
p456
sS'order'
p457
F1523919799.599084
sS'objid'
p458
g8
(g12
S'\xda\x00\x00\x00\x00\x00\x00\x00'
p459
tp460
Rp461
sa(dp462
S'action'
p463
S'delete'
p464
sS'order'
p465
F1523919799.607306
sS'objid'
p466
g8
(g12
S'\xd9\x00\x00\x00\x00\x00\x00\x00'
p467
tp468
Rp469
sa(dp470
S'action'
p471
S'delete'
p472
sS'order'
p473
F1523919799.612994
sS'objid'
p474
g8
(g12
S'\xd8\x00\x00\x00\x00\x00\x00\x00'
p475
tp476
Rp477
sa(dp478
S'action'
p479
S'delete'
p480
sS'order'
p481
F1523919799.617861
sS'objid'
p482
g8
(g12
S'\xd7\x00\x00\x00\x00\x00\x00\x00'
p483
tp484
Rp485
sa(dp486
S'action'
p487
S'delete'
p488
sS'order'
p489
F1523919799.624155
sS'objid'
p490
g8
(g12
S'\xd6\x00\x00\x00\x00\x00\x00\x00'
p491
tp492
Rp493
sa(dp494
S'action'
p495
S'delete'
p496
sS'order'
p497
F1523919799.628526
sS'objid'
p498
g8
(g12
S'\xd4\x00\x00\x00\x00\x00\x00\x00'
p499
tp500
Rp501
sa(dp502
S'action'
p503
S'delete'
p504
sS'order'
p505
F1523919799.632963
sS'objid'
p506
g8
(g12
S'\xd3\x00\x00\x00\x00\x00\x00\x00'
p507
tp508
Rp509
sa(dp510
S'action'
p511
S'delete'
p512
sS'order'
p513
F1523919799.637437
sS'objid'
p514
g8
(g12
S'\xd2\x00\x00\x00\x00\x00\x00\x00'
p515
tp516
Rp517
sa(dp518
S'action'
p519
S'delete'
p520
sS'order'
p521
F1523919799.641969
sS'objid'
p522
g8
(g12
S'\xd1\x00\x00\x00\x00\x00\x00\x00'
p523
tp524
Rp525
sa(dp526
S'action'
p527
S'delete'
p528
sS'order'
p529
F1523919799.646542
sS'objid'
p530
g8
(g12
S'\xd0\x00\x00\x00\x00\x00\x00\x00'
p531
tp532
Rp533
sa(dp534
S'action'
p535
S'delete'
p536
sS'order'
p537
F1523919799.651226
sS'objid'
p538
g8
(g12
S'\xcf\x00\x00\x00\x00\x00\x00\x00'
p539
tp540
Rp541
sa(dp542
S'action'
p543
S'delete'
p544
sS'order'
p545
F1523919799.655933
sS'objid'
p546
g8
(g12
S'\xce\x00\x00\x00\x00\x00\x00\x00'
p547
tp548
Rp549
sa(dp550
S'action'
p551
S'delete'
p552
sS'order'
p553
F1523919799.660694
sS'objid'
p554
g8
(g12
S'\xcd\x00\x00\x00\x00\x00\x00\x00'
p555
tp556
Rp557
sa(dp558
S'action'
p559
S'delete'
p560
sS'order'
p561
F1523919799.665529
sS'objid'
p562
g8
(g12
S'\xcc\x00\x00\x00\x00\x00\x00\x00'
p563
tp564
Rp565
sa(dp566
S'action'
p567
S'delete'
p568
sS'order'
p569
F1523919799.670426
sS'objid'
p570
g8
(g12
S'\xcb\x00\x00\x00\x00\x00\x00\x00'
p571
tp572
Rp573
sa(dp574
S'action'
p575
S'delete'
p576
sS'order'
p577
F1523919799.67544
sS'objid'
p578
g8
(g12
S'\xca\x00\x00\x00\x00\x00\x00\x00'
p579
tp580
Rp581
sa(dp582
S'action'
p583
S'delete'
p584
sS'order'
p585
F1523919799.680521
sS'objid'
p586
g8
(g12
S'\xc9\x00\x00\x00\x00\x00\x00\x00'
p587
tp588
Rp589
sa(dp590
S'action'
p591
S'delete'
p592
sS'order'
p593
F1523919799.685604
sS'objid'
p594
g8
(g12
S'\xc8\x00\x00\x00\x00\x00\x00\x00'
p595
tp596
Rp597
sa(dp598
S'action'
p599
S'delete'
p600
sS'order'
p601
F1523919799.690819
sS'objid'
p602
g8
(g12
S'\xc7\x00\x00\x00\x00\x00\x00\x00'
p603
tp604
Rp605
sa(dp606
S'action'
p607
S'delete'
p608
sS'order'
p609
F1523919799.696032
sS'objid'
p610
g8
(g12
S'\xc6\x00\x00\x00\x00\x00\x00\x00'
p611
tp612
Rp613
sa(dp614
S'action'
p615
S'delete'
p616
sS'order'
p617
F1523919799.701278
sS'objid'
p618
g8
(g12
S'\xc5\x00\x00\x00\x00\x00\x00\x00'
p619
tp620
Rp621
sa(dp622
S'action'
p623
S'delete'
p624
sS'order'
p625
F1523919799.706599
sS'objid'
p626
g8
(g12
S'\xc4\x00\x00\x00\x00\x00\x00\x00'
p627
tp628
Rp629
sa(dp630
S'action'
p631
S'delete'
p632
sS'order'
p633
F1523919799.712
sS'objid'
p634
g8
(g12
S'\xc3\x00\x00\x00\x00\x00\x00\x00'
p635
tp636
Rp637
sa(dp638
S'action'
p639
S'delete'
p640
sS'order'
p641
F1523919799.717427
sS'objid'
p642
g8
(g12
S'\xc2\x00\x00\x00\x00\x00\x00\x00'
p643
tp644
Rp645
sa(dp646
S'action'
p647
S'delete'
p648
sS'order'
p649
F1523919799.722918
sS'objid'
p650
g8
(g12
S'\xc1\x00\x00\x00\x00\x00\x00\x00'
p651
tp652
Rp653
sa(dp654
S'action'
p655
S'delete'
p656
sS'order'
p657
F1523919799.728495
sS'objid'
p658
g8
(g12
S'\xc0\x00\x00\x00\x00\x00\x00\x00'
p659
tp660
Rp661
sa(dp662
S'action'
p663
S'delete'
p664
sS'order'
p665
F1523919799.734069
sS'objid'
p666
g8
(g12
S'\xbf\x00\x00\x00\x00\x00\x00\x00'
p667
tp668
Rp669
sa(dp670
S'action'
p671
S'delete'
p672
sS'order'
p673
F1523919799.739751
sS'objid'
p674
g8
(g12
S'\xbe\x00\x00\x00\x00\x00\x00\x00'
p675
tp676
Rp677
sa(dp678
S'action'
p679
S'delete'
p680
sS'order'
p681
F1523919799.745503
sS'objid'
p682
g8
(g12
S'\xbd\x00\x00\x00\x00\x00\x00\x00'
p683
tp684
Rp685
sa(dp686
S'action'
p687
S'delete'
p688
sS'order'
p689
F1523919799.751283
sS'objid'
p690
g8
(g12
S'\xbc\x00\x00\x00\x00\x00\x00\x00'
p691
tp692
Rp693
sa(dp694
S'action'
p695
S'delete'
p696
sS'order'
p697
F1523919799.757131
sS'objid'
p698
g8
(g12
S'\xbb\x00\x00\x00\x00\x00\x00\x00'
p699
tp700
Rp701
sa(dp702
S'action'
p703
S'delete'
p704
sS'order'
p705
F1523919799.763062
sS'objid'
p706
g8
(g12
S'\xba\x00\x00\x00\x00\x00\x00\x00'
p707
tp708
Rp709
sa(dp710
S'action'
p711
S'delete'
p712
sS'order'
p713
F1523919799.769039
sS'objid'
p714
g8
(g12
S'\xb9\x00\x00\x00\x00\x00\x00\x00'
p715
tp716
Rp717
sa(dp718
S'action'
p719
S'delete'
p720
sS'order'
p721
F1523919799.775072
sS'objid'
p722
g8
(g12
S'\xb8\x00\x00\x00\x00\x00\x00\x00'
p723
tp724
Rp725
sa(dp726
S'action'
p727
S'delete'
p728
sS'order'
p729
F1523919799.781221
sS'objid'
p730
g8
(g12
S'\xb7\x00\x00\x00\x00\x00\x00\x00'
p731
tp732
Rp733
sa(dp734
S'action'
p735
S'delete'
p736
sS'order'
p737
F1523919799.787446
sS'objid'
p738
g8
(g12
S'\xb6\x00\x00\x00\x00\x00\x00\x00'
p739
tp740
Rp741
sa(dp742
S'action'
p743
S'delete'
p744
sS'order'
p745
F1523919799.793721
sS'objid'
p746
g8
(g12
S'\xb5\x00\x00\x00\x00\x00\x00\x00'
p747
tp748
Rp749
sa(dp750
S'action'
p751
S'delete'
p752
sS'order'
p753
F1523919799.800023
sS'objid'
p754
g8
(g12
S'\xb4\x00\x00\x00\x00\x00\x00\x00'
p755
tp756
Rp757
sa(dp758
S'action'
p759
S'delete'
p760
sS'order'
p761
F1523919799.806359
sS'objid'
p762
g8
(g12
S'\xb3\x00\x00\x00\x00\x00\x00\x00'
p763
tp764
Rp765
sa(dp766
S'action'
p767
S'delete'
p768
sS'order'
p769
F1523919799.812786
sS'objid'
p770
g8
(g12
S'\xb2\x00\x00\x00\x00\x00\x00\x00'
p771
tp772
Rp773
sa(dp774
S'action'
p775
S'delete'
p776
sS'order'
p777
F1523919799.819244
sS'objid'
p778
g8
(g12
S'\xb1\x00\x00\x00\x00\x00\x00\x00'
p779
tp780
Rp781
sa(dp782
S'action'
p783
S'delete'
p784
sS'order'
p785
F1523919799.825746
sS'objid'
p786
g8
(g12
S'\xb0\x00\x00\x00\x00\x00\x00\x00'
p787
tp788
Rp789
sa(dp790
S'action'
p791
S'delete'
p792
sS'order'
p793
F1523919799.832321
sS'objid'
p794
g8
(g12
S'\xaf\x00\x00\x00\x00\x00\x00\x00'
p795
tp796
Rp797
sa(dp798
S'action'
p799
S'delete'
p800
sS'order'
p801
F1523919799.838935
sS'objid'
p802
g8
(g12
S'\xae\x00\x00\x00\x00\x00\x00\x00'
p803
tp804
Rp805
sa(dp806
S'action'
p807
S'delete'
p808
sS'order'
p809
F1523919799.845622
sS'objid'
p810
g8
(g12
S'\xad\x00\x00\x00\x00\x00\x00\x00'
p811
tp812
Rp813
sa(dp814
S'action'
p815
S'delete'
p816
sS'order'
p817
F1523919799.852379
sS'objid'
p818
g8
(g12
S'\xac\x00\x00\x00\x00\x00\x00\x00'
p819
tp820
Rp821
sa(dp822
S'action'
p823
S'delete'
p824
sS'order'
p825
F1523919799.859203
sS'objid'
p826
g8
(g12
S'\xab\x00\x00\x00\x00\x00\x00\x00'
p827
tp828
Rp829
sa(dp830
S'action'
p831
S'delete'
p832
sS'order'
p833
F1523919799.866065
sS'objid'
p834
g8
(g12
S'\xaa\x00\x00\x00\x00\x00\x00\x00'
p835
tp836
Rp837
sa(dp838
S'action'
p839
S'delete'
p840
sS'order'
p841
F1523919799.872994
sS'objid'
p842
g8
(g12
S'\xa9\x00\x00\x00\x00\x00\x00\x00'
p843
tp844
Rp845
sa(dp846
S'action'
p847
S'delete'
p848
sS'order'
p849
F1523919799.880015
sS'objid'
p850
g8
(g12
S'\xa8\x00\x00\x00\x00\x00\x00\x00'
p851
tp852
Rp853
sa(dp854
S'action'
p855
S'delete'
p856
sS'order'
p857
F1523919799.887132
sS'objid'
p858
g8
(g12
S'\xa7\x00\x00\x00\x00\x00\x00\x00'
p859
tp860
Rp861
sa(dp862
S'action'
p863
S'delete'
p864
sS'order'
p865
F1523919808.585541
sS'objid'
p866
g8
(g12
S'\xa6\x00\x00\x00\x00\x00\x00\x00'
p867
tp868
Rp869
sa(dp870
S'action'
p871
S'delete'
p872
sS'order'
p873
F1523919808.598185
sS'objid'
p874
g8
(g12
S'\xa5\x00\x00\x00\x00\x00\x00\x00'
p875
tp876
Rp877
sa(dp878
S'action'
p879
S'delete'
p880
sS'order'
p881
F1523919808.605488
sS'objid'
p882
g8
(g12
S'\xa4\x00\x00\x00\x00\x00\x00\x00'
p883
tp884
Rp885
sa(dp886
S'action'
p887
S'delete'
p888
sS'order'
p889
F1523919808.612863
sS'objid'
p890
g8
(g12
S'\xa2\x00\x00\x00\x00\x00\x00\x00'
p891
tp892
Rp893
sa(dp894
S'action'
p895
S'delete'
p896
sS'order'
p897
F1523919808.620308
sS'objid'
p898
g8
(g12
S'\xa1\x00\x00\x00\x00\x00\x00\x00'
p899
tp900
Rp901
sa(dp902
S'action'
p903
S'delete'
p904
sS'order'
p905
F1523919808.627689
sS'objid'
p906
g8
(g12
S'\xa0\x00\x00\x00\x00\x00\x00\x00'
p907
tp908
Rp909
sa(dp910
S'action'
p911
S'delete'
p912
sS'order'
p913
F1523919808.635118
sS'objid'
p914
g8
(g12
S'\x9f\x00\x00\x00\x00\x00\x00\x00'
p915
tp916
Rp917
sa(dp918
S'action'
p919
S'delete'
p920
sS'order'
p921
F1523919808.642628
sS'objid'
p922
g8
(g12
S'\x9e\x00\x00\x00\x00\x00\x00\x00'
p923
tp924
Rp925
sa(dp926
S'action'
p927
S'delete'
p928
sS'order'
p929
F1523919808.650253
sS'objid'
p930
g8
(g12
S'\x9d\x00\x00\x00\x00\x00\x00\x00'
p931
tp932
Rp933
sa(dp934
S'action'
p935
S'delete'
p936
sS'order'
p937
F1523919808.657952
sS'objid'
p938
g8
(g12
S'\x9c\x00\x00\x00\x00\x00\x00\x00'
p939
tp940
Rp941
sa(dp942
S'action'
p943
S'delete'
p944
sS'order'
p945
F1523919808.665728
sS'objid'
p946
g8
(g12
S'\x9b\x00\x00\x00\x00\x00\x00\x00'
p947
tp948
Rp949
sa(dp950
S'action'
p951
S'delete'
p952
sS'order'
p953
F1523919808.67349
sS'objid'
p954
g8
(g12
S'\x9a\x00\x00\x00\x00\x00\x00\x00'
p955
tp956
Rp957
sa(dp958
S'action'
p959
S'delete'
p960
sS'order'
p961
F1523919808.681284
sS'objid'
p962
g8
(g12
S'\x99\x00\x00\x00\x00\x00\x00\x00'
p963
tp964
Rp965
sa(dp966
S'action'
p967
S'delete'
p968
sS'order'
p969
F1523919808.689191
sS'objid'
p970
g8
(g12
S'\x98\x00\x00\x00\x00\x00\x00\x00'
p971
tp972
Rp973
sa(dp974
S'action'
p975
S'delete'
p976
sS'order'
p977
F1523919808.69711
sS'objid'
p978
g8
(g12
S'\x97\x00\x00\x00\x00\x00\x00\x00'
p979
tp980
Rp981
sa(dp982
S'action'
p983
S'delete'
p984
sS'order'
p985
F1523919808.70507
sS'objid'
p986
g8
(g12
S'\x96\x00\x00\x00\x00\x00\x00\x00'
p987
tp988
Rp989
sa(dp990
S'action'
p991
S'delete'
p992
sS'order'
p993
F1523919808.713111
sS'objid'
p994
g8
(g12
S'\x95\x00\x00\x00\x00\x00\x00\x00'
p995
tp996
Rp997
sa(dp998
S'action'
p999
S'delete'
p1000
sS'order'
p1001
F1523919808.721211
sS'objid'
p1002
g8
(g12
S'\x94\x00\x00\x00\x00\x00\x00\x00'
p1003
tp1004
Rp1005
sa(dp1006
S'action'
p1007
S'delete'
p1008
sS'order'
p1009
F1523919808.729374
sS'objid'
p1010
g8
(g12
S'\x93\x00\x00\x00\x00\x00\x00\x00'
p1011
tp1012
Rp1013
sa(dp1014
S'action'
p1015
S'delete'
p1016
sS'order'
p1017
F1523919808.737594
sS'objid'
p1018
g8
(g12
S'\x92\x00\x00\x00\x00\x00\x00\x00'
p1019
tp1020
Rp1021
sa(dp1022
S'action'
p1023
S'delete'
p1024
sS'order'
p1025
F1523919808.745856
sS'objid'
p1026
g8
(g12
S'\x91\x00\x00\x00\x00\x00\x00\x00'
p1027
tp1028
Rp1029
sa(dp1030
S'action'
p1031
S'delete'
p1032
sS'order'
p1033
F1523919808.754228
sS'objid'
p1034
g8
(g12
S'\x90\x00\x00\x00\x00\x00\x00\x00'
p1035
tp1036
Rp1037
sa(dp1038
S'action'
p1039
S'delete'
p1040
sS'order'
p1041
F1523919808.762819
sS'objid'
p1042
g8
(g12
S'\x8f\x00\x00\x00\x00\x00\x00\x00'
p1043
tp1044
Rp1045
sa(dp1046
S'action'
p1047
S'delete'
p1048
sS'order'
p1049
F1523919808.771296
sS'objid'
p1050
g8
(g12
S'\x8e\x00\x00\x00\x00\x00\x00\x00'
p1051
tp1052
Rp1053
sa(dp1054
S'action'
p1055
S'delete'
p1056
sS'order'
p1057
F1523919808.779822
sS'objid'
p1058
g8
(g12
S'\x8d\x00\x00\x00\x00\x00\x00\x00'
p1059
tp1060
Rp1061
sa(dp1062
S'action'
p1063
S'delete'
p1064
sS'order'
p1065
F1523919808.788403
sS'objid'
p1066
g8
(g12
S'\x8c\x00\x00\x00\x00\x00\x00\x00'
p1067
tp1068
Rp1069
sa(dp1070
S'action'
p1071
S'delete'
p1072
sS'order'
p1073
F1523919808.797043
sS'objid'
p1074
g8
(g12
S'\x8b\x00\x00\x00\x00\x00\x00\x00'
p1075
tp1076
Rp1077
sa(dp1078
S'action'
p1079
S'delete'
p1080
sS'order'
p1081
F1523919808.805752
sS'objid'
p1082
g8
(g12
S'\x8a\x00\x00\x00\x00\x00\x00\x00'
p1083
tp1084
Rp1085
sa(dp1086
S'action'
p1087
S'delete'
p1088
sS'order'
p1089
F1523919808.814536
sS'objid'
p1090
g8
(g12
S'\x89\x00\x00\x00\x00\x00\x00\x00'
p1091
tp1092
Rp1093
sa(dp1094
S'action'
p1095
S'delete'
p1096
sS'order'
p1097
F1523919808.82335
sS'objid'
p1098
g8
(g12
S'\x88\x00\x00\x00\x00\x00\x00\x00'
p1099
tp1100
Rp1101
sa(dp1102
S'action'
p1103
S'delete'
p1104
sS'order'
p1105
F1523919808.832211
sS'objid'
p1106
g8
(g12
S'\x87\x00\x00\x00\x00\x00\x00\x00'
p1107
tp1108
Rp1109
sa(dp1110
S'action'
p1111
S'delete'
p1112
sS'order'
p1113
F1523919808.841166
sS'objid'
p1114
g8
(g12
S'\x86\x00\x00\x00\x00\x00\x00\x00'
p1115
tp1116
Rp1117
sa(dp1118
S'action'
p1119
S'delete'
p1120
sS'order'
p1121
F1523919808.850174
sS'objid'
p1122
g8
(g12
S'\x85\x00\x00\x00\x00\x00\x00\x00'
p1123
tp1124
Rp1125
sa(dp1126
S'action'
p1127
S'delete'
p1128
sS'order'
p1129
F1523919808.859397
sS'objid'
p1130
g8
(g12
S'\x84\x00\x00\x00\x00\x00\x00\x00'
p1131
tp1132
Rp1133
sa(dp1134
S'action'
p1135
S'delete'
p1136
sS'order'
p1137
F1523919808.868631
sS'objid'
p1138
g8
(g12
S'\x83\x00\x00\x00\x00\x00\x00\x00'
p1139
tp1140
Rp1141
sa(dp1142
S'action'
p1143
S'delete'
p1144
sS'order'
p1145
F1523919808.877846
sS'objid'
p1146
g8
(g12
S'\x82\x00\x00\x00\x00\x00\x00\x00'
p1147
tp1148
Rp1149
sa(dp1150
S'action'
p1151
S'delete'
p1152
sS'order'
p1153
F1523919808.887066
sS'objid'
p1154
g8
(g12
S'\x81\x00\x00\x00\x00\x00\x00\x00'
p1155
tp1156
Rp1157
sa(dp1158
S'action'
p1159
S'delete'
p1160
sS'order'
p1161
F1523919808.896396
sS'objid'
p1162
g8
(g12
S'\x80\x00\x00\x00\x00\x00\x00\x00'
p1163
tp1164
Rp1165
sa(dp1166
S'action'
p1167
S'delete'
p1168
sS'order'
p1169
F1523919808.905734
sS'objid'
p1170
g8
(g12
S'\x7f\x00\x00\x00\x00\x00\x00\x00'
p1171
tp1172
Rp1173
sa(dp1174
S'action'
p1175
S'delete'
p1176
sS'order'
p1177
F1523919808.915125
sS'objid'
p1178
g8
(g12
S'~\x00\x00\x00\x00\x00\x00\x00'
p1179
tp1180
Rp1181
sa(dp1182
S'action'
p1183
S'delete'
p1184
sS'order'
p1185
F1523919808.924634
sS'objid'
p1186
g8
(g12
S'}\x00\x00\x00\x00\x00\x00\x00'
p1187
tp1188
Rp1189
sa(dp1190
S'action'
p1191
S'delete'
p1192
sS'order'
p1193
F1523919808.934186
sS'objid'
p1194
g8
(g12
S'|\x00\x00\x00\x00\x00\x00\x00'
p1195
tp1196
Rp1197
sa(dp1198
S'action'
p1199
S'delete'
p1200
sS'order'
p1201
F1523919808.943757
sS'objid'
p1202
g8
(g12
S'{\x00\x00\x00\x00\x00\x00\x00'
p1203
tp1204
Rp1205
sa(dp1206
S'action'
p1207
S'delete'
p1208
sS'order'
p1209
F1523919808.953444
sS'objid'
p1210
g8
(g12
S'z\x00\x00\x00\x00\x00\x00\x00'
p1211
tp1212
Rp1213
sa(dp1214
S'action'
p1215
S'delete'
p1216
sS'order'
p1217
F1523919808.963201
sS'objid'
p1218
g8
(g12
S'y\x00\x00\x00\x00\x00\x00\x00'
p1219
tp1220
Rp1221
sa(dp1222
S'action'
p1223
S'delete'
p1224
sS'order'
p1225
F1523919808.973019
sS'objid'
p1226
g8
(g12
S'x\x00\x00\x00\x00\x00\x00\x00'
p1227
tp1228
Rp1229
sa(dp1230
S'action'
p1231
S'delete'
p1232
sS'order'
p1233
F1523919808.982907
sS'objid'
p1234
g8
(g12
S'w\x00\x00\x00\x00\x00\x00\x00'
p1235
tp1236
Rp1237
sa(dp1238
S'action'
p1239
S'delete'
p1240
sS'order'
p1241
F1523919808.99278
sS'objid'
p1242
g8
(g12
S'v\x00\x00\x00\x00\x00\x00\x00'
p1243
tp1244
Rp1245
sa(dp1246
S'action'
p1247
S'delete'
p1248
sS'order'
p1249
F1523919809.00273
sS'objid'
p1250
g8
(g12
S'u\x00\x00\x00\x00\x00\x00\x00'
p1251
tp1252
Rp1253
sa(dp1254
S'action'
p1255
S'delete'
p1256
sS'order'
p1257
F1523919809.012767
sS'objid'
p1258
g8
(g12
S't\x00\x00\x00\x00\x00\x00\x00'
p1259
tp1260
Rp1261
sa(dp1262
S'action'
p1263
S'delete'
p1264
sS'order'
p1265
F1523919809.022809
sS'objid'
p1266
g8
(g12
S's\x00\x00\x00\x00\x00\x00\x00'
p1267
tp1268
Rp1269
sa(dp1270
S'action'
p1271
S'delete'
p1272
sS'order'
p1273
F1523919809.032955
sS'objid'
p1274
g8
(g12
S'r\x00\x00\x00\x00\x00\x00\x00'
p1275
tp1276
Rp1277
sa(dp1278
S'action'
p1279
S'delete'
p1280
sS'order'
p1281
F1523919809.043198
sS'objid'
p1282
g8
(g12
S'q\x00\x00\x00\x00\x00\x00\x00'
p1283
tp1284
Rp1285
sa(dp1286
S'action'
p1287
S'delete'
p1288
sS'order'
p1289
F1523919809.053438
sS'objid'
p1290
g8
(g12
S'p\x00\x00\x00\x00\x00\x00\x00'
p1291
tp1292
Rp1293
sa(dp1294
S'action'
p1295
S'delete'
p1296
sS'order'
p1297
F1523919809.063791
sS'objid'
p1298
g8
(g12
S'o\x00\x00\x00\x00\x00\x00\x00'
p1299
tp1300
Rp1301
sa(dp1302
S'action'
p1303
S'delete'
p1304
sS'order'
p1305
F1523919822.489795
sS'objid'
p1306
g8
(g12
S'n\x00\x00\x00\x00\x00\x00\x00'
p1307
tp1308
Rp1309
sa(dp1310
S'action'
p1311
S'delete'
p1312
sS'order'
p1313
F1523919822.504232
sS'objid'
p1314
g8
(g12
S'm\x00\x00\x00\x00\x00\x00\x00'
p1315
tp1316
Rp1317
sa(dp1318
S'action'
p1319
S'delete'
p1320
sS'order'
p1321
F1523919822.514947
sS'objid'
p1322
g8
(g12
S'l\x00\x00\x00\x00\x00\x00\x00'
p1323
tp1324
Rp1325
sa(dp1326
S'action'
p1327
S'delete'
p1328
sS'order'
p1329
F1523919822.525766
sS'objid'
p1330
g8
(g12
S'k\x00\x00\x00\x00\x00\x00\x00'
p1331
tp1332
Rp1333
sa(dp1334
S'action'
p1335
S'delete'
p1336
sS'order'
p1337
F1523919822.536474
sS'objid'
p1338
g8
(g12
S'j\x00\x00\x00\x00\x00\x00\x00'
p1339
tp1340
Rp1341
sa(dp1342
S'action'
p1343
S'delete'
p1344
sS'order'
p1345
F1523919822.547193
sS'objid'
p1346
g8
(g12
S'i\x00\x00\x00\x00\x00\x00\x00'
p1347
tp1348
Rp1349
sa(dp1350
S'action'
p1351
S'delete'
p1352
sS'order'
p1353
F1523919822.557991
sS'objid'
p1354
g8
(g12
S'h\x00\x00\x00\x00\x00\x00\x00'
p1355
tp1356
Rp1357
sa(dp1358
S'action'
p1359
S'delete'
p1360
sS'order'
p1361
F1523919822.568828
sS'objid'
p1362
g8
(g12
S'g\x00\x00\x00\x00\x00\x00\x00'
p1363
tp1364
Rp1365
sa(dp1366
S'action'
p1367
S'delete'
p1368
sS'order'
p1369
F1523919822.57975
sS'objid'
p1370
g8
(g12
S'f\x00\x00\x00\x00\x00\x00\x00'
p1371
tp1372
Rp1373
sa(dp1374
S'action'
p1375
S'delete'
p1376
sS'order'
p1377
F1523919822.590764
sS'objid'
p1378
g8
(g12
S'e\x00\x00\x00\x00\x00\x00\x00'
p1379
tp1380
Rp1381
sa(dp1382
S'action'
p1383
S'delete'
p1384
sS'order'
p1385
F1523919822.601975
sS'objid'
p1386
g8
(g12
S'd\x00\x00\x00\x00\x00\x00\x00'
p1387
tp1388
Rp1389
sa(dp1390
S'action'
p1391
S'delete'
p1392
sS'order'
p1393
F1523919822.613235
sS'objid'
p1394
g8
(g12
S'c\x00\x00\x00\x00\x00\x00\x00'
p1395
tp1396
Rp1397
sa(dp1398
S'action'
p1399
S'delete'
p1400
sS'order'
p1401
F1523919822.624517
sS'objid'
p1402
g8
(g12
S'b\x00\x00\x00\x00\x00\x00\x00'
p1403
tp1404
Rp1405
sa(dp1406
S'action'
p1407
S'delete'
p1408
sS'order'
p1409
F1523919822.635792
sS'objid'
p1410
g8
(g12
S'a\x00\x00\x00\x00\x00\x00\x00'
p1411
tp1412
Rp1413
sa(dp1414
S'action'
p1415
S'delete'
p1416
sS'order'
p1417
F1523919822.647065
sS'objid'
p1418
g8
(g12
S'`\x00\x00\x00\x00\x00\x00\x00'
p1419
tp1420
Rp1421
sa(dp1422
S'action'
p1423
S'delete'
p1424
sS'order'
p1425
F1523919822.658452
sS'objid'
p1426
g8
(g12
S'_\x00\x00\x00\x00\x00\x00\x00'
p1427
tp1428
Rp1429
sa(dp1430
S'action'
p1431
S'delete'
p1432
sS'order'
p1433
F1523919822.669848
sS'objid'
p1434
g8
(g12
S'^\x00\x00\x00\x00\x00\x00\x00'
p1435
tp1436
Rp1437
sa(dp1438
S'action'
p1439
S'delete'
p1440
sS'order'
p1441
F1523919822.681358
sS'objid'
p1442
g8
(g12
S']\x00\x00\x00\x00\x00\x00\x00'
p1443
tp1444
Rp1445
sa(dp1446
S'action'
p1447
S'delete'
p1448
sS'order'
p1449
F1523919822.692931
sS'objid'
p1450
g8
(g12
S'\\\x00\x00\x00\x00\x00\x00\x00'
p1451
tp1452
Rp1453
sa(dp1454
S'action'
p1455
S'delete'
p1456
sS'order'
p1457
F1523919822.70462
sS'objid'
p1458
g8
(g12
S'[\x00\x00\x00\x00\x00\x00\x00'
p1459
tp1460
Rp1461
sa(dp1462
S'action'
p1463
S'delete'
p1464
sS'order'
p1465
F1523919822.716421
sS'objid'
p1466
g8
(g12
S'Z\x00\x00\x00\x00\x00\x00\x00'
p1467
tp1468
Rp1469
sa(dp1470
S'action'
p1471
S'delete'
p1472
sS'order'
p1473
F1523919822.728218
sS'objid'
p1474
g8
(g12
S'Y\x00\x00\x00\x00\x00\x00\x00'
p1475
tp1476
Rp1477
sa(dp1478
S'action'
p1479
S'delete'
p1480
sS'order'
p1481
F1523919822.740035
sS'objid'
p1482
g8
(g12
S'X\x00\x00\x00\x00\x00\x00\x00'
p1483
tp1484
Rp1485
sa(dp1486
S'action'
p1487
S'delete'
p1488
sS'order'
p1489
F1523919822.751859
sS'objid'
p1490
g8
(g12
S'W\x00\x00\x00\x00\x00\x00\x00'
p1491
tp1492
Rp1493
sa(dp1494
S'action'
p1495
S'delete'
p1496
sS'order'
p1497
F1523919822.763783
sS'objid'
p1498
g8
(g12
S'V\x00\x00\x00\x00\x00\x00\x00'
p1499
tp1500
Rp1501
sa(dp1502
S'action'
p1503
S'delete'
p1504
sS'order'
p1505
F1523919822.775697
sS'objid'
p1506
g8
(g12
S'U\x00\x00\x00\x00\x00\x00\x00'
p1507
tp1508
Rp1509
sa(dp1510
S'action'
p1511
S'delete'
p1512
sS'order'
p1513
F1523919822.787757
sS'objid'
p1514
g8
(g12
S'T\x00\x00\x00\x00\x00\x00\x00'
p1515
tp1516
Rp1517
sa(dp1518
S'action'
p1519
S'delete'
p1520
sS'order'
p1521
F1523919822.799919
sS'objid'
p1522
g8
(g12
S'S\x00\x00\x00\x00\x00\x00\x00'
p1523
tp1524
Rp1525
sa(dp1526
S'action'
p1527
S'delete'
p1528
sS'order'
p1529
F1523919822.812262
sS'objid'
p1530
g8
(g12
S'R\x00\x00\x00\x00\x00\x00\x00'
p1531
tp1532
Rp1533
sa(dp1534
S'action'
p1535
S'delete'
p1536
sS'order'
p1537
F1523919822.824604
sS'objid'
p1538
g8
(g12
S'Q\x00\x00\x00\x00\x00\x00\x00'
p1539
tp1540
Rp1541
sa(dp1542
S'action'
p1543
S'delete'
p1544
sS'order'
p1545
F1523919822.836991
sS'objid'
p1546
g8
(g12
S'P\x00\x00\x00\x00\x00\x00\x00'
p1547
tp1548
Rp1549
sa(dp1550
S'action'
p1551
S'delete'
p1552
sS'order'
p1553
F1523919822.849282
sS'objid'
p1554
g8
(g12
S'O\x00\x00\x00\x00\x00\x00\x00'
p1555
tp1556
Rp1557
sa(dp1558
S'action'
p1559
S'delete'
p1560
sS'order'
p1561
F1523919822.861648
sS'objid'
p1562
g8
(g12
S'N\x00\x00\x00\x00\x00\x00\x00'
p1563
tp1564
Rp1565
sa(dp1566
S'action'
p1567
S'delete'
p1568
sS'order'
p1569
F1523919822.874115
sS'objid'
p1570
g8
(g12
S'M\x00\x00\x00\x00\x00\x00\x00'
p1571
tp1572
Rp1573
sa(dp1574
S'action'
p1575
S'delete'
p1576
sS'order'
p1577
F1523919822.886536
sS'objid'
p1578
g8
(g12
S'L\x00\x00\x00\x00\x00\x00\x00'
p1579
tp1580
Rp1581
sa(dp1582
S'action'
p1583
S'delete'
p1584
sS'order'
p1585
F1523919822.899085
sS'objid'
p1586
g8
(g12
S'K\x00\x00\x00\x00\x00\x00\x00'
p1587
tp1588
Rp1589
sa(dp1590
S'action'
p1591
S'delete'
p1592
sS'order'
p1593
F1523919822.911875
sS'objid'
p1594
g8
(g12
S'J\x00\x00\x00\x00\x00\x00\x00'
p1595
tp1596
Rp1597
sa(dp1598
S'action'
p1599
S'delete'
p1600
sS'order'
p1601
F1523919822.924682
sS'objid'
p1602
g8
(g12
S'I\x00\x00\x00\x00\x00\x00\x00'
p1603
tp1604
Rp1605
sa(dp1606
S'action'
p1607
S'delete'
p1608
sS'order'
p1609
F1523919822.937496
sS'objid'
p1610
g8
(g12
S'H\x00\x00\x00\x00\x00\x00\x00'
p1611
tp1612
Rp1613
sa(dp1614
S'action'
p1615
S'delete'
p1616
sS'order'
p1617
F1523919822.950342
sS'objid'
p1618
g8
(g12
S'G\x00\x00\x00\x00\x00\x00\x00'
p1619
tp1620
Rp1621
sa(dp1622
S'action'
p1623
S'delete'
p1624
sS'order'
p1625
F1523919822.963247
sS'objid'
p1626
g8
(g12
S'F\x00\x00\x00\x00\x00\x00\x00'
p1627
tp1628
Rp1629
sa(dp1630
S'action'
p1631
S'delete'
p1632
sS'order'
p1633
F1523919822.976161
sS'objid'
p1634
g8
(g12
S'E\x00\x00\x00\x00\x00\x00\x00'
p1635
tp1636
Rp1637
sa(dp1638
S'action'
p1639
S'delete'
p1640
sS'order'
p1641
F1523919822.989212
sS'objid'
p1642
g8
(g12
S'D\x00\x00\x00\x00\x00\x00\x00'
p1643
tp1644
Rp1645
sa(dp1646
S'action'
p1647
S'delete'
p1648
sS'order'
p1649
F1523919823.002249
sS'objid'
p1650
g8
(g12
S'C\x00\x00\x00\x00\x00\x00\x00'
p1651
tp1652
Rp1653
sa(dp1654
S'action'
p1655
S'delete'
p1656
sS'order'
p1657
F1523919823.015496
sS'objid'
p1658
g8
(g12
S'B\x00\x00\x00\x00\x00\x00\x00'
p1659
tp1660
Rp1661
sa(dp1662
S'action'
p1663
S'delete'
p1664
sS'order'
p1665
F1523919823.02881
sS'objid'
p1666
g8
(g12
S'A\x00\x00\x00\x00\x00\x00\x00'
p1667
tp1668
Rp1669
sa(dp1670
S'action'
p1671
S'delete'
p1672
sS'order'
p1673
F1523919823.042056
sS'objid'
p1674
g8
(g12
S'@\x00\x00\x00\x00\x00\x00\x00'
p1675
tp1676
Rp1677
sa(dp1678
S'action'
p1679
S'delete'
p1680
sS'order'
p1681
F1523919823.055317
sS'objid'
p1682
g8
(g12
S'?\x00\x00\x00\x00\x00\x00\x00'
p1683
tp1684
Rp1685
sa(dp1686
S'action'
p1687
S'delete'
p1688
sS'order'
p1689
F1523919823.068675
sS'objid'
p1690
g8
(g12
S'>\x00\x00\x00\x00\x00\x00\x00'
p1691
tp1692
Rp1693
sa(dp1694
S'action'
p1695
S'delete'
p1696
sS'order'
p1697
F1523919823.082012
sS'objid'
p1698
g8
(g12
S'=\x00\x00\x00\x00\x00\x00\x00'
p1699
tp1700
Rp1701
sa(dp1702
S'action'
p1703
S'delete'
p1704
sS'order'
p1705
F1523919823.095421
sS'objid'
p1706
g8
(g12
S'<\x00\x00\x00\x00\x00\x00\x00'
p1707
tp1708
Rp1709
sa(dp1710
S'action'
p1711
S'delete'
p1712
sS'order'
p1713
F1523919823.109053
sS'objid'
p1714
g8
(g12
S';\x00\x00\x00\x00\x00\x00\x00'
p1715
tp1716
Rp1717
sa(dp1718
S'action'
p1719
S'delete'
p1720
sS'order'
p1721
F1523919823.122778
sS'objid'
p1722
g8
(g12
S':\x00\x00\x00\x00\x00\x00\x00'
p1723
tp1724
Rp1725
sa(dp1726
S'action'
p1727
S'delete'
p1728
sS'order'
p1729
F1523919823.136393
sS'objid'
p1730
g8
(g12
S'9\x00\x00\x00\x00\x00\x00\x00'
p1731
tp1732
Rp1733
sa(dp1734
S'action'
p1735
S'delete'
p1736
sS'order'
p1737
F1523919823.150142
sS'objid'
p1738
g8
(g12
S'8\x00\x00\x00\x00\x00\x00\x00'
p1739
tp1740
Rp1741
sa(dp1742
S'action'
p1743
S'delete'
p1744
sS'order'
p1745
F1523919823.163853
sS'objid'
p1746
g8
(g12
S'7\x00\x00\x00\x00\x00\x00\x00'
p1747
tp1748
Rp1749
sa(dp1750
S'action'
p1751
S'delete'
p1752
sS'order'
p1753
F1523919823.177677
sS'objid'
p1754
g8
(g12
S'6\x00\x00\x00\x00\x00\x00\x00'
p1755
tp1756
Rp1757
sa(dp1758
S'action'
p1759
S'delete'
p1760
sS'order'
p1761
F1523919832.607496
sS'objid'
p1762
g8
(g12
S'5\x00\x00\x00\x00\x00\x00\x00'
p1763
tp1764
Rp1765
sa(dp1766
S'action'
p1767
S'delete'
p1768
sS'order'
p1769
F1523919832.626165
sS'objid'
p1770
g8
(g12
S'4\x00\x00\x00\x00\x00\x00\x00'
p1771
tp1772
Rp1773
sa(dp1774
S'action'
p1775
S'delete'
p1776
sS'order'
p1777
F1523919832.640775
sS'objid'
p1778
g8
(g12
S'3\x00\x00\x00\x00\x00\x00\x00'
p1779
tp1780
Rp1781
sa(dp1782
S'action'
p1783
S'delete'
p1784
sS'order'
p1785
F1523919832.655355
sS'objid'
p1786
g8
(g12
S'2\x00\x00\x00\x00\x00\x00\x00'
p1787
tp1788
Rp1789
sa(dp1790
S'action'
p1791
S'delete'
p1792
sS'order'
p1793
F1523919832.669471
sS'objid'
p1794
g8
(g12
S'1\x00\x00\x00\x00\x00\x00\x00'
p1795
tp1796
Rp1797
sa(dp1798
S'action'
p1799
S'delete'
p1800
sS'order'
p1801
F1523919832.683638
sS'objid'
p1802
g8
(g12
S'0\x00\x00\x00\x00\x00\x00\x00'
p1803
tp1804
Rp1805
sa(dp1806
S'action'
p1807
S'delete'
p1808
sS'order'
p1809
F1523919832.697944
sS'objid'
p1810
g8
(g12
S'/\x00\x00\x00\x00\x00\x00\x00'
p1811
tp1812
Rp1813
sa(dp1814
S'action'
p1815
S'delete'
p1816
sS'order'
p1817
F1523919832.712798
sS'objid'
p1818
g8
(g12
S'.\x00\x00\x00\x00\x00\x00\x00'
p1819
tp1820
Rp1821
sa(dp1822
S'action'
p1823
S'delete'
p1824
sS'order'
p1825
F1523919832.727117
sS'objid'
p1826
g8
(g12
S'-\x00\x00\x00\x00\x00\x00\x00'
p1827
tp1828
Rp1829
sa(dp1830
S'action'
p1831
S'delete'
p1832
sS'order'
p1833
F1523919832.741608
sS'objid'
p1834
g8
(g12
S',\x00\x00\x00\x00\x00\x00\x00'
p1835
tp1836
Rp1837
sa(dp1838
S'action'
p1839
S'delete'
p1840
sS'order'
p1841
F1523919832.755972
sS'objid'
p1842
g8
(g12
S'+\x00\x00\x00\x00\x00\x00\x00'
p1843
tp1844
Rp1845
sa(dp1846
S'action'
p1847
S'delete'
p1848
sS'order'
p1849
F1523919832.770436
sS'objid'
p1850
g8
(g12
S'*\x00\x00\x00\x00\x00\x00\x00'
p1851
tp1852
Rp1853
sa(dp1854
S'action'
p1855
S'delete'
p1856
sS'order'
p1857
F1523919832.785008
sS'objid'
p1858
g8
(g12
S')\x00\x00\x00\x00\x00\x00\x00'
p1859
tp1860
Rp1861
sa(dp1862
S'action'
p1863
S'delete'
p1864
sS'order'
p1865
F1523919832.799649
sS'objid'
p1866
g8
(g12
S'(\x00\x00\x00\x00\x00\x00\x00'
p1867
tp1868
Rp1869
sa(dp1870
S'action'
p1871
S'delete'
p1872
sS'order'
p1873
F1523919832.815242
sS'objid'
p1874
g8
(g12
S"'\x00\x00\x00\x00\x00\x00\x00"
p1875
tp1876
Rp1877
sa(dp1878
S'action'
p1879
S'delete'
p1880
sS'order'
p1881
F1523919832.83014
sS'objid'
p1882
g8
(g12
S'&\x00\x00\x00\x00\x00\x00\x00'
p1883
tp1884
Rp1885
sa(dp1886
S'action'
p1887
S'delete'
p1888
sS'order'
p1889
F1523919832.844953
sS'objid'
p1890
g8
(g12
S'%\x00\x00\x00\x00\x00\x00\x00'
p1891
tp1892
Rp1893
sa(dp1894
S'action'
p1895
S'delete'
p1896
sS'order'
p1897
F1523919832.859869
sS'objid'
p1898
g8
(g12
S'$\x00\x00\x00\x00\x00\x00\x00'
p1899
tp1900
Rp1901
sa(dp1902
S'action'
p1903
S'delete'
p1904
sS'order'
p1905
F1523919832.874834
sS'objid'
p1906
g8
(g12
S'#\x00\x00\x00\x00\x00\x00\x00'
p1907
tp1908
Rp1909
sa(dp1910
S'action'
p1911
S'delete'
p1912
sS'order'
p1913
F1523919832.889841
sS'objid'
p1914
g8
(g12
S'"\x00\x00\x00\x00\x00\x00\x00'
p1915
tp1916
Rp1917
sa(dp1918
S'action'
p1919
S'delete'
p1920
sS'order'
p1921
F1523919832.904984
sS'objid'
p1922
g8
(g12
S'!\x00\x00\x00\x00\x00\x00\x00'
p1923
tp1924
Rp1925
sa(dp1926
S'action'
p1927
S'delete'
p1928
sS'order'
p1929
F1523919832.920774
sS'objid'
p1930
g8
(g12
S' \x00\x00\x00\x00\x00\x00\x00'
p1931
tp1932
Rp1933
sa(dp1934
S'action'
p1935
S'delete'
p1936
sS'order'
p1937
F1523919832.936007
sS'objid'
p1938
g8
(g12
S'\x1f\x00\x00\x00\x00\x00\x00\x00'
p1939
tp1940
Rp1941
sa(dp1942
S'action'
p1943
S'delete'
p1944
sS'order'
p1945
F1523919832.951234
sS'objid'
p1946
g8
(g12
S'\x1e\x00\x00\x00\x00\x00\x00\x00'
p1947
tp1948
Rp1949
sa(dp1950
S'action'
p1951
S'delete'
p1952
sS'order'
p1953
F1523919832.966525
sS'objid'
p1954
g8
(g12
S'\x1d\x00\x00\x00\x00\x00\x00\x00'
p1955
tp1956
Rp1957
sa(dp1958
S'action'
p1959
S'delete'
p1960
sS'order'
p1961
F1523919832.981877
sS'objid'
p1962
g8
(g12
S'\x1c\x00\x00\x00\x00\x00\x00\x00'
p1963
tp1964
Rp1965
sa(dp1966
S'action'
p1967
S'delete'
p1968
sS'order'
p1969
F1523919832.997284
sS'objid'
p1970
g8
(g12
S'\x1b\x00\x00\x00\x00\x00\x00\x00'
p1971
tp1972
Rp1973
sa(dp1974
S'action'
p1975
S'delete'
p1976
sS'order'
p1977
F1523919833.013067
sS'objid'
p1978
g8
(g12
S'\x1a\x00\x00\x00\x00\x00\x00\x00'
p1979
tp1980
Rp1981
sa(dp1982
S'action'
p1983
S'delete'
p1984
sS'order'
p1985
F1523919833.029165
sS'objid'
p1986
g8
(g12
S'\x19\x00\x00\x00\x00\x00\x00\x00'
p1987
tp1988
Rp1989
sa(dp1990
S'action'
p1991
S'delete'
p1992
sS'order'
p1993
F1523919833.044804
sS'objid'
p1994
g8
(g12
S'\x18\x00\x00\x00\x00\x00\x00\x00'
p1995
tp1996
Rp1997
sa(dp1998
S'action'
p1999
S'delete'
p2000
sS'order'
p2001
F1523919833.060455
sS'objid'
p2002
g8
(g12
S'\x17\x00\x00\x00\x00\x00\x00\x00'
p2003
tp2004
Rp2005
sa(dp2006
S'action'
p2007
S'delete'
p2008
sS'order'
p2009
F1523919833.076164
sS'objid'
p2010
g8
(g12
S'\x16\x00\x00\x00\x00\x00\x00\x00'
p2011
tp2012
Rp2013
sa(dp2014
S'action'
p2015
S'delete'
p2016
sS'order'
p2017
F1523919833.091964
sS'objid'
p2018
g8
(g12
S'\x15\x00\x00\x00\x00\x00\x00\x00'
p2019
tp2020
Rp2021
sa(dp2022
S'action'
p2023
S'delete'
p2024
sS'order'
p2025
F1523919833.10795
sS'objid'
p2026
g8
(g12
S'\x14\x00\x00\x00\x00\x00\x00\x00'
p2027
tp2028
Rp2029
sa(dp2030
S'action'
p2031
S'delete'
p2032
sS'order'
p2033
F1523919833.124455
sS'objid'
p2034
g8
(g12
S'\x13\x00\x00\x00\x00\x00\x00\x00'
p2035
tp2036
Rp2037
sa(dp2038
S'action'
p2039
S'delete'
p2040
sS'order'
p2041
F1523919833.140424
sS'objid'
p2042
g8
(g12
S'\x12\x00\x00\x00\x00\x00\x00\x00'
p2043
tp2044
Rp2045
sa(dp2046
S'action'
p2047
S'delete'
p2048
sS'order'
p2049
F1523919833.156472
sS'objid'
p2050
g8
(g12
S'\x11\x00\x00\x00\x00\x00\x00\x00'
p2051
tp2052
Rp2053
sa(dp2054
S'action'
p2055
S'delete'
p2056
sS'order'
p2057
F1523919833.172537
sS'objid'
p2058
g8
(g12
S'\x10\x00\x00\x00\x00\x00\x00\x00'
p2059
tp2060
Rp2061
sa(dp2062
S'action'
p2063
S'delete'
p2064
sS'order'
p2065
F1523919833.188709
sS'objid'
p2066
g8
(g12
S'\x0f\x00\x00\x00\x00\x00\x00\x00'
p2067
tp2068
Rp2069
sa(dp2070
S'action'
p2071
S'delete'
p2072
sS'order'
p2073
F1523919833.204973
sS'objid'
p2074
g8
(g12
S'\x0e\x00\x00\x00\x00\x00\x00\x00'
p2075
tp2076
Rp2077
sa(dp2078
S'action'
p2079
S'delete'
p2080
sS'order'
p2081
F1523919833.221849
sS'objid'
p2082
g8
(g12
S'\r\x00\x00\x00\x00\x00\x00\x00'
p2083
tp2084
Rp2085
sa(dp2086
S'action'
p2087
S'delete'
p2088
sS'order'
p2089
F1523919833.238305
sS'objid'
p2090
g8
(g12
S'\x0c\x00\x00\x00\x00\x00\x00\x00'
p2091
tp2092
Rp2093
sa(dp2094
S'action'
p2095
S'delete'
p2096
sS'order'
p2097
F1523919833.254657
sS'objid'
p2098
g8
(g12
S'\x0b\x00\x00\x00\x00\x00\x00\x00'
p2099
tp2100
Rp2101
sa(dp2102
S'action'
p2103
S'delete'
p2104
sS'order'
p2105
F1523919833.271149
sS'objid'
p2106
g8
(g12
S'\n\x00\x00\x00\x00\x00\x00\x00'
p2107
tp2108
Rp2109
sa(dp2110
S'action'
p2111
S'delete'
p2112
sS'order'
p2113
F1523919833.287657
sS'objid'
p2114
g8
(g12
S'\t\x00\x00\x00\x00\x00\x00\x00'
p2115
tp2116
Rp2117
sa(dp2118
S'action'
p2119
S'delete'
p2120
sS'order'
p2121
F1523919833.304211
sS'objid'
p2122
g8
(g12
S'\x08\x00\x00\x00\x00\x00\x00\x00'
p2123
tp2124
Rp2125
sa(dp2126
S'action'
p2127
S'delete'
p2128
sS'order'
p2129
F1523919833.321454
sS'objid'
p2130
g8
(g12
S'\x07\x00\x00\x00\x00\x00\x00\x00'
p2131
tp2132
Rp2133
sa(dp2134
S'action'
p2135
S'delete'
p2136
sS'order'
p2137
F1523919833.338163
sS'objid'
p2138
g8
(g12
S'\x06\x00\x00\x00\x00\x00\x00\x00'
p2139
tp2140
Rp2141
sa(dp2142
S'action'
p2143
S'delete'
p2144
sS'order'
p2145
F1523919833.354979
sS'objid'
p2146
g8
(g12
S'\x05\x00\x00\x00\x00\x00\x00\x00'
p2147
tp2148
Rp2149
sa(dp2150
S'action'
p2151
S'delete'
p2152
sS'order'
p2153
F1523919833.371892
sS'objid'
p2154
g8
(g12
S'\x04\x00\x00\x00\x00\x00\x00\x00'
p2155
tp2156
Rp2157
sa(dp2158
S'action'
p2159
S'delete'
p2160
sS'order'
p2161
F1523919833.38871
sS'objid'
p2162
g8
(g12
S'\x03\x00\x00\x00\x00\x00\x00\x00'
p2163
tp2164
Rp2165
sa(dp2166
S'action'
p2167
S'delete'
p2168
sS'order'
p2169
F1523919833.405705
sS'objid'
p2170
g8
(g12
S'\x02\x00\x00\x00\x00\x00\x00\x00'
p2171
tp2172
Rp2173
sa(dp2174
S'action'
p2175
S'delete'
p2176
sS'order'
p2177
F1523919833.423385
sS'objid'
p2178
g8
(g12
S'\x01\x00\x00\x00\x00\x00\x00\x00'
p2179
tp2180
Rp2181
sa.