(lp0
(dp1
S'action'
p2
S'join'
p3
sS'data_to_add'
p4
(lp5
sS'order'
p6
F1523924107.292107
sS'new_objid'
p7
cnumpy.core.multiarray
scalar
p8
(cnumpy
dtype
p9
(S'i8'
p10
I0
I1
tp11
Rp12
(I3
S'<'
p13
NNNI-1
I-1
I0
tp14
bS'|\x00\x00\x00\x00\x00\x00\x00'
p15
tp16
Rp17
sS'objids'
p18
(lp19
g8
(g12
S'\x00\x00\x00\x00\x00\x00\x00\x00'
p20
tp21
Rp22
ag8
(g12
S'\x06\x00\x00\x00\x00\x00\x00\x00'
p23
tp24
Rp25
asa(dp26
S'cut_frame_global'
p27
I236
sS'cut_time_epoch'
p28
g8
(g9
(S'f8'
p29
I0
I1
tp30
Rp31
(I3
S'<'
p32
NNNI-1
I-1
I0
tp33
bS'\xa0Z\xd2]\x9c\xb4\xd6A'
p34
tp35
Rp36
sS'cut_frame_trajectory'
p37
g8
(g12
S'\xcf\x00\x00\x00\x00\x00\x00\x00'
p38
tp39
Rp40
sS'objid'
p41
g8
(g12
S'\x04\x00\x00\x00\x00\x00\x00\x00'
p42
tp43
Rp44
sS'action'
p45
S'cut'
p46
sS'order'
p47
F1523924115.395132
sS'new_objid'
p48
g8
(g12
S'}\x00\x00\x00\x00\x00\x00\x00'
p49
tp50
Rp51
sa(dp52
S'action'
p53
S'join'
p54
sS'data_to_add'
p55
(lp56
sS'order'
p57
F1523924122.617169
sS'new_objid'
p58
g8
(g12
S'~\x00\x00\x00\x00\x00\x00\x00'
p59
tp60
Rp61
sS'objids'
p62
(lp63
g8
(g12
S'|\x00\x00\x00\x00\x00\x00\x00'
p64
tp65
Rp66
ag8
(g12
S'}\x00\x00\x00\x00\x00\x00\x00'
p67
tp68
Rp69
asa(dp70
S'action'
p71
S'join'
p72
sS'data_to_add'
p73
(lp74
sS'order'
p75
F1523924138.025069
sS'new_objid'
p76
g8
(g12
S'\x7f\x00\x00\x00\x00\x00\x00\x00'
p77
tp78
Rp79
sS'objids'
p80
(lp81
g8
(g12
S'B\x00\x00\x00\x00\x00\x00\x00'
p82
tp83
Rp84
ag8
(g12
S'~\x00\x00\x00\x00\x00\x00\x00'
p85
tp86
Rp87
asa(dp88
S'action'
p89
S'join'
p90
sS'data_to_add'
p91
(lp92
sS'order'
p93
F1523924151.377306
sS'new_objid'
p94
g8
(g12
S'\x80\x00\x00\x00\x00\x00\x00\x00'
p95
tp96
Rp97
sS'objids'
p98
(lp99
g8
(g12
S'\x7f\x00\x00\x00\x00\x00\x00\x00'
p100
tp101
Rp102
ag8
(g12
S'O\x00\x00\x00\x00\x00\x00\x00'
p103
tp104
Rp105
ag8
(g12
S'M\x00\x00\x00\x00\x00\x00\x00'
p106
tp107
Rp108
asa(dp109
S'action'
p110
S'join'
p111
sS'data_to_add'
p112
(lp113
sS'order'
p114
F1523924158.793834
sS'new_objid'
p115
g8
(g12
S'\x81\x00\x00\x00\x00\x00\x00\x00'
p116
tp117
Rp118
sS'objids'
p119
(lp120
g8
(g12
S'\x80\x00\x00\x00\x00\x00\x00\x00'
p121
tp122
Rp123
ag8
(g12
S'T\x00\x00\x00\x00\x00\x00\x00'
p124
tp125
Rp126
asa(dp127
S'action'
p128
S'delete'
p129
sS'order'
p130
F1523924179.065864
sS'objid'
p131
g8
(g12
S'q\x00\x00\x00\x00\x00\x00\x00'
p132
tp133
Rp134
sa(dp135
S'action'
p136
S'delete'
p137
sS'order'
p138
F1523924179.068922
sS'objid'
p139
g8
(g12
S'p\x00\x00\x00\x00\x00\x00\x00'
p140
tp141
Rp142
sa(dp143
S'action'
p144
S'delete'
p145
sS'order'
p146
F1523924179.072401
sS'objid'
p147
g8
(g12
S'o\x00\x00\x00\x00\x00\x00\x00'
p148
tp149
Rp150
sa(dp151
S'action'
p152
S'delete'
p153
sS'order'
p154
F1523924179.075256
sS'objid'
p155
g8
(g12
S'n\x00\x00\x00\x00\x00\x00\x00'
p156
tp157
Rp158
sa(dp159
S'action'
p160
S'delete'
p161
sS'order'
p162
F1523924179.07737
sS'objid'
p163
g8
(g12
S'm\x00\x00\x00\x00\x00\x00\x00'
p164
tp165
Rp166
sa(dp167
S'action'
p168
S'delete'
p169
sS'order'
p170
F1523924179.079439
sS'objid'
p171
g8
(g12
S'l\x00\x00\x00\x00\x00\x00\x00'
p172
tp173
Rp174
sa(dp175
S'action'
p176
S'delete'
p177
sS'order'
p178
F1523924179.08153
sS'objid'
p179
g8
(g12
S'k\x00\x00\x00\x00\x00\x00\x00'
p180
tp181
Rp182
sa(dp183
S'action'
p184
S'delete'
p185
sS'order'
p186
F1523924179.083616
sS'objid'
p187
g8
(g12
S'j\x00\x00\x00\x00\x00\x00\x00'
p188
tp189
Rp190
sa(dp191
S'action'
p192
S'delete'
p193
sS'order'
p194
F1523924179.085805
sS'objid'
p195
g8
(g12
S'i\x00\x00\x00\x00\x00\x00\x00'
p196
tp197
Rp198
sa(dp199
S'action'
p200
S'delete'
p201
sS'order'
p202
F1523924179.088058
sS'objid'
p203
g8
(g12
S'h\x00\x00\x00\x00\x00\x00\x00'
p204
tp205
Rp206
sa(dp207
S'action'
p208
S'delete'
p209
sS'order'
p210
F1523924179.090316
sS'objid'
p211
g8
(g12
S'g\x00\x00\x00\x00\x00\x00\x00'
p212
tp213
Rp214
sa(dp215
S'action'
p216
S'delete'
p217
sS'order'
p218
F1523924179.092638
sS'objid'
p219
g8
(g12
S'f\x00\x00\x00\x00\x00\x00\x00'
p220
tp221
Rp222
sa(dp223
S'action'
p224
S'delete'
p225
sS'order'
p226
F1523924179.095032
sS'objid'
p227
g8
(g12
S'e\x00\x00\x00\x00\x00\x00\x00'
p228
tp229
Rp230
sa(dp231
S'action'
p232
S'delete'
p233
sS'order'
p234
F1523924179.097578
sS'objid'
p235
g8
(g12
S'd\x00\x00\x00\x00\x00\x00\x00'
p236
tp237
Rp238
sa(dp239
S'action'
p240
S'delete'
p241
sS'order'
p242
F1523924179.100101
sS'objid'
p243
g8
(g12
S'c\x00\x00\x00\x00\x00\x00\x00'
p244
tp245
Rp246
sa(dp247
S'action'
p248
S'delete'
p249
sS'order'
p250
F1523924179.102682
sS'objid'
p251
g8
(g12
S'b\x00\x00\x00\x00\x00\x00\x00'
p252
tp253
Rp254
sa(dp255
S'action'
p256
S'delete'
p257
sS'order'
p258
F1523924179.105296
sS'objid'
p259
g8
(g12
S'a\x00\x00\x00\x00\x00\x00\x00'
p260
tp261
Rp262
sa(dp263
S'action'
p264
S'delete'
p265
sS'order'
p266
F1523924179.10796
sS'objid'
p267
g8
(g12
S'`\x00\x00\x00\x00\x00\x00\x00'
p268
tp269
Rp270
sa(dp271
S'action'
p272
S'delete'
p273
sS'order'
p274
F1523924179.110684
sS'objid'
p275
g8
(g12
S'_\x00\x00\x00\x00\x00\x00\x00'
p276
tp277
Rp278
sa(dp279
S'action'
p280
S'delete'
p281
sS'order'
p282
F1523924179.115342
sS'objid'
p283
g8
(g12
S'^\x00\x00\x00\x00\x00\x00\x00'
p284
tp285
Rp286
sa(dp287
S'action'
p288
S'delete'
p289
sS'order'
p290
F1523924179.118171
sS'objid'
p291
g8
(g12
S']\x00\x00\x00\x00\x00\x00\x00'
p292
tp293
Rp294
sa(dp295
S'action'
p296
S'delete'
p297
sS'order'
p298
F1523924179.12109
sS'objid'
p299
g8
(g12
S'\\\x00\x00\x00\x00\x00\x00\x00'
p300
tp301
Rp302
sa(dp303
S'action'
p304
S'delete'
p305
sS'order'
p306
F1523924179.124053
sS'objid'
p307
g8
(g12
S'[\x00\x00\x00\x00\x00\x00\x00'
p308
tp309
Rp310
sa(dp311
S'action'
p312
S'delete'
p313
sS'order'
p314
F1523924179.127065
sS'objid'
p315
g8
(g12
S'Z\x00\x00\x00\x00\x00\x00\x00'
p316
tp317
Rp318
sa(dp319
S'action'
p320
S'delete'
p321
sS'order'
p322
F1523924179.130154
sS'objid'
p323
g8
(g12
S'Y\x00\x00\x00\x00\x00\x00\x00'
p324
tp325
Rp326
sa(dp327
S'action'
p328
S'delete'
p329
sS'order'
p330
F1523924179.133302
sS'objid'
p331
g8
(g12
S'X\x00\x00\x00\x00\x00\x00\x00'
p332
tp333
Rp334
sa(dp335
S'action'
p336
S'delete'
p337
sS'order'
p338
F1523924179.136498
sS'objid'
p339
g8
(g12
S'W\x00\x00\x00\x00\x00\x00\x00'
p340
tp341
Rp342
sa(dp343
S'action'
p344
S'delete'
p345
sS'order'
p346
F1523924179.139762
sS'objid'
p347
g8
(g12
S'V\x00\x00\x00\x00\x00\x00\x00'
p348
tp349
Rp350
sa(dp351
S'action'
p352
S'delete'
p353
sS'order'
p354
F1523924179.143078
sS'objid'
p355
g8
(g12
S'U\x00\x00\x00\x00\x00\x00\x00'
p356
tp357
Rp358
sa(dp359
S'action'
p360
S'delete'
p361
sS'order'
p362
F1523924179.14646
sS'objid'
p363
g8
(g12
S'S\x00\x00\x00\x00\x00\x00\x00'
p364
tp365
Rp366
sa(dp367
S'action'
p368
S'delete'
p369
sS'order'
p370
F1523924179.14991
sS'objid'
p371
g8
(g12
S'R\x00\x00\x00\x00\x00\x00\x00'
p372
tp373
Rp374
sa(dp375
S'action'
p376
S'delete'
p377
sS'order'
p378
F1523924179.153394
sS'objid'
p379
g8
(g12
S'Q\x00\x00\x00\x00\x00\x00\x00'
p380
tp381
Rp382
sa(dp383
S'action'
p384
S'delete'
p385
sS'order'
p386
F1523924179.156963
sS'objid'
p387
g8
(g12
S'P\x00\x00\x00\x00\x00\x00\x00'
p388
tp389
Rp390
sa(dp391
S'action'
p392
S'delete'
p393
sS'order'
p394
F1523924179.160572
sS'objid'
p395
g8
(g12
S'N\x00\x00\x00\x00\x00\x00\x00'
p396
tp397
Rp398
sa(dp399
S'action'
p400
S'delete'
p401
sS'order'
p402
F1523924179.164239
sS'objid'
p403
g8
(g12
S'L\x00\x00\x00\x00\x00\x00\x00'
p404
tp405
Rp406
sa(dp407
S'action'
p408
S'delete'
p409
sS'order'
p410
F1523924179.167966
sS'objid'
p411
g8
(g12
S'K\x00\x00\x00\x00\x00\x00\x00'
p412
tp413
Rp414
sa(dp415
S'action'
p416
S'delete'
p417
sS'order'
p418
F1523924179.171786
sS'objid'
p419
g8
(g12
S'J\x00\x00\x00\x00\x00\x00\x00'
p420
tp421
Rp422
sa(dp423
S'action'
p424
S'delete'
p425
sS'order'
p426
F1523924179.175626
sS'objid'
p427
g8
(g12
S'I\x00\x00\x00\x00\x00\x00\x00'
p428
tp429
Rp430
sa(dp431
S'action'
p432
S'delete'
p433
sS'order'
p434
F1523924179.179544
sS'objid'
p435
g8
(g12
S'H\x00\x00\x00\x00\x00\x00\x00'
p436
tp437
Rp438
sa(dp439
S'action'
p440
S'delete'
p441
sS'order'
p442
F1523924179.183548
sS'objid'
p443
g8
(g12
S'G\x00\x00\x00\x00\x00\x00\x00'
p444
tp445
Rp446
sa(dp447
S'action'
p448
S'delete'
p449
sS'order'
p450
F1523924179.18762
sS'objid'
p451
g8
(g12
S'F\x00\x00\x00\x00\x00\x00\x00'
p452
tp453
Rp454
sa(dp455
S'action'
p456
S'delete'
p457
sS'order'
p458
F1523924179.191745
sS'objid'
p459
g8
(g12
S'E\x00\x00\x00\x00\x00\x00\x00'
p460
tp461
Rp462
sa(dp463
S'action'
p464
S'delete'
p465
sS'order'
p466
F1523924179.195952
sS'objid'
p467
g8
(g12
S'D\x00\x00\x00\x00\x00\x00\x00'
p468
tp469
Rp470
sa(dp471
S'action'
p472
S'delete'
p473
sS'order'
p474
F1523924179.20021
sS'objid'
p475
g8
(g12
S'C\x00\x00\x00\x00\x00\x00\x00'
p476
tp477
Rp478
sa(dp479
S'action'
p480
S'delete'
p481
sS'order'
p482
F1523924179.204482
sS'objid'
p483
g8
(g12
S'A\x00\x00\x00\x00\x00\x00\x00'
p484
tp485
Rp486
sa(dp487
S'action'
p488
S'delete'
p489
sS'order'
p490
F1523924179.20883
sS'objid'
p491
g8
(g12
S'@\x00\x00\x00\x00\x00\x00\x00'
p492
tp493
Rp494
sa(dp495
S'action'
p496
S'delete'
p497
sS'order'
p498
F1523924179.213256
sS'objid'
p499
g8
(g12
S'?\x00\x00\x00\x00\x00\x00\x00'
p500
tp501
Rp502
sa(dp503
S'action'
p504
S'delete'
p505
sS'order'
p506
F1523924179.217692
sS'objid'
p507
g8
(g12
S'>\x00\x00\x00\x00\x00\x00\x00'
p508
tp509
Rp510
sa(dp511
S'action'
p512
S'delete'
p513
sS'order'
p514
F1523924179.222204
sS'objid'
p515
g8
(g12
S'=\x00\x00\x00\x00\x00\x00\x00'
p516
tp517
Rp518
sa(dp519
S'action'
p520
S'delete'
p521
sS'order'
p522
F1523924179.22677
sS'objid'
p523
g8
(g12
S'<\x00\x00\x00\x00\x00\x00\x00'
p524
tp525
Rp526
sa(dp527
S'action'
p528
S'delete'
p529
sS'order'
p530
F1523924179.231393
sS'objid'
p531
g8
(g12
S';\x00\x00\x00\x00\x00\x00\x00'
p532
tp533
Rp534
sa(dp535
S'action'
p536
S'delete'
p537
sS'order'
p538
F1523924179.236078
sS'objid'
p539
g8
(g12
S':\x00\x00\x00\x00\x00\x00\x00'
p540
tp541
Rp542
sa(dp543
S'action'
p544
S'delete'
p545
sS'order'
p546
F1523924179.240786
sS'objid'
p547
g8
(g12
S'9\x00\x00\x00\x00\x00\x00\x00'
p548
tp549
Rp550
sa(dp551
S'action'
p552
S'delete'
p553
sS'order'
p554
F1523924179.24559
sS'objid'
p555
g8
(g12
S'8\x00\x00\x00\x00\x00\x00\x00'
p556
tp557
Rp558
sa(dp559
S'action'
p560
S'delete'
p561
sS'order'
p562
F1523924179.250481
sS'objid'
p563
g8
(g12
S'7\x00\x00\x00\x00\x00\x00\x00'
p564
tp565
Rp566
sa(dp567
S'action'
p568
S'delete'
p569
sS'order'
p570
F1523924179.255373
sS'objid'
p571
g8
(g12
S'6\x00\x00\x00\x00\x00\x00\x00'
p572
tp573
Rp574
sa(dp575
S'action'
p576
S'delete'
p577
sS'order'
p578
F1523924179.260309
sS'objid'
p579
g8
(g12
S'5\x00\x00\x00\x00\x00\x00\x00'
p580
tp581
Rp582
sa(dp583
S'action'
p584
S'delete'
p585
sS'order'
p586
F1523924179.26538
sS'objid'
p587
g8
(g12
S'4\x00\x00\x00\x00\x00\x00\x00'
p588
tp589
Rp590
sa(dp591
S'action'
p592
S'delete'
p593
sS'order'
p594
F1523924179.270423
sS'objid'
p595
g8
(g12
S'3\x00\x00\x00\x00\x00\x00\x00'
p596
tp597
Rp598
sa(dp599
S'action'
p600
S'delete'
p601
sS'order'
p602
F1523924179.275572
sS'objid'
p603
g8
(g12
S'2\x00\x00\x00\x00\x00\x00\x00'
p604
tp605
Rp606
sa(dp607
S'action'
p608
S'delete'
p609
sS'order'
p610
F1523924179.280793
sS'objid'
p611
g8
(g12
S'1\x00\x00\x00\x00\x00\x00\x00'
p612
tp613
Rp614
sa(dp615
S'action'
p616
S'delete'
p617
sS'order'
p618
F1523924179.286068
sS'objid'
p619
g8
(g12
S'0\x00\x00\x00\x00\x00\x00\x00'
p620
tp621
Rp622
sa(dp623
S'action'
p624
S'delete'
p625
sS'order'
p626
F1523924179.291451
sS'objid'
p627
g8
(g12
S'/\x00\x00\x00\x00\x00\x00\x00'
p628
tp629
Rp630
sa(dp631
S'action'
p632
S'delete'
p633
sS'order'
p634
F1523924179.296869
sS'objid'
p635
g8
(g12
S'.\x00\x00\x00\x00\x00\x00\x00'
p636
tp637
Rp638
sa(dp639
S'action'
p640
S'delete'
p641
sS'order'
p642
F1523924179.302343
sS'objid'
p643
g8
(g12
S'\x1a\x00\x00\x00\x00\x00\x00\x00'
p644
tp645
Rp646
sa(dp647
S'action'
p648
S'delete'
p649
sS'order'
p650
F1523924186.146213
sS'objid'
p651
g8
(g12
S'-\x00\x00\x00\x00\x00\x00\x00'
p652
tp653
Rp654
sa(dp655
S'action'
p656
S'delete'
p657
sS'order'
p658
F1523924186.152822
sS'objid'
p659
g8
(g12
S',\x00\x00\x00\x00\x00\x00\x00'
p660
tp661
Rp662
sa(dp663
S'action'
p664
S'delete'
p665
sS'order'
p666
F1523924186.159481
sS'objid'
p667
g8
(g12
S'+\x00\x00\x00\x00\x00\x00\x00'
p668
tp669
Rp670
sa(dp671
S'action'
p672
S'delete'
p673
sS'order'
p674
F1523924186.165184
sS'objid'
p675
g8
(g12
S'*\x00\x00\x00\x00\x00\x00\x00'
p676
tp677
Rp678
sa(dp679
S'action'
p680
S'delete'
p681
sS'order'
p682
F1523924186.170929
sS'objid'
p683
g8
(g12
S')\x00\x00\x00\x00\x00\x00\x00'
p684
tp685
Rp686
sa(dp687
S'action'
p688
S'delete'
p689
sS'order'
p690
F1523924186.177423
sS'objid'
p691
g8
(g12
S'(\x00\x00\x00\x00\x00\x00\x00'
p692
tp693
Rp694
sa(dp695
S'action'
p696
S'delete'
p697
sS'order'
p698
F1523924186.183346
sS'objid'
p699
g8
(g12
S"'\x00\x00\x00\x00\x00\x00\x00"
p700
tp701
Rp702
sa(dp703
S'action'
p704
S'delete'
p705
sS'order'
p706
F1523924186.189393
sS'objid'
p707
g8
(g12
S'&\x00\x00\x00\x00\x00\x00\x00'
p708
tp709
Rp710
sa(dp711
S'action'
p712
S'delete'
p713
sS'order'
p714
F1523924186.199171
sS'objid'
p715
g8
(g12
S'%\x00\x00\x00\x00\x00\x00\x00'
p716
tp717
Rp718
sa(dp719
S'action'
p720
S'delete'
p721
sS'order'
p722
F1523924186.205212
sS'objid'
p723
g8
(g12
S'$\x00\x00\x00\x00\x00\x00\x00'
p724
tp725
Rp726
sa(dp727
S'action'
p728
S'delete'
p729
sS'order'
p730
F1523924186.211284
sS'objid'
p731
g8
(g12
S'#\x00\x00\x00\x00\x00\x00\x00'
p732
tp733
Rp734
sa(dp735
S'action'
p736
S'delete'
p737
sS'order'
p738
F1523924186.217438
sS'objid'
p739
g8
(g12
S'"\x00\x00\x00\x00\x00\x00\x00'
p740
tp741
Rp742
sa(dp743
S'action'
p744
S'delete'
p745
sS'order'
p746
F1523924186.223737
sS'objid'
p747
g8
(g12
S'!\x00\x00\x00\x00\x00\x00\x00'
p748
tp749
Rp750
sa(dp751
S'action'
p752
S'delete'
p753
sS'order'
p754
F1523924186.230097
sS'objid'
p755
g8
(g12
S' \x00\x00\x00\x00\x00\x00\x00'
p756
tp757
Rp758
sa(dp759
S'action'
p760
S'delete'
p761
sS'order'
p762
F1523924186.236594
sS'objid'
p763
g8
(g12
S'\x1f\x00\x00\x00\x00\x00\x00\x00'
p764
tp765
Rp766
sa(dp767
S'action'
p768
S'delete'
p769
sS'order'
p770
F1523924186.24837
sS'objid'
p771
g8
(g12
S'\x1e\x00\x00\x00\x00\x00\x00\x00'
p772
tp773
Rp774
sa(dp775
S'action'
p776
S'delete'
p777
sS'order'
p778
F1523924186.254845
sS'objid'
p779
g8
(g12
S'\x1d\x00\x00\x00\x00\x00\x00\x00'
p780
tp781
Rp782
sa(dp783
S'action'
p784
S'delete'
p785
sS'order'
p786
F1523924186.261295
sS'objid'
p787
g8
(g12
S'\x1c\x00\x00\x00\x00\x00\x00\x00'
p788
tp789
Rp790
sa(dp791
S'action'
p792
S'delete'
p793
sS'order'
p794
F1523924186.267852
sS'objid'
p795
g8
(g12
S'\x1b\x00\x00\x00\x00\x00\x00\x00'
p796
tp797
Rp798
sa(dp799
S'action'
p800
S'delete'
p801
sS'order'
p802
F1523924186.274447
sS'objid'
p803
g8
(g12
S'\x19\x00\x00\x00\x00\x00\x00\x00'
p804
tp805
Rp806
sa(dp807
S'action'
p808
S'delete'
p809
sS'order'
p810
F1523924186.281108
sS'objid'
p811
g8
(g12
S'\x18\x00\x00\x00\x00\x00\x00\x00'
p812
tp813
Rp814
sa(dp815
S'action'
p816
S'delete'
p817
sS'order'
p818
F1523924186.287855
sS'objid'
p819
g8
(g12
S'\x17\x00\x00\x00\x00\x00\x00\x00'
p820
tp821
Rp822
sa(dp823
S'action'
p824
S'delete'
p825
sS'order'
p826
F1523924186.294689
sS'objid'
p827
g8
(g12
S'\x16\x00\x00\x00\x00\x00\x00\x00'
p828
tp829
Rp830
sa(dp831
S'action'
p832
S'delete'
p833
sS'order'
p834
F1523924186.301527
sS'objid'
p835
g8
(g12
S'\x15\x00\x00\x00\x00\x00\x00\x00'
p836
tp837
Rp838
sa(dp839
S'action'
p840
S'delete'
p841
sS'order'
p842
F1523924186.308387
sS'objid'
p843
g8
(g12
S'\x14\x00\x00\x00\x00\x00\x00\x00'
p844
tp845
Rp846
sa(dp847
S'action'
p848
S'delete'
p849
sS'order'
p850
F1523924186.315379
sS'objid'
p851
g8
(g12
S'\x13\x00\x00\x00\x00\x00\x00\x00'
p852
tp853
Rp854
sa(dp855
S'action'
p856
S'delete'
p857
sS'order'
p858
F1523924186.322387
sS'objid'
p859
g8
(g12
S'\x12\x00\x00\x00\x00\x00\x00\x00'
p860
tp861
Rp862
sa(dp863
S'action'
p864
S'delete'
p865
sS'order'
p866
F1523924186.329655
sS'objid'
p867
g8
(g12
S'\x11\x00\x00\x00\x00\x00\x00\x00'
p868
tp869
Rp870
sa(dp871
S'action'
p872
S'delete'
p873
sS'order'
p874
F1523924186.337073
sS'objid'
p875
g8
(g12
S'\x10\x00\x00\x00\x00\x00\x00\x00'
p876
tp877
Rp878
sa(dp879
S'action'
p880
S'delete'
p881
sS'order'
p882
F1523924186.348038
sS'objid'
p883
g8
(g12
S'\x0f\x00\x00\x00\x00\x00\x00\x00'
p884
tp885
Rp886
sa(dp887
S'action'
p888
S'delete'
p889
sS'order'
p890
F1523924186.355265
sS'objid'
p891
g8
(g12
S'\x0e\x00\x00\x00\x00\x00\x00\x00'
p892
tp893
Rp894
sa(dp895
S'action'
p896
S'delete'
p897
sS'order'
p898
F1523924186.362619
sS'objid'
p899
g8
(g12
S'\r\x00\x00\x00\x00\x00\x00\x00'
p900
tp901
Rp902
sa(dp903
S'action'
p904
S'delete'
p905
sS'order'
p906
F1523924186.369975
sS'objid'
p907
g8
(g12
S'\x0c\x00\x00\x00\x00\x00\x00\x00'
p908
tp909
Rp910
sa(dp911
S'action'
p912
S'delete'
p913
sS'order'
p914
F1523924186.377389
sS'objid'
p915
g8
(g12
S'\x0b\x00\x00\x00\x00\x00\x00\x00'
p916
tp917
Rp918
sa(dp919
S'action'
p920
S'delete'
p921
sS'order'
p922
F1523924186.384898
sS'objid'
p923
g8
(g12
S'\n\x00\x00\x00\x00\x00\x00\x00'
p924
tp925
Rp926
sa(dp927
S'action'
p928
S'delete'
p929
sS'order'
p930
F1523924186.392421
sS'objid'
p931
g8
(g12
S'\t\x00\x00\x00\x00\x00\x00\x00'
p932
tp933
Rp934
sa(dp935
S'action'
p936
S'delete'
p937
sS'order'
p938
F1523924186.400025
sS'objid'
p939
g8
(g12
S'\x08\x00\x00\x00\x00\x00\x00\x00'
p940
tp941
Rp942
sa(dp943
S'action'
p944
S'delete'
p945
sS'order'
p946
F1523924186.407701
sS'objid'
p947
g8
(g12
S'\x07\x00\x00\x00\x00\x00\x00\x00'
p948
tp949
Rp950
sa(dp951
S'action'
p952
S'delete'
p953
sS'order'
p954
F1523924186.415392
sS'objid'
p955
g8
(g12
S'\x05\x00\x00\x00\x00\x00\x00\x00'
p956
tp957
Rp958
sa(dp959
S'action'
p960
S'delete'
p961
sS'order'
p962
F1523924186.423159
sS'objid'
p963
g8
(g12
S'\x04\x00\x00\x00\x00\x00\x00\x00'
p964
tp965
Rp966
sa(dp967
S'action'
p968
S'delete'
p969
sS'order'
p970
F1523924186.431157
sS'objid'
p971
g8
(g12
S'\x03\x00\x00\x00\x00\x00\x00\x00'
p972
tp973
Rp974
sa(dp975
S'action'
p976
S'delete'
p977
sS'order'
p978
F1523924186.439275
sS'objid'
p979
g8
(g12
S'\x02\x00\x00\x00\x00\x00\x00\x00'
p980
tp981
Rp982
sa(dp983
S'action'
p984
S'delete'
p985
sS'order'
p986
F1523924186.45043
sS'objid'
p987
g8
(g12
S'\x01\x00\x00\x00\x00\x00\x00\x00'
p988
tp989
Rp990
sa.