(lp0
(dp1
S'action'
p2
S'join'
p3
sS'data_to_add'
p4
(lp5
sS'order'
p6
F1523910790.076226
sS'new_objid'
p7
cnumpy.core.multiarray
scalar
p8
(cnumpy
dtype
p9
(S'i8'
p10
I0
I1
tp11
Rp12
(I3
S'<'
p13
NNNI-1
I-1
I0
tp14
bS'\x80\x00\x00\x00\x00\x00\x00\x00'
p15
tp16
Rp17
sS'objids'
p18
(lp19
g8
(g12
S'\x04\x00\x00\x00\x00\x00\x00\x00'
p20
tp21
Rp22
ag8
(g12
S'\x00\x00\x00\x00\x00\x00\x00\x00'
p23
tp24
Rp25
ag8
(g12
S'\x08\x00\x00\x00\x00\x00\x00\x00'
p26
tp27
Rp28
asa(dp29
S'action'
p30
S'join'
p31
sS'data_to_add'
p32
(lp33
sS'order'
p34
F1523910796.629001
sS'new_objid'
p35
g8
(g12
S'\x81\x00\x00\x00\x00\x00\x00\x00'
p36
tp37
Rp38
sS'objids'
p39
(lp40
g8
(g12
S'\t\x00\x00\x00\x00\x00\x00\x00'
p41
tp42
Rp43
ag8
(g12
S'\x80\x00\x00\x00\x00\x00\x00\x00'
p44
tp45
Rp46
asa(dp47
S'action'
p48
S'join'
p49
sS'data_to_add'
p50
(lp51
sS'order'
p52
F1523910806.996779
sS'new_objid'
p53
g8
(g12
S'\x82\x00\x00\x00\x00\x00\x00\x00'
p54
tp55
Rp56
sS'objids'
p57
(lp58
g8
(g12
S'i\x00\x00\x00\x00\x00\x00\x00'
p59
tp60
Rp61
ag8
(g12
S'\x81\x00\x00\x00\x00\x00\x00\x00'
p62
tp63
Rp64
ag8
(g12
S'h\x00\x00\x00\x00\x00\x00\x00'
p65
tp66
Rp67
asa(dp68
S'action'
p69
S'delete'
p70
sS'order'
p71
F1523910818.953287
sS'objid'
p72
g8
(g12
S'u\x00\x00\x00\x00\x00\x00\x00'
p73
tp74
Rp75
sa(dp76
S'action'
p77
S'delete'
p78
sS'order'
p79
F1523910818.955643
sS'objid'
p80
g8
(g12
S't\x00\x00\x00\x00\x00\x00\x00'
p81
tp82
Rp83
sa(dp84
S'action'
p85
S'delete'
p86
sS'order'
p87
F1523910818.956989
sS'objid'
p88
g8
(g12
S's\x00\x00\x00\x00\x00\x00\x00'
p89
tp90
Rp91
sa(dp92
S'action'
p93
S'delete'
p94
sS'order'
p95
F1523910818.958296
sS'objid'
p96
g8
(g12
S'r\x00\x00\x00\x00\x00\x00\x00'
p97
tp98
Rp99
sa(dp100
S'action'
p101
S'delete'
p102
sS'order'
p103
F1523910818.959654
sS'objid'
p104
g8
(g12
S'q\x00\x00\x00\x00\x00\x00\x00'
p105
tp106
Rp107
sa(dp108
S'action'
p109
S'delete'
p110
sS'order'
p111
F1523910818.961072
sS'objid'
p112
g8
(g12
S'p\x00\x00\x00\x00\x00\x00\x00'
p113
tp114
Rp115
sa(dp116
S'action'
p117
S'delete'
p118
sS'order'
p119
F1523910818.962541
sS'objid'
p120
g8
(g12
S'o\x00\x00\x00\x00\x00\x00\x00'
p121
tp122
Rp123
sa(dp124
S'action'
p125
S'delete'
p126
sS'order'
p127
F1523910818.964179
sS'objid'
p128
g8
(g12
S'n\x00\x00\x00\x00\x00\x00\x00'
p129
tp130
Rp131
sa(dp132
S'action'
p133
S'delete'
p134
sS'order'
p135
F1523910818.965804
sS'objid'
p136
g8
(g12
S'm\x00\x00\x00\x00\x00\x00\x00'
p137
tp138
Rp139
sa(dp140
S'action'
p141
S'delete'
p142
sS'order'
p143
F1523910818.967448
sS'objid'
p144
g8
(g12
S'l\x00\x00\x00\x00\x00\x00\x00'
p145
tp146
Rp147
sa(dp148
S'action'
p149
S'delete'
p150
sS'order'
p151
F1523910818.969143
sS'objid'
p152
g8
(g12
S'k\x00\x00\x00\x00\x00\x00\x00'
p153
tp154
Rp155
sa(dp156
S'action'
p157
S'delete'
p158
sS'order'
p159
F1523910818.970897
sS'objid'
p160
g8
(g12
S'j\x00\x00\x00\x00\x00\x00\x00'
p161
tp162
Rp163
sa(dp164
S'action'
p165
S'delete'
p166
sS'order'
p167
F1523910818.972755
sS'objid'
p168
g8
(g12
S'g\x00\x00\x00\x00\x00\x00\x00'
p169
tp170
Rp171
sa(dp172
S'action'
p173
S'delete'
p174
sS'order'
p175
F1523910818.974627
sS'objid'
p176
g8
(g12
S'f\x00\x00\x00\x00\x00\x00\x00'
p177
tp178
Rp179
sa(dp180
S'action'
p181
S'delete'
p182
sS'order'
p183
F1523910818.976561
sS'objid'
p184
g8
(g12
S'e\x00\x00\x00\x00\x00\x00\x00'
p185
tp186
Rp187
sa(dp188
S'action'
p189
S'delete'
p190
sS'order'
p191
F1523910818.978546
sS'objid'
p192
g8
(g12
S'd\x00\x00\x00\x00\x00\x00\x00'
p193
tp194
Rp195
sa(dp196
S'action'
p197
S'delete'
p198
sS'order'
p199
F1523910818.980801
sS'objid'
p200
g8
(g12
S'c\x00\x00\x00\x00\x00\x00\x00'
p201
tp202
Rp203
sa(dp204
S'action'
p205
S'delete'
p206
sS'order'
p207
F1523910818.982955
sS'objid'
p208
g8
(g12
S'b\x00\x00\x00\x00\x00\x00\x00'
p209
tp210
Rp211
sa(dp212
S'action'
p213
S'delete'
p214
sS'order'
p215
F1523910818.985125
sS'objid'
p216
g8
(g12
S'a\x00\x00\x00\x00\x00\x00\x00'
p217
tp218
Rp219
sa(dp220
S'action'
p221
S'delete'
p222
sS'order'
p223
F1523910818.987344
sS'objid'
p224
g8
(g12
S'`\x00\x00\x00\x00\x00\x00\x00'
p225
tp226
Rp227
sa(dp228
S'action'
p229
S'delete'
p230
sS'order'
p231
F1523910818.989632
sS'objid'
p232
g8
(g12
S'_\x00\x00\x00\x00\x00\x00\x00'
p233
tp234
Rp235
sa(dp236
S'action'
p237
S'delete'
p238
sS'order'
p239
F1523910818.993359
sS'objid'
p240
g8
(g12
S'^\x00\x00\x00\x00\x00\x00\x00'
p241
tp242
Rp243
sa(dp244
S'action'
p245
S'delete'
p246
sS'order'
p247
F1523910818.995757
sS'objid'
p248
g8
(g12
S']\x00\x00\x00\x00\x00\x00\x00'
p249
tp250
Rp251
sa(dp252
S'action'
p253
S'delete'
p254
sS'order'
p255
F1523910818.998204
sS'objid'
p256
g8
(g12
S'\\\x00\x00\x00\x00\x00\x00\x00'
p257
tp258
Rp259
sa(dp260
S'action'
p261
S'delete'
p262
sS'order'
p263
F1523910819.000712
sS'objid'
p264
g8
(g12
S'[\x00\x00\x00\x00\x00\x00\x00'
p265
tp266
Rp267
sa(dp268
S'action'
p269
S'delete'
p270
sS'order'
p271
F1523910819.00328
sS'objid'
p272
g8
(g12
S'Z\x00\x00\x00\x00\x00\x00\x00'
p273
tp274
Rp275
sa(dp276
S'action'
p277
S'delete'
p278
sS'order'
p279
F1523910819.005897
sS'objid'
p280
g8
(g12
S'Y\x00\x00\x00\x00\x00\x00\x00'
p281
tp282
Rp283
sa(dp284
S'action'
p285
S'delete'
p286
sS'order'
p287
F1523910819.008572
sS'objid'
p288
g8
(g12
S'X\x00\x00\x00\x00\x00\x00\x00'
p289
tp290
Rp291
sa(dp292
S'action'
p293
S'delete'
p294
sS'order'
p295
F1523910819.01131
sS'objid'
p296
g8
(g12
S'W\x00\x00\x00\x00\x00\x00\x00'
p297
tp298
Rp299
sa(dp300
S'action'
p301
S'delete'
p302
sS'order'
p303
F1523910819.014093
sS'objid'
p304
g8
(g12
S'V\x00\x00\x00\x00\x00\x00\x00'
p305
tp306
Rp307
sa(dp308
S'action'
p309
S'delete'
p310
sS'order'
p311
F1523910819.016935
sS'objid'
p312
g8
(g12
S'U\x00\x00\x00\x00\x00\x00\x00'
p313
tp314
Rp315
sa(dp316
S'action'
p317
S'delete'
p318
sS'order'
p319
F1523910819.019854
sS'objid'
p320
g8
(g12
S'T\x00\x00\x00\x00\x00\x00\x00'
p321
tp322
Rp323
sa(dp324
S'action'
p325
S'delete'
p326
sS'order'
p327
F1523910819.022843
sS'objid'
p328
g8
(g12
S'S\x00\x00\x00\x00\x00\x00\x00'
p329
tp330
Rp331
sa(dp332
S'action'
p333
S'delete'
p334
sS'order'
p335
F1523910819.025909
sS'objid'
p336
g8
(g12
S'R\x00\x00\x00\x00\x00\x00\x00'
p337
tp338
Rp339
sa(dp340
S'action'
p341
S'delete'
p342
sS'order'
p343
F1523910819.028999
sS'objid'
p344
g8
(g12
S'Q\x00\x00\x00\x00\x00\x00\x00'
p345
tp346
Rp347
sa(dp348
S'action'
p349
S'delete'
p350
sS'order'
p351
F1523910819.032151
sS'objid'
p352
g8
(g12
S'P\x00\x00\x00\x00\x00\x00\x00'
p353
tp354
Rp355
sa(dp356
S'action'
p357
S'delete'
p358
sS'order'
p359
F1523910819.035406
sS'objid'
p360
g8
(g12
S'O\x00\x00\x00\x00\x00\x00\x00'
p361
tp362
Rp363
sa(dp364
S'action'
p365
S'delete'
p366
sS'order'
p367
F1523910819.038693
sS'objid'
p368
g8
(g12
S'N\x00\x00\x00\x00\x00\x00\x00'
p369
tp370
Rp371
sa(dp372
S'action'
p373
S'delete'
p374
sS'order'
p375
F1523910819.042025
sS'objid'
p376
g8
(g12
S'M\x00\x00\x00\x00\x00\x00\x00'
p377
tp378
Rp379
sa(dp380
S'action'
p381
S'delete'
p382
sS'order'
p383
F1523910819.045415
sS'objid'
p384
g8
(g12
S'L\x00\x00\x00\x00\x00\x00\x00'
p385
tp386
Rp387
sa(dp388
S'action'
p389
S'delete'
p390
sS'order'
p391
F1523910819.048857
sS'objid'
p392
g8
(g12
S'K\x00\x00\x00\x00\x00\x00\x00'
p393
tp394
Rp395
sa(dp396
S'action'
p397
S'delete'
p398
sS'order'
p399
F1523910819.052352
sS'objid'
p400
g8
(g12
S'J\x00\x00\x00\x00\x00\x00\x00'
p401
tp402
Rp403
sa(dp404
S'action'
p405
S'delete'
p406
sS'order'
p407
F1523910819.055907
sS'objid'
p408
g8
(g12
S'I\x00\x00\x00\x00\x00\x00\x00'
p409
tp410
Rp411
sa(dp412
S'action'
p413
S'delete'
p414
sS'order'
p415
F1523910819.059516
sS'objid'
p416
g8
(g12
S'H\x00\x00\x00\x00\x00\x00\x00'
p417
tp418
Rp419
sa(dp420
S'action'
p421
S'delete'
p422
sS'order'
p423
F1523910819.063197
sS'objid'
p424
g8
(g12
S'G\x00\x00\x00\x00\x00\x00\x00'
p425
tp426
Rp427
sa(dp428
S'action'
p429
S'delete'
p430
sS'order'
p431
F1523910819.066914
sS'objid'
p432
g8
(g12
S'F\x00\x00\x00\x00\x00\x00\x00'
p433
tp434
Rp435
sa(dp436
S'action'
p437
S'delete'
p438
sS'order'
p439
F1523910819.0707
sS'objid'
p440
g8
(g12
S'E\x00\x00\x00\x00\x00\x00\x00'
p441
tp442
Rp443
sa(dp444
S'action'
p445
S'delete'
p446
sS'order'
p447
F1523910819.074542
sS'objid'
p448
g8
(g12
S'D\x00\x00\x00\x00\x00\x00\x00'
p449
tp450
Rp451
sa(dp452
S'action'
p453
S'delete'
p454
sS'order'
p455
F1523910819.078455
sS'objid'
p456
g8
(g12
S'C\x00\x00\x00\x00\x00\x00\x00'
p457
tp458
Rp459
sa(dp460
S'action'
p461
S'delete'
p462
sS'order'
p463
F1523910819.082416
sS'objid'
p464
g8
(g12
S'B\x00\x00\x00\x00\x00\x00\x00'
p465
tp466
Rp467
sa(dp468
S'action'
p469
S'delete'
p470
sS'order'
p471
F1523910819.086439
sS'objid'
p472
g8
(g12
S'A\x00\x00\x00\x00\x00\x00\x00'
p473
tp474
Rp475
sa(dp476
S'action'
p477
S'delete'
p478
sS'order'
p479
F1523910819.090523
sS'objid'
p480
g8
(g12
S'@\x00\x00\x00\x00\x00\x00\x00'
p481
tp482
Rp483
sa(dp484
S'action'
p485
S'delete'
p486
sS'order'
p487
F1523910819.094656
sS'objid'
p488
g8
(g12
S'?\x00\x00\x00\x00\x00\x00\x00'
p489
tp490
Rp491
sa(dp492
S'action'
p493
S'delete'
p494
sS'order'
p495
F1523910819.098841
sS'objid'
p496
g8
(g12
S'>\x00\x00\x00\x00\x00\x00\x00'
p497
tp498
Rp499
sa(dp500
S'action'
p501
S'delete'
p502
sS'order'
p503
F1523910819.103101
sS'objid'
p504
g8
(g12
S'=\x00\x00\x00\x00\x00\x00\x00'
p505
tp506
Rp507
sa(dp508
S'action'
p509
S'delete'
p510
sS'order'
p511
F1523910819.107408
sS'objid'
p512
g8
(g12
S'<\x00\x00\x00\x00\x00\x00\x00'
p513
tp514
Rp515
sa(dp516
S'action'
p517
S'delete'
p518
sS'order'
p519
F1523910827.109482
sS'objid'
p520
g8
(g12
S';\x00\x00\x00\x00\x00\x00\x00'
p521
tp522
Rp523
sa(dp524
S'action'
p525
S'delete'
p526
sS'order'
p527
F1523910827.11844
sS'objid'
p528
g8
(g12
S':\x00\x00\x00\x00\x00\x00\x00'
p529
tp530
Rp531
sa(dp532
S'action'
p533
S'delete'
p534
sS'order'
p535
F1523910827.125331
sS'objid'
p536
g8
(g12
S'9\x00\x00\x00\x00\x00\x00\x00'
p537
tp538
Rp539
sa(dp540
S'action'
p541
S'delete'
p542
sS'order'
p543
F1523910827.129921
sS'objid'
p544
g8
(g12
S'8\x00\x00\x00\x00\x00\x00\x00'
p545
tp546
Rp547
sa(dp548
S'action'
p549
S'delete'
p550
sS'order'
p551
F1523910827.134552
sS'objid'
p552
g8
(g12
S'7\x00\x00\x00\x00\x00\x00\x00'
p553
tp554
Rp555
sa(dp556
S'action'
p557
S'delete'
p558
sS'order'
p559
F1523910827.139424
sS'objid'
p560
g8
(g12
S'6\x00\x00\x00\x00\x00\x00\x00'
p561
tp562
Rp563
sa(dp564
S'action'
p565
S'delete'
p566
sS'order'
p567
F1523910827.144934
sS'objid'
p568
g8
(g12
S'5\x00\x00\x00\x00\x00\x00\x00'
p569
tp570
Rp571
sa(dp572
S'action'
p573
S'delete'
p574
sS'order'
p575
F1523910827.14977
sS'objid'
p576
g8
(g12
S'4\x00\x00\x00\x00\x00\x00\x00'
p577
tp578
Rp579
sa(dp580
S'action'
p581
S'delete'
p582
sS'order'
p583
F1523910827.154646
sS'objid'
p584
g8
(g12
S'3\x00\x00\x00\x00\x00\x00\x00'
p585
tp586
Rp587
sa(dp588
S'action'
p589
S'delete'
p590
sS'order'
p591
F1523910827.159679
sS'objid'
p592
g8
(g12
S'2\x00\x00\x00\x00\x00\x00\x00'
p593
tp594
Rp595
sa(dp596
S'action'
p597
S'delete'
p598
sS'order'
p599
F1523910827.16475
sS'objid'
p600
g8
(g12
S'1\x00\x00\x00\x00\x00\x00\x00'
p601
tp602
Rp603
sa(dp604
S'action'
p605
S'delete'
p606
sS'order'
p607
F1523910827.170335
sS'objid'
p608
g8
(g12
S'0\x00\x00\x00\x00\x00\x00\x00'
p609
tp610
Rp611
sa(dp612
S'action'
p613
S'delete'
p614
sS'order'
p615
F1523910827.175419
sS'objid'
p616
g8
(g12
S'/\x00\x00\x00\x00\x00\x00\x00'
p617
tp618
Rp619
sa(dp620
S'action'
p621
S'delete'
p622
sS'order'
p623
F1523910827.180514
sS'objid'
p624
g8
(g12
S'.\x00\x00\x00\x00\x00\x00\x00'
p625
tp626
Rp627
sa(dp628
S'action'
p629
S'delete'
p630
sS'order'
p631
F1523910827.185705
sS'objid'
p632
g8
(g12
S'-\x00\x00\x00\x00\x00\x00\x00'
p633
tp634
Rp635
sa(dp636
S'action'
p637
S'delete'
p638
sS'order'
p639
F1523910827.191972
sS'objid'
p640
g8
(g12
S',\x00\x00\x00\x00\x00\x00\x00'
p641
tp642
Rp643
sa(dp644
S'action'
p645
S'delete'
p646
sS'order'
p647
F1523910827.20305
sS'objid'
p648
g8
(g12
S'+\x00\x00\x00\x00\x00\x00\x00'
p649
tp650
Rp651
sa(dp652
S'action'
p653
S'delete'
p654
sS'order'
p655
F1523910827.209477
sS'objid'
p656
g8
(g12
S'*\x00\x00\x00\x00\x00\x00\x00'
p657
tp658
Rp659
sa(dp660
S'action'
p661
S'delete'
p662
sS'order'
p663
F1523910827.214898
sS'objid'
p664
g8
(g12
S')\x00\x00\x00\x00\x00\x00\x00'
p665
tp666
Rp667
sa(dp668
S'action'
p669
S'delete'
p670
sS'order'
p671
F1523910827.220375
sS'objid'
p672
g8
(g12
S'(\x00\x00\x00\x00\x00\x00\x00'
p673
tp674
Rp675
sa(dp676
S'action'
p677
S'delete'
p678
sS'order'
p679
F1523910827.225878
sS'objid'
p680
g8
(g12
S"'\x00\x00\x00\x00\x00\x00\x00"
p681
tp682
Rp683
sa(dp684
S'action'
p685
S'delete'
p686
sS'order'
p687
F1523910827.231483
sS'objid'
p688
g8
(g12
S'&\x00\x00\x00\x00\x00\x00\x00'
p689
tp690
Rp691
sa(dp692
S'action'
p693
S'delete'
p694
sS'order'
p695
F1523910827.237125
sS'objid'
p696
g8
(g12
S'%\x00\x00\x00\x00\x00\x00\x00'
p697
tp698
Rp699
sa(dp700
S'action'
p701
S'delete'
p702
sS'order'
p703
F1523910827.242804
sS'objid'
p704
g8
(g12
S'$\x00\x00\x00\x00\x00\x00\x00'
p705
tp706
Rp707
sa(dp708
S'action'
p709
S'delete'
p710
sS'order'
p711
F1523910827.248569
sS'objid'
p712
g8
(g12
S'#\x00\x00\x00\x00\x00\x00\x00'
p713
tp714
Rp715
sa(dp716
S'action'
p717
S'delete'
p718
sS'order'
p719
F1523910827.254511
sS'objid'
p720
g8
(g12
S'"\x00\x00\x00\x00\x00\x00\x00'
p721
tp722
Rp723
sa(dp724
S'action'
p725
S'delete'
p726
sS'order'
p727
F1523910827.260492
sS'objid'
p728
g8
(g12
S'!\x00\x00\x00\x00\x00\x00\x00'
p729
tp730
Rp731
sa(dp732
S'action'
p733
S'delete'
p734
sS'order'
p735
F1523910827.266663
sS'objid'
p736
g8
(g12
S' \x00\x00\x00\x00\x00\x00\x00'
p737
tp738
Rp739
sa(dp740
S'action'
p741
S'delete'
p742
sS'order'
p743
F1523910827.272691
sS'objid'
p744
g8
(g12
S'\x1f\x00\x00\x00\x00\x00\x00\x00'
p745
tp746
Rp747
sa(dp748
S'action'
p749
S'delete'
p750
sS'order'
p751
F1523910827.285385
sS'objid'
p752
g8
(g12
S'\x1e\x00\x00\x00\x00\x00\x00\x00'
p753
tp754
Rp755
sa(dp756
S'action'
p757
S'delete'
p758
sS'order'
p759
F1523910827.29321
sS'objid'
p760
g8
(g12
S'\x1d\x00\x00\x00\x00\x00\x00\x00'
p761
tp762
Rp763
sa(dp764
S'action'
p765
S'delete'
p766
sS'order'
p767
F1523910827.299373
sS'objid'
p768
g8
(g12
S'\x1c\x00\x00\x00\x00\x00\x00\x00'
p769
tp770
Rp771
sa(dp772
S'action'
p773
S'delete'
p774
sS'order'
p775
F1523910827.305573
sS'objid'
p776
g8
(g12
S'\x1b\x00\x00\x00\x00\x00\x00\x00'
p777
tp778
Rp779
sa(dp780
S'action'
p781
S'delete'
p782
sS'order'
p783
F1523910827.311826
sS'objid'
p784
g8
(g12
S'\x1a\x00\x00\x00\x00\x00\x00\x00'
p785
tp786
Rp787
sa(dp788
S'action'
p789
S'delete'
p790
sS'order'
p791
F1523910827.318148
sS'objid'
p792
g8
(g12
S'\x19\x00\x00\x00\x00\x00\x00\x00'
p793
tp794
Rp795
sa(dp796
S'action'
p797
S'delete'
p798
sS'order'
p799
F1523910827.324579
sS'objid'
p800
g8
(g12
S'\x18\x00\x00\x00\x00\x00\x00\x00'
p801
tp802
Rp803
sa(dp804
S'action'
p805
S'delete'
p806
sS'order'
p807
F1523910827.330997
sS'objid'
p808
g8
(g12
S'\x17\x00\x00\x00\x00\x00\x00\x00'
p809
tp810
Rp811
sa(dp812
S'action'
p813
S'delete'
p814
sS'order'
p815
F1523910827.337487
sS'objid'
p816
g8
(g12
S'\x16\x00\x00\x00\x00\x00\x00\x00'
p817
tp818
Rp819
sa(dp820
S'action'
p821
S'delete'
p822
sS'order'
p823
F1523910827.344069
sS'objid'
p824
g8
(g12
S'\x15\x00\x00\x00\x00\x00\x00\x00'
p825
tp826
Rp827
sa(dp828
S'action'
p829
S'delete'
p830
sS'order'
p831
F1523910827.350771
sS'objid'
p832
g8
(g12
S'\x14\x00\x00\x00\x00\x00\x00\x00'
p833
tp834
Rp835
sa(dp836
S'action'
p837
S'delete'
p838
sS'order'
p839
F1523910827.357532
sS'objid'
p840
g8
(g12
S'\x13\x00\x00\x00\x00\x00\x00\x00'
p841
tp842
Rp843
sa(dp844
S'action'
p845
S'delete'
p846
sS'order'
p847
F1523910827.364391
sS'objid'
p848
g8
(g12
S'\x12\x00\x00\x00\x00\x00\x00\x00'
p849
tp850
Rp851
sa(dp852
S'action'
p853
S'delete'
p854
sS'order'
p855
F1523910827.371489
sS'objid'
p856
g8
(g12
S'\x11\x00\x00\x00\x00\x00\x00\x00'
p857
tp858
Rp859
sa(dp860
S'action'
p861
S'delete'
p862
sS'order'
p863
F1523910827.382174
sS'objid'
p864
g8
(g12
S'\x10\x00\x00\x00\x00\x00\x00\x00'
p865
tp866
Rp867
sa(dp868
S'action'
p869
S'delete'
p870
sS'order'
p871
F1523910827.3925
sS'objid'
p872
g8
(g12
S'\x0f\x00\x00\x00\x00\x00\x00\x00'
p873
tp874
Rp875
sa(dp876
S'action'
p877
S'delete'
p878
sS'order'
p879
F1523910827.399507
sS'objid'
p880
g8
(g12
S'\x0e\x00\x00\x00\x00\x00\x00\x00'
p881
tp882
Rp883
sa(dp884
S'action'
p885
S'delete'
p886
sS'order'
p887
F1523910827.406496
sS'objid'
p888
g8
(g12
S'\r\x00\x00\x00\x00\x00\x00\x00'
p889
tp890
Rp891
sa(dp892
S'action'
p893
S'delete'
p894
sS'order'
p895
F1523910827.413552
sS'objid'
p896
g8
(g12
S'\x0c\x00\x00\x00\x00\x00\x00\x00'
p897
tp898
Rp899
sa(dp900
S'action'
p901
S'delete'
p902
sS'order'
p903
F1523910827.420697
sS'objid'
p904
g8
(g12
S'\x0b\x00\x00\x00\x00\x00\x00\x00'
p905
tp906
Rp907
sa(dp908
S'action'
p909
S'delete'
p910
sS'order'
p911
F1523910827.427876
sS'objid'
p912
g8
(g12
S'\n\x00\x00\x00\x00\x00\x00\x00'
p913
tp914
Rp915
sa(dp916
S'action'
p917
S'delete'
p918
sS'order'
p919
F1523910827.435102
sS'objid'
p920
g8
(g12
S'\x07\x00\x00\x00\x00\x00\x00\x00'
p921
tp922
Rp923
sa(dp924
S'action'
p925
S'delete'
p926
sS'order'
p927
F1523910832.261974
sS'objid'
p928
g8
(g12
S'\x06\x00\x00\x00\x00\x00\x00\x00'
p929
tp930
Rp931
sa(dp932
S'action'
p933
S'delete'
p934
sS'order'
p935
F1523910832.272887
sS'objid'
p936
g8
(g12
S'\x05\x00\x00\x00\x00\x00\x00\x00'
p937
tp938
Rp939
sa(dp940
S'action'
p941
S'delete'
p942
sS'order'
p943
F1523910832.284191
sS'objid'
p944
g8
(g12
S'\x03\x00\x00\x00\x00\x00\x00\x00'
p945
tp946
Rp947
sa(dp948
S'action'
p949
S'delete'
p950
sS'order'
p951
F1523910832.293985
sS'objid'
p952
g8
(g12
S'\x02\x00\x00\x00\x00\x00\x00\x00'
p953
tp954
Rp955
sa(dp956
S'action'
p957
S'delete'
p958
sS'order'
p959
F1523910832.302394
sS'objid'
p960
g8
(g12
S'\x01\x00\x00\x00\x00\x00\x00\x00'
p961
tp962
Rp963
sa.