(lp0
(dp1
S'action'
p2
S'join'
p3
sS'data_to_add'
p4
(lp5
sS'order'
p6
F1523903240.557301
sS'new_objid'
p7
cnumpy.core.multiarray
scalar
p8
(cnumpy
dtype
p9
(S'i8'
p10
I0
I1
tp11
Rp12
(I3
S'<'
p13
NNNI-1
I-1
I0
tp14
bS'\x16\x00\x00\x00\x00\x00\x00\x00'
p15
tp16
Rp17
sS'objids'
p18
(lp19
g8
(g12
S'\t\x00\x00\x00\x00\x00\x00\x00'
p20
tp21
Rp22
ag8
(g12
S'\x00\x00\x00\x00\x00\x00\x00\x00'
p23
tp24
Rp25
asa(dp26
S'action'
p27
S'join'
p28
sS'data_to_add'
p29
(lp30
sS'order'
p31
F1523903246.170258
sS'new_objid'
p32
g8
(g12
S'\x17\x00\x00\x00\x00\x00\x00\x00'
p33
tp34
Rp35
sS'objids'
p36
(lp37
g8
(g12
S'\x16\x00\x00\x00\x00\x00\x00\x00'
p38
tp39
Rp40
ag8
(g12
S'\n\x00\x00\x00\x00\x00\x00\x00'
p41
tp42
Rp43
asa(dp44
S'action'
p45
S'join'
p46
sS'data_to_add'
p47
(lp48
sS'order'
p49
F1523903250.780477
sS'new_objid'
p50
g8
(g12
S'\x18\x00\x00\x00\x00\x00\x00\x00'
p51
tp52
Rp53
sS'objids'
p54
(lp55
g8
(g12
S'\x0b\x00\x00\x00\x00\x00\x00\x00'
p56
tp57
Rp58
ag8
(g12
S'\x17\x00\x00\x00\x00\x00\x00\x00'
p59
tp60
Rp61
asa(dp62
S'action'
p63
S'delete'
p64
sS'order'
p65
F1523903255.725506
sS'objid'
p66
g8
(g12
S'\x08\x00\x00\x00\x00\x00\x00\x00'
p67
tp68
Rp69
sa(dp70
S'action'
p71
S'delete'
p72
sS'order'
p73
F1523903255.726866
sS'objid'
p74
g8
(g12
S'\x07\x00\x00\x00\x00\x00\x00\x00'
p75
tp76
Rp77
sa(dp78
S'action'
p79
S'delete'
p80
sS'order'
p81
F1523903255.728468
sS'objid'
p82
g8
(g12
S'\x06\x00\x00\x00\x00\x00\x00\x00'
p83
tp84
Rp85
sa(dp86
S'action'
p87
S'delete'
p88
sS'order'
p89
F1523903255.730248
sS'objid'
p90
g8
(g12
S'\x05\x00\x00\x00\x00\x00\x00\x00'
p91
tp92
Rp93
sa(dp94
S'action'
p95
S'delete'
p96
sS'order'
p97
F1523903255.732123
sS'objid'
p98
g8
(g12
S'\x04\x00\x00\x00\x00\x00\x00\x00'
p99
tp100
Rp101
sa(dp102
S'action'
p103
S'delete'
p104
sS'order'
p105
F1523903255.734061
sS'objid'
p106
g8
(g12
S'\x03\x00\x00\x00\x00\x00\x00\x00'
p107
tp108
Rp109
sa(dp110
S'action'
p111
S'delete'
p112
sS'order'
p113
F1523903255.735839
sS'objid'
p114
g8
(g12
S'\x02\x00\x00\x00\x00\x00\x00\x00'
p115
tp116
Rp117
sa(dp118
S'action'
p119
S'delete'
p120
sS'order'
p121
F1523903255.737387
sS'objid'
p122
g8
(g12
S'\x01\x00\x00\x00\x00\x00\x00\x00'
p123
tp124
Rp125
sa.