(lp0
(dp1
S'action'
p2
S'join'
p3
sS'data_to_add'
p4
(lp5
sS'order'
p6
F1523918445.371515
sS'new_objid'
p7
cnumpy.core.multiarray
scalar
p8
(cnumpy
dtype
p9
(S'i8'
p10
I0
I1
tp11
Rp12
(I3
S'<'
p13
NNNI-1
I-1
I0
tp14
bS"'\x01\x00\x00\x00\x00\x00\x00"
p15
tp16
Rp17
sS'objids'
p18
(lp19
g8
(g12
S'\x00\x00\x00\x00\x00\x00\x00\x00'
p20
tp21
Rp22
ag8
(g12
S'8\x00\x00\x00\x00\x00\x00\x00'
p23
tp24
Rp25
asa(dp26
S'action'
p27
S'delete'
p28
sS'order'
p29
F1523918481.884346
sS'objid'
p30
g8
(g12
S'\x1c\x01\x00\x00\x00\x00\x00\x00'
p31
tp32
Rp33
sa(dp34
S'action'
p35
S'delete'
p36
sS'order'
p37
F1523918481.885954
sS'objid'
p38
g8
(g12
S'\x1b\x01\x00\x00\x00\x00\x00\x00'
p39
tp40
Rp41
sa(dp42
S'action'
p43
S'delete'
p44
sS'order'
p45
F1523918481.88741
sS'objid'
p46
g8
(g12
S'\x1a\x01\x00\x00\x00\x00\x00\x00'
p47
tp48
Rp49
sa(dp50
S'action'
p51
S'delete'
p52
sS'order'
p53
F1523918481.888837
sS'objid'
p54
g8
(g12
S'\x19\x01\x00\x00\x00\x00\x00\x00'
p55
tp56
Rp57
sa(dp58
S'action'
p59
S'delete'
p60
sS'order'
p61
F1523918481.890328
sS'objid'
p62
g8
(g12
S'\x18\x01\x00\x00\x00\x00\x00\x00'
p63
tp64
Rp65
sa(dp66
S'action'
p67
S'delete'
p68
sS'order'
p69
F1523918481.891919
sS'objid'
p70
g8
(g12
S'\x17\x01\x00\x00\x00\x00\x00\x00'
p71
tp72
Rp73
sa(dp74
S'action'
p75
S'delete'
p76
sS'order'
p77
F1523918481.893593
sS'objid'
p78
g8
(g12
S'\x16\x01\x00\x00\x00\x00\x00\x00'
p79
tp80
Rp81
sa(dp82
S'action'
p83
S'delete'
p84
sS'order'
p85
F1523918481.895347
sS'objid'
p86
g8
(g12
S'\x15\x01\x00\x00\x00\x00\x00\x00'
p87
tp88
Rp89
sa(dp90
S'action'
p91
S'delete'
p92
sS'order'
p93
F1523918481.896656
sS'objid'
p94
g8
(g12
S'\x14\x01\x00\x00\x00\x00\x00\x00'
p95
tp96
Rp97
sa(dp98
S'action'
p99
S'delete'
p100
sS'order'
p101
F1523918481.897976
sS'objid'
p102
g8
(g12
S'\x13\x01\x00\x00\x00\x00\x00\x00'
p103
tp104
Rp105
sa(dp106
S'action'
p107
S'delete'
p108
sS'order'
p109
F1523918481.899363
sS'objid'
p110
g8
(g12
S'\x12\x01\x00\x00\x00\x00\x00\x00'
p111
tp112
Rp113
sa(dp114
S'action'
p115
S'delete'
p116
sS'order'
p117
F1523918481.900808
sS'objid'
p118
g8
(g12
S'\x11\x01\x00\x00\x00\x00\x00\x00'
p119
tp120
Rp121
sa(dp122
S'action'
p123
S'delete'
p124
sS'order'
p125
F1523918481.90231
sS'objid'
p126
g8
(g12
S'\x10\x01\x00\x00\x00\x00\x00\x00'
p127
tp128
Rp129
sa(dp130
S'action'
p131
S'delete'
p132
sS'order'
p133
F1523918481.903935
sS'objid'
p134
g8
(g12
S'\x0f\x01\x00\x00\x00\x00\x00\x00'
p135
tp136
Rp137
sa(dp138
S'action'
p139
S'delete'
p140
sS'order'
p141
F1523918481.905566
sS'objid'
p142
g8
(g12
S'\x0e\x01\x00\x00\x00\x00\x00\x00'
p143
tp144
Rp145
sa(dp146
S'action'
p147
S'delete'
p148
sS'order'
p149
F1523918481.907259
sS'objid'
p150
g8
(g12
S'\r\x01\x00\x00\x00\x00\x00\x00'
p151
tp152
Rp153
sa(dp154
S'action'
p155
S'delete'
p156
sS'order'
p157
F1523918481.908996
sS'objid'
p158
g8
(g12
S'\x0c\x01\x00\x00\x00\x00\x00\x00'
p159
tp160
Rp161
sa(dp162
S'action'
p163
S'delete'
p164
sS'order'
p165
F1523918481.910827
sS'objid'
p166
g8
(g12
S'\x0b\x01\x00\x00\x00\x00\x00\x00'
p167
tp168
Rp169
sa(dp170
S'action'
p171
S'delete'
p172
sS'order'
p173
F1523918481.912701
sS'objid'
p174
g8
(g12
S'\n\x01\x00\x00\x00\x00\x00\x00'
p175
tp176
Rp177
sa(dp178
S'action'
p179
S'delete'
p180
sS'order'
p181
F1523918481.914629
sS'objid'
p182
g8
(g12
S'\t\x01\x00\x00\x00\x00\x00\x00'
p183
tp184
Rp185
sa(dp186
S'action'
p187
S'delete'
p188
sS'order'
p189
F1523918481.916599
sS'objid'
p190
g8
(g12
S'\x08\x01\x00\x00\x00\x00\x00\x00'
p191
tp192
Rp193
sa(dp194
S'action'
p195
S'delete'
p196
sS'order'
p197
F1523918481.918627
sS'objid'
p198
g8
(g12
S'\x07\x01\x00\x00\x00\x00\x00\x00'
p199
tp200
Rp201
sa(dp202
S'action'
p203
S'delete'
p204
sS'order'
p205
F1523918481.920736
sS'objid'
p206
g8
(g12
S'\x06\x01\x00\x00\x00\x00\x00\x00'
p207
tp208
Rp209
sa(dp210
S'action'
p211
S'delete'
p212
sS'order'
p213
F1523918481.922874
sS'objid'
p214
g8
(g12
S'\x05\x01\x00\x00\x00\x00\x00\x00'
p215
tp216
Rp217
sa(dp218
S'action'
p219
S'delete'
p220
sS'order'
p221
F1523918481.925075
sS'objid'
p222
g8
(g12
S'\x04\x01\x00\x00\x00\x00\x00\x00'
p223
tp224
Rp225
sa(dp226
S'action'
p227
S'delete'
p228
sS'order'
p229
F1523918481.927434
sS'objid'
p230
g8
(g12
S'\x03\x01\x00\x00\x00\x00\x00\x00'
p231
tp232
Rp233
sa(dp234
S'action'
p235
S'delete'
p236
sS'order'
p237
F1523918481.929761
sS'objid'
p238
g8
(g12
S'\x02\x01\x00\x00\x00\x00\x00\x00'
p239
tp240
Rp241
sa(dp242
S'action'
p243
S'delete'
p244
sS'order'
p245
F1523918481.932131
sS'objid'
p246
g8
(g12
S'\x01\x01\x00\x00\x00\x00\x00\x00'
p247
tp248
Rp249
sa(dp250
S'action'
p251
S'delete'
p252
sS'order'
p253
F1523918481.934557
sS'objid'
p254
g8
(g12
S'\x00\x01\x00\x00\x00\x00\x00\x00'
p255
tp256
Rp257
sa(dp258
S'action'
p259
S'delete'
p260
sS'order'
p261
F1523918481.937057
sS'objid'
p262
g8
(g12
S'\xff\x00\x00\x00\x00\x00\x00\x00'
p263
tp264
Rp265
sa(dp266
S'action'
p267
S'delete'
p268
sS'order'
p269
F1523918481.939601
sS'objid'
p270
g8
(g12
S'\xfe\x00\x00\x00\x00\x00\x00\x00'
p271
tp272
Rp273
sa(dp274
S'action'
p275
S'delete'
p276
sS'order'
p277
F1523918481.942208
sS'objid'
p278
g8
(g12
S'\xfd\x00\x00\x00\x00\x00\x00\x00'
p279
tp280
Rp281
sa(dp282
S'action'
p283
S'delete'
p284
sS'order'
p285
F1523918481.944877
sS'objid'
p286
g8
(g12
S'\xfc\x00\x00\x00\x00\x00\x00\x00'
p287
tp288
Rp289
sa(dp290
S'action'
p291
S'delete'
p292
sS'order'
p293
F1523918481.947601
sS'objid'
p294
g8
(g12
S'\xfb\x00\x00\x00\x00\x00\x00\x00'
p295
tp296
Rp297
sa(dp298
S'action'
p299
S'delete'
p300
sS'order'
p301
F1523918481.950383
sS'objid'
p302
g8
(g12
S'\xfa\x00\x00\x00\x00\x00\x00\x00'
p303
tp304
Rp305
sa(dp306
S'action'
p307
S'delete'
p308
sS'order'
p309
F1523918481.953227
sS'objid'
p310
g8
(g12
S'\xf9\x00\x00\x00\x00\x00\x00\x00'
p311
tp312
Rp313
sa(dp314
S'action'
p315
S'delete'
p316
sS'order'
p317
F1523918481.956125
sS'objid'
p318
g8
(g12
S'\xf8\x00\x00\x00\x00\x00\x00\x00'
p319
tp320
Rp321
sa(dp322
S'action'
p323
S'delete'
p324
sS'order'
p325
F1523918481.959074
sS'objid'
p326
g8
(g12
S'\xf7\x00\x00\x00\x00\x00\x00\x00'
p327
tp328
Rp329
sa(dp330
S'action'
p331
S'delete'
p332
sS'order'
p333
F1523918481.962085
sS'objid'
p334
g8
(g12
S'\xf6\x00\x00\x00\x00\x00\x00\x00'
p335
tp336
Rp337
sa(dp338
S'action'
p339
S'delete'
p340
sS'order'
p341
F1523918481.965147
sS'objid'
p342
g8
(g12
S'\xf5\x00\x00\x00\x00\x00\x00\x00'
p343
tp344
Rp345
sa(dp346
S'action'
p347
S'delete'
p348
sS'order'
p349
F1523918481.9683
sS'objid'
p350
g8
(g12
S'\xf4\x00\x00\x00\x00\x00\x00\x00'
p351
tp352
Rp353
sa(dp354
S'action'
p355
S'delete'
p356
sS'order'
p357
F1523918481.971506
sS'objid'
p358
g8
(g12
S'\xf3\x00\x00\x00\x00\x00\x00\x00'
p359
tp360
Rp361
sa(dp362
S'action'
p363
S'delete'
p364
sS'order'
p365
F1523918481.974751
sS'objid'
p366
g8
(g12
S'\xf2\x00\x00\x00\x00\x00\x00\x00'
p367
tp368
Rp369
sa(dp370
S'action'
p371
S'delete'
p372
sS'order'
p373
F1523918481.978082
sS'objid'
p374
g8
(g12
S'\xf1\x00\x00\x00\x00\x00\x00\x00'
p375
tp376
Rp377
sa(dp378
S'action'
p379
S'delete'
p380
sS'order'
p381
F1523918481.98146
sS'objid'
p382
g8
(g12
S'\xf0\x00\x00\x00\x00\x00\x00\x00'
p383
tp384
Rp385
sa(dp386
S'action'
p387
S'delete'
p388
sS'order'
p389
F1523918481.984909
sS'objid'
p390
g8
(g12
S'\xef\x00\x00\x00\x00\x00\x00\x00'
p391
tp392
Rp393
sa(dp394
S'action'
p395
S'delete'
p396
sS'order'
p397
F1523918481.988418
sS'objid'
p398
g8
(g12
S'\xee\x00\x00\x00\x00\x00\x00\x00'
p399
tp400
Rp401
sa(dp402
S'action'
p403
S'delete'
p404
sS'order'
p405
F1523918481.991986
sS'objid'
p406
g8
(g12
S'\xed\x00\x00\x00\x00\x00\x00\x00'
p407
tp408
Rp409
sa(dp410
S'action'
p411
S'delete'
p412
sS'order'
p413
F1523918481.995606
sS'objid'
p414
g8
(g12
S'\xec\x00\x00\x00\x00\x00\x00\x00'
p415
tp416
Rp417
sa(dp418
S'action'
p419
S'delete'
p420
sS'order'
p421
F1523918481.99928
sS'objid'
p422
g8
(g12
S'\xeb\x00\x00\x00\x00\x00\x00\x00'
p423
tp424
Rp425
sa(dp426
S'action'
p427
S'delete'
p428
sS'order'
p429
F1523918482.002998
sS'objid'
p430
g8
(g12
S'\xea\x00\x00\x00\x00\x00\x00\x00'
p431
tp432
Rp433
sa(dp434
S'action'
p435
S'delete'
p436
sS'order'
p437
F1523918482.006798
sS'objid'
p438
g8
(g12
S'\xe9\x00\x00\x00\x00\x00\x00\x00'
p439
tp440
Rp441
sa(dp442
S'action'
p443
S'delete'
p444
sS'order'
p445
F1523918482.010715
sS'objid'
p446
g8
(g12
S'\xe8\x00\x00\x00\x00\x00\x00\x00'
p447
tp448
Rp449
sa(dp450
S'action'
p451
S'delete'
p452
sS'order'
p453
F1523918482.014651
sS'objid'
p454
g8
(g12
S'\xe7\x00\x00\x00\x00\x00\x00\x00'
p455
tp456
Rp457
sa(dp458
S'action'
p459
S'delete'
p460
sS'order'
p461
F1523918482.018633
sS'objid'
p462
g8
(g12
S'\xe6\x00\x00\x00\x00\x00\x00\x00'
p463
tp464
Rp465
sa(dp466
S'action'
p467
S'delete'
p468
sS'order'
p469
F1523918482.022722
sS'objid'
p470
g8
(g12
S'\xe5\x00\x00\x00\x00\x00\x00\x00'
p471
tp472
Rp473
sa(dp474
S'action'
p475
S'delete'
p476
sS'order'
p477
F1523918482.026819
sS'objid'
p478
g8
(g12
S'\xe4\x00\x00\x00\x00\x00\x00\x00'
p479
tp480
Rp481
sa(dp482
S'action'
p483
S'delete'
p484
sS'order'
p485
F1523918482.030957
sS'objid'
p486
g8
(g12
S'\xe3\x00\x00\x00\x00\x00\x00\x00'
p487
tp488
Rp489
sa(dp490
S'action'
p491
S'delete'
p492
sS'order'
p493
F1523918482.03515
sS'objid'
p494
g8
(g12
S'\xe2\x00\x00\x00\x00\x00\x00\x00'
p495
tp496
Rp497
sa(dp498
S'action'
p499
S'delete'
p500
sS'order'
p501
F1523918482.039431
sS'objid'
p502
g8
(g12
S'\xe1\x00\x00\x00\x00\x00\x00\x00'
p503
tp504
Rp505
sa(dp506
S'action'
p507
S'delete'
p508
sS'order'
p509
F1523918482.043755
sS'objid'
p510
g8
(g12
S'\xe0\x00\x00\x00\x00\x00\x00\x00'
p511
tp512
Rp513
sa(dp514
S'action'
p515
S'delete'
p516
sS'order'
p517
F1523918482.04814
sS'objid'
p518
g8
(g12
S'\xdf\x00\x00\x00\x00\x00\x00\x00'
p519
tp520
Rp521
sa(dp522
S'action'
p523
S'delete'
p524
sS'order'
p525
F1523918482.052573
sS'objid'
p526
g8
(g12
S'\xde\x00\x00\x00\x00\x00\x00\x00'
p527
tp528
Rp529
sa(dp530
S'action'
p531
S'delete'
p532
sS'order'
p533
F1523918482.057074
sS'objid'
p534
g8
(g12
S'\xdd\x00\x00\x00\x00\x00\x00\x00'
p535
tp536
Rp537
sa(dp538
S'action'
p539
S'delete'
p540
sS'order'
p541
F1523918482.061628
sS'objid'
p542
g8
(g12
S'\xdc\x00\x00\x00\x00\x00\x00\x00'
p543
tp544
Rp545
sa(dp546
S'action'
p547
S'delete'
p548
sS'order'
p549
F1523918482.06625
sS'objid'
p550
g8
(g12
S'\xdb\x00\x00\x00\x00\x00\x00\x00'
p551
tp552
Rp553
sa(dp554
S'action'
p555
S'delete'
p556
sS'order'
p557
F1523918482.070926
sS'objid'
p558
g8
(g12
S'\xda\x00\x00\x00\x00\x00\x00\x00'
p559
tp560
Rp561
sa(dp562
S'action'
p563
S'delete'
p564
sS'order'
p565
F1523918482.075645
sS'objid'
p566
g8
(g12
S'\xd9\x00\x00\x00\x00\x00\x00\x00'
p567
tp568
Rp569
sa(dp570
S'action'
p571
S'delete'
p572
sS'order'
p573
F1523918482.080407
sS'objid'
p574
g8
(g12
S'\xd8\x00\x00\x00\x00\x00\x00\x00'
p575
tp576
Rp577
sa(dp578
S'action'
p579
S'delete'
p580
sS'order'
p581
F1523918482.085236
sS'objid'
p582
g8
(g12
S'\xd7\x00\x00\x00\x00\x00\x00\x00'
p583
tp584
Rp585
sa(dp586
S'action'
p587
S'delete'
p588
sS'order'
p589
F1523918482.090147
sS'objid'
p590
g8
(g12
S'\xd6\x00\x00\x00\x00\x00\x00\x00'
p591
tp592
Rp593
sa(dp594
S'action'
p595
S'delete'
p596
sS'order'
p597
F1523918482.095111
sS'objid'
p598
g8
(g12
S'\xd5\x00\x00\x00\x00\x00\x00\x00'
p599
tp600
Rp601
sa(dp602
S'action'
p603
S'delete'
p604
sS'order'
p605
F1523918482.100119
sS'objid'
p606
g8
(g12
S'\xd4\x00\x00\x00\x00\x00\x00\x00'
p607
tp608
Rp609
sa(dp610
S'action'
p611
S'delete'
p612
sS'order'
p613
F1523918482.105195
sS'objid'
p614
g8
(g12
S'\xd3\x00\x00\x00\x00\x00\x00\x00'
p615
tp616
Rp617
sa(dp618
S'action'
p619
S'delete'
p620
sS'order'
p621
F1523918482.110392
sS'objid'
p622
g8
(g12
S'\xd2\x00\x00\x00\x00\x00\x00\x00'
p623
tp624
Rp625
sa(dp626
S'action'
p627
S'delete'
p628
sS'order'
p629
F1523918482.115606
sS'objid'
p630
g8
(g12
S'\xd1\x00\x00\x00\x00\x00\x00\x00'
p631
tp632
Rp633
sa(dp634
S'action'
p635
S'delete'
p636
sS'order'
p637
F1523918482.120863
sS'objid'
p638
g8
(g12
S'\xd0\x00\x00\x00\x00\x00\x00\x00'
p639
tp640
Rp641
sa(dp642
S'action'
p643
S'delete'
p644
sS'order'
p645
F1523918482.126182
sS'objid'
p646
g8
(g12
S'\xcf\x00\x00\x00\x00\x00\x00\x00'
p647
tp648
Rp649
sa(dp650
S'action'
p651
S'delete'
p652
sS'order'
p653
F1523918482.131539
sS'objid'
p654
g8
(g12
S'\xce\x00\x00\x00\x00\x00\x00\x00'
p655
tp656
Rp657
sa(dp658
S'action'
p659
S'delete'
p660
sS'order'
p661
F1523918482.136937
sS'objid'
p662
g8
(g12
S'\xcd\x00\x00\x00\x00\x00\x00\x00'
p663
tp664
Rp665
sa(dp666
S'action'
p667
S'delete'
p668
sS'order'
p669
F1523918482.142433
sS'objid'
p670
g8
(g12
S'\xcc\x00\x00\x00\x00\x00\x00\x00'
p671
tp672
Rp673
sa(dp674
S'action'
p675
S'delete'
p676
sS'order'
p677
F1523918482.147979
sS'objid'
p678
g8
(g12
S'\xcb\x00\x00\x00\x00\x00\x00\x00'
p679
tp680
Rp681
sa(dp682
S'action'
p683
S'delete'
p684
sS'order'
p685
F1523918482.153578
sS'objid'
p686
g8
(g12
S'\xca\x00\x00\x00\x00\x00\x00\x00'
p687
tp688
Rp689
sa(dp690
S'action'
p691
S'delete'
p692
sS'order'
p693
F1523918482.159232
sS'objid'
p694
g8
(g12
S'\xc9\x00\x00\x00\x00\x00\x00\x00'
p695
tp696
Rp697
sa(dp698
S'action'
p699
S'delete'
p700
sS'order'
p701
F1523918482.164945
sS'objid'
p702
g8
(g12
S'\xc8\x00\x00\x00\x00\x00\x00\x00'
p703
tp704
Rp705
sa(dp706
S'action'
p707
S'delete'
p708
sS'order'
p709
F1523918482.170699
sS'objid'
p710
g8
(g12
S'\xc7\x00\x00\x00\x00\x00\x00\x00'
p711
tp712
Rp713
sa(dp714
S'action'
p715
S'delete'
p716
sS'order'
p717
F1523918482.176533
sS'objid'
p718
g8
(g12
S'\xc6\x00\x00\x00\x00\x00\x00\x00'
p719
tp720
Rp721
sa(dp722
S'action'
p723
S'delete'
p724
sS'order'
p725
F1523918482.182416
sS'objid'
p726
g8
(g12
S'\xc5\x00\x00\x00\x00\x00\x00\x00'
p727
tp728
Rp729
sa(dp730
S'action'
p731
S'delete'
p732
sS'order'
p733
F1523918482.188366
sS'objid'
p734
g8
(g12
S'\xc4\x00\x00\x00\x00\x00\x00\x00'
p735
tp736
Rp737
sa(dp738
S'action'
p739
S'delete'
p740
sS'order'
p741
F1523918482.194367
sS'objid'
p742
g8
(g12
S'\xc3\x00\x00\x00\x00\x00\x00\x00'
p743
tp744
Rp745
sa(dp746
S'action'
p747
S'delete'
p748
sS'order'
p749
F1523918482.200442
sS'objid'
p750
g8
(g12
S'\xc2\x00\x00\x00\x00\x00\x00\x00'
p751
tp752
Rp753
sa(dp754
S'action'
p755
S'delete'
p756
sS'order'
p757
F1523918482.20655
sS'objid'
p758
g8
(g12
S'\xc1\x00\x00\x00\x00\x00\x00\x00'
p759
tp760
Rp761
sa(dp762
S'action'
p763
S'delete'
p764
sS'order'
p765
F1523918482.212779
sS'objid'
p766
g8
(g12
S'\xc0\x00\x00\x00\x00\x00\x00\x00'
p767
tp768
Rp769
sa(dp770
S'action'
p771
S'delete'
p772
sS'order'
p773
F1523918482.219033
sS'objid'
p774
g8
(g12
S'\xbf\x00\x00\x00\x00\x00\x00\x00'
p775
tp776
Rp777
sa(dp778
S'action'
p779
S'delete'
p780
sS'order'
p781
F1523918482.22538
sS'objid'
p782
g8
(g12
S'\xbe\x00\x00\x00\x00\x00\x00\x00'
p783
tp784
Rp785
sa(dp786
S'action'
p787
S'delete'
p788
sS'order'
p789
F1523918506.345932
sS'objid'
p790
g8
(g12
S'\xbd\x00\x00\x00\x00\x00\x00\x00'
p791
tp792
Rp793
sa(dp794
S'action'
p795
S'delete'
p796
sS'order'
p797
F1523918506.354252
sS'objid'
p798
g8
(g12
S'\xbc\x00\x00\x00\x00\x00\x00\x00'
p799
tp800
Rp801
sa(dp802
S'action'
p803
S'delete'
p804
sS'order'
p805
F1523918506.362699
sS'objid'
p806
g8
(g12
S'\xbb\x00\x00\x00\x00\x00\x00\x00'
p807
tp808
Rp809
sa(dp810
S'action'
p811
S'delete'
p812
sS'order'
p813
F1523918506.369322
sS'objid'
p814
g8
(g12
S'\xba\x00\x00\x00\x00\x00\x00\x00'
p815
tp816
Rp817
sa(dp818
S'action'
p819
S'delete'
p820
sS'order'
p821
F1523918506.376406
sS'objid'
p822
g8
(g12
S'\xb9\x00\x00\x00\x00\x00\x00\x00'
p823
tp824
Rp825
sa(dp826
S'action'
p827
S'delete'
p828
sS'order'
p829
F1523918506.383082
sS'objid'
p830
g8
(g12
S'\xb8\x00\x00\x00\x00\x00\x00\x00'
p831
tp832
Rp833
sa(dp834
S'action'
p835
S'delete'
p836
sS'order'
p837
F1523918506.389811
sS'objid'
p838
g8
(g12
S'\xb7\x00\x00\x00\x00\x00\x00\x00'
p839
tp840
Rp841
sa(dp842
S'action'
p843
S'delete'
p844
sS'order'
p845
F1523918506.396579
sS'objid'
p846
g8
(g12
S'\xb6\x00\x00\x00\x00\x00\x00\x00'
p847
tp848
Rp849
sa(dp850
S'action'
p851
S'delete'
p852
sS'order'
p853
F1523918506.403406
sS'objid'
p854
g8
(g12
S'\xb5\x00\x00\x00\x00\x00\x00\x00'
p855
tp856
Rp857
sa(dp858
S'action'
p859
S'delete'
p860
sS'order'
p861
F1523918506.410289
sS'objid'
p862
g8
(g12
S'\xb4\x00\x00\x00\x00\x00\x00\x00'
p863
tp864
Rp865
sa(dp866
S'action'
p867
S'delete'
p868
sS'order'
p869
F1523918506.417228
sS'objid'
p870
g8
(g12
S'\xb3\x00\x00\x00\x00\x00\x00\x00'
p871
tp872
Rp873
sa(dp874
S'action'
p875
S'delete'
p876
sS'order'
p877
F1523918506.424241
sS'objid'
p878
g8
(g12
S'\xb2\x00\x00\x00\x00\x00\x00\x00'
p879
tp880
Rp881
sa(dp882
S'action'
p883
S'delete'
p884
sS'order'
p885
F1523918506.431285
sS'objid'
p886
g8
(g12
S'\xb1\x00\x00\x00\x00\x00\x00\x00'
p887
tp888
Rp889
sa(dp890
S'action'
p891
S'delete'
p892
sS'order'
p893
F1523918506.438438
sS'objid'
p894
g8
(g12
S'\xb0\x00\x00\x00\x00\x00\x00\x00'
p895
tp896
Rp897
sa(dp898
S'action'
p899
S'delete'
p900
sS'order'
p901
F1523918506.445692
sS'objid'
p902
g8
(g12
S'\xaf\x00\x00\x00\x00\x00\x00\x00'
p903
tp904
Rp905
sa(dp906
S'action'
p907
S'delete'
p908
sS'order'
p909
F1523918506.45303
sS'objid'
p910
g8
(g12
S'\xae\x00\x00\x00\x00\x00\x00\x00'
p911
tp912
Rp913
sa(dp914
S'action'
p915
S'delete'
p916
sS'order'
p917
F1523918506.460414
sS'objid'
p918
g8
(g12
S'\xad\x00\x00\x00\x00\x00\x00\x00'
p919
tp920
Rp921
sa(dp922
S'action'
p923
S'delete'
p924
sS'order'
p925
F1523918506.467795
sS'objid'
p926
g8
(g12
S'\xac\x00\x00\x00\x00\x00\x00\x00'
p927
tp928
Rp929
sa(dp930
S'action'
p931
S'delete'
p932
sS'order'
p933
F1523918506.475231
sS'objid'
p934
g8
(g12
S'\xab\x00\x00\x00\x00\x00\x00\x00'
p935
tp936
Rp937
sa(dp938
S'action'
p939
S'delete'
p940
sS'order'
p941
F1523918506.482697
sS'objid'
p942
g8
(g12
S'\xaa\x00\x00\x00\x00\x00\x00\x00'
p943
tp944
Rp945
sa(dp946
S'action'
p947
S'delete'
p948
sS'order'
p949
F1523918506.490242
sS'objid'
p950
g8
(g12
S'\xa9\x00\x00\x00\x00\x00\x00\x00'
p951
tp952
Rp953
sa(dp954
S'action'
p955
S'delete'
p956
sS'order'
p957
F1523918506.497837
sS'objid'
p958
g8
(g12
S'\xa8\x00\x00\x00\x00\x00\x00\x00'
p959
tp960
Rp961
sa(dp962
S'action'
p963
S'delete'
p964
sS'order'
p965
F1523918506.505475
sS'objid'
p966
g8
(g12
S'\xa7\x00\x00\x00\x00\x00\x00\x00'
p967
tp968
Rp969
sa(dp970
S'action'
p971
S'delete'
p972
sS'order'
p973
F1523918506.51321
sS'objid'
p974
g8
(g12
S'\xa6\x00\x00\x00\x00\x00\x00\x00'
p975
tp976
Rp977
sa(dp978
S'action'
p979
S'delete'
p980
sS'order'
p981
F1523918506.522403
sS'objid'
p982
g8
(g12
S'\xa5\x00\x00\x00\x00\x00\x00\x00'
p983
tp984
Rp985
sa(dp986
S'action'
p987
S'delete'
p988
sS'order'
p989
F1523918506.530207
sS'objid'
p990
g8
(g12
S'\xa4\x00\x00\x00\x00\x00\x00\x00'
p991
tp992
Rp993
sa(dp994
S'action'
p995
S'delete'
p996
sS'order'
p997
F1523918506.538078
sS'objid'
p998
g8
(g12
S'\xa3\x00\x00\x00\x00\x00\x00\x00'
p999
tp1000
Rp1001
sa(dp1002
S'action'
p1003
S'delete'
p1004
sS'order'
p1005
F1523918506.546048
sS'objid'
p1006
g8
(g12
S'\xa2\x00\x00\x00\x00\x00\x00\x00'
p1007
tp1008
Rp1009
sa(dp1010
S'action'
p1011
S'delete'
p1012
sS'order'
p1013
F1523918506.554207
sS'objid'
p1014
g8
(g12
S'\xa1\x00\x00\x00\x00\x00\x00\x00'
p1015
tp1016
Rp1017
sa(dp1018
S'action'
p1019
S'delete'
p1020
sS'order'
p1021
F1523918506.562298
sS'objid'
p1022
g8
(g12
S'\xa0\x00\x00\x00\x00\x00\x00\x00'
p1023
tp1024
Rp1025
sa(dp1026
S'action'
p1027
S'delete'
p1028
sS'order'
p1029
F1523918506.570428
sS'objid'
p1030
g8
(g12
S'\x9f\x00\x00\x00\x00\x00\x00\x00'
p1031
tp1032
Rp1033
sa(dp1034
S'action'
p1035
S'delete'
p1036
sS'order'
p1037
F1523918506.578571
sS'objid'
p1038
g8
(g12
S'\x9e\x00\x00\x00\x00\x00\x00\x00'
p1039
tp1040
Rp1041
sa(dp1042
S'action'
p1043
S'delete'
p1044
sS'order'
p1045
F1523918506.586833
sS'objid'
p1046
g8
(g12
S'\x9d\x00\x00\x00\x00\x00\x00\x00'
p1047
tp1048
Rp1049
sa(dp1050
S'action'
p1051
S'delete'
p1052
sS'order'
p1053
F1523918506.595147
sS'objid'
p1054
g8
(g12
S'\x9c\x00\x00\x00\x00\x00\x00\x00'
p1055
tp1056
Rp1057
sa(dp1058
S'action'
p1059
S'delete'
p1060
sS'order'
p1061
F1523918506.603482
sS'objid'
p1062
g8
(g12
S'\x9b\x00\x00\x00\x00\x00\x00\x00'
p1063
tp1064
Rp1065
sa(dp1066
S'action'
p1067
S'delete'
p1068
sS'order'
p1069
F1523918506.611861
sS'objid'
p1070
g8
(g12
S'\x9a\x00\x00\x00\x00\x00\x00\x00'
p1071
tp1072
Rp1073
sa(dp1074
S'action'
p1075
S'delete'
p1076
sS'order'
p1077
F1523918506.620311
sS'objid'
p1078
g8
(g12
S'\x99\x00\x00\x00\x00\x00\x00\x00'
p1079
tp1080
Rp1081
sa(dp1082
S'action'
p1083
S'delete'
p1084
sS'order'
p1085
F1523918506.628798
sS'objid'
p1086
g8
(g12
S'\x98\x00\x00\x00\x00\x00\x00\x00'
p1087
tp1088
Rp1089
sa(dp1090
S'action'
p1091
S'delete'
p1092
sS'order'
p1093
F1523918506.637338
sS'objid'
p1094
g8
(g12
S'\x97\x00\x00\x00\x00\x00\x00\x00'
p1095
tp1096
Rp1097
sa(dp1098
S'action'
p1099
S'delete'
p1100
sS'order'
p1101
F1523918506.645984
sS'objid'
p1102
g8
(g12
S'\x96\x00\x00\x00\x00\x00\x00\x00'
p1103
tp1104
Rp1105
sa(dp1106
S'action'
p1107
S'delete'
p1108
sS'order'
p1109
F1523918506.654845
sS'objid'
p1110
g8
(g12
S'\x95\x00\x00\x00\x00\x00\x00\x00'
p1111
tp1112
Rp1113
sa(dp1114
S'action'
p1115
S'delete'
p1116
sS'order'
p1117
F1523918506.663637
sS'objid'
p1118
g8
(g12
S'\x94\x00\x00\x00\x00\x00\x00\x00'
p1119
tp1120
Rp1121
sa(dp1122
S'action'
p1123
S'delete'
p1124
sS'order'
p1125
F1523918506.672472
sS'objid'
p1126
g8
(g12
S'\x93\x00\x00\x00\x00\x00\x00\x00'
p1127
tp1128
Rp1129
sa(dp1130
S'action'
p1131
S'delete'
p1132
sS'order'
p1133
F1523918506.681321
sS'objid'
p1134
g8
(g12
S'\x92\x00\x00\x00\x00\x00\x00\x00'
p1135
tp1136
Rp1137
sa(dp1138
S'action'
p1139
S'delete'
p1140
sS'order'
p1141
F1523918506.690237
sS'objid'
p1142
g8
(g12
S'\x91\x00\x00\x00\x00\x00\x00\x00'
p1143
tp1144
Rp1145
sa(dp1146
S'action'
p1147
S'delete'
p1148
sS'order'
p1149
F1523918506.700665
sS'objid'
p1150
g8
(g12
S'\x90\x00\x00\x00\x00\x00\x00\x00'
p1151
tp1152
Rp1153
sa(dp1154
S'action'
p1155
S'delete'
p1156
sS'order'
p1157
F1523918506.709735
sS'objid'
p1158
g8
(g12
S'\x8f\x00\x00\x00\x00\x00\x00\x00'
p1159
tp1160
Rp1161
sa(dp1162
S'action'
p1163
S'delete'
p1164
sS'order'
p1165
F1523918506.718815
sS'objid'
p1166
g8
(g12
S'\x8e\x00\x00\x00\x00\x00\x00\x00'
p1167
tp1168
Rp1169
sa(dp1170
S'action'
p1171
S'delete'
p1172
sS'order'
p1173
F1523918506.727988
sS'objid'
p1174
g8
(g12
S'\x8d\x00\x00\x00\x00\x00\x00\x00'
p1175
tp1176
Rp1177
sa(dp1178
S'action'
p1179
S'delete'
p1180
sS'order'
p1181
F1523918506.737222
sS'objid'
p1182
g8
(g12
S'\x8c\x00\x00\x00\x00\x00\x00\x00'
p1183
tp1184
Rp1185
sa(dp1186
S'action'
p1187
S'delete'
p1188
sS'order'
p1189
F1523918506.746542
sS'objid'
p1190
g8
(g12
S'\x8b\x00\x00\x00\x00\x00\x00\x00'
p1191
tp1192
Rp1193
sa(dp1194
S'action'
p1195
S'delete'
p1196
sS'order'
p1197
F1523918506.755979
sS'objid'
p1198
g8
(g12
S'\x8a\x00\x00\x00\x00\x00\x00\x00'
p1199
tp1200
Rp1201
sa(dp1202
S'action'
p1203
S'delete'
p1204
sS'order'
p1205
F1523918506.765385
sS'objid'
p1206
g8
(g12
S'\x89\x00\x00\x00\x00\x00\x00\x00'
p1207
tp1208
Rp1209
sa(dp1210
S'action'
p1211
S'delete'
p1212
sS'order'
p1213
F1523918506.774812
sS'objid'
p1214
g8
(g12
S'\x88\x00\x00\x00\x00\x00\x00\x00'
p1215
tp1216
Rp1217
sa(dp1218
S'action'
p1219
S'delete'
p1220
sS'order'
p1221
F1523918506.784369
sS'objid'
p1222
g8
(g12
S'\x87\x00\x00\x00\x00\x00\x00\x00'
p1223
tp1224
Rp1225
sa(dp1226
S'action'
p1227
S'delete'
p1228
sS'order'
p1229
F1523918506.793952
sS'objid'
p1230
g8
(g12
S'\x86\x00\x00\x00\x00\x00\x00\x00'
p1231
tp1232
Rp1233
sa(dp1234
S'action'
p1235
S'delete'
p1236
sS'order'
p1237
F1523918506.803572
sS'objid'
p1238
g8
(g12
S'\x85\x00\x00\x00\x00\x00\x00\x00'
p1239
tp1240
Rp1241
sa(dp1242
S'action'
p1243
S'delete'
p1244
sS'order'
p1245
F1523918506.813245
sS'objid'
p1246
g8
(g12
S'\x84\x00\x00\x00\x00\x00\x00\x00'
p1247
tp1248
Rp1249
sa(dp1250
S'action'
p1251
S'delete'
p1252
sS'order'
p1253
F1523918506.822989
sS'objid'
p1254
g8
(g12
S'\x83\x00\x00\x00\x00\x00\x00\x00'
p1255
tp1256
Rp1257
sa(dp1258
S'action'
p1259
S'delete'
p1260
sS'order'
p1261
F1523918506.832789
sS'objid'
p1262
g8
(g12
S'\x82\x00\x00\x00\x00\x00\x00\x00'
p1263
tp1264
Rp1265
sa(dp1266
S'action'
p1267
S'delete'
p1268
sS'order'
p1269
F1523918506.842643
sS'objid'
p1270
g8
(g12
S'\x81\x00\x00\x00\x00\x00\x00\x00'
p1271
tp1272
Rp1273
sa(dp1274
S'action'
p1275
S'delete'
p1276
sS'order'
p1277
F1523918506.852674
sS'objid'
p1278
g8
(g12
S'\x80\x00\x00\x00\x00\x00\x00\x00'
p1279
tp1280
Rp1281
sa(dp1282
S'action'
p1283
S'delete'
p1284
sS'order'
p1285
F1523918506.862791
sS'objid'
p1286
g8
(g12
S'\x7f\x00\x00\x00\x00\x00\x00\x00'
p1287
tp1288
Rp1289
sa(dp1290
S'action'
p1291
S'delete'
p1292
sS'order'
p1293
F1523918506.874287
sS'objid'
p1294
g8
(g12
S'~\x00\x00\x00\x00\x00\x00\x00'
p1295
tp1296
Rp1297
sa(dp1298
S'action'
p1299
S'delete'
p1300
sS'order'
p1301
F1523918506.884392
sS'objid'
p1302
g8
(g12
S'}\x00\x00\x00\x00\x00\x00\x00'
p1303
tp1304
Rp1305
sa(dp1306
S'action'
p1307
S'delete'
p1308
sS'order'
p1309
F1523918506.894676
sS'objid'
p1310
g8
(g12
S'|\x00\x00\x00\x00\x00\x00\x00'
p1311
tp1312
Rp1313
sa(dp1314
S'action'
p1315
S'delete'
p1316
sS'order'
p1317
F1523918506.904885
sS'objid'
p1318
g8
(g12
S'{\x00\x00\x00\x00\x00\x00\x00'
p1319
tp1320
Rp1321
sa(dp1322
S'action'
p1323
S'delete'
p1324
sS'order'
p1325
F1523918506.915139
sS'objid'
p1326
g8
(g12
S'z\x00\x00\x00\x00\x00\x00\x00'
p1327
tp1328
Rp1329
sa(dp1330
S'action'
p1331
S'delete'
p1332
sS'order'
p1333
F1523918506.92546
sS'objid'
p1334
g8
(g12
S'y\x00\x00\x00\x00\x00\x00\x00'
p1335
tp1336
Rp1337
sa(dp1338
S'action'
p1339
S'delete'
p1340
sS'order'
p1341
F1523918506.935862
sS'objid'
p1342
g8
(g12
S'x\x00\x00\x00\x00\x00\x00\x00'
p1343
tp1344
Rp1345
sa(dp1346
S'action'
p1347
S'delete'
p1348
sS'order'
p1349
F1523918506.946449
sS'objid'
p1350
g8
(g12
S'w\x00\x00\x00\x00\x00\x00\x00'
p1351
tp1352
Rp1353
sa(dp1354
S'action'
p1355
S'delete'
p1356
sS'order'
p1357
F1523918506.957023
sS'objid'
p1358
g8
(g12
S'v\x00\x00\x00\x00\x00\x00\x00'
p1359
tp1360
Rp1361
sa(dp1362
S'action'
p1363
S'delete'
p1364
sS'order'
p1365
F1523918506.967692
sS'objid'
p1366
g8
(g12
S'u\x00\x00\x00\x00\x00\x00\x00'
p1367
tp1368
Rp1369
sa(dp1370
S'action'
p1371
S'delete'
p1372
sS'order'
p1373
F1523918506.978355
sS'objid'
p1374
g8
(g12
S't\x00\x00\x00\x00\x00\x00\x00'
p1375
tp1376
Rp1377
sa(dp1378
S'action'
p1379
S'delete'
p1380
sS'order'
p1381
F1523918506.990566
sS'objid'
p1382
g8
(g12
S's\x00\x00\x00\x00\x00\x00\x00'
p1383
tp1384
Rp1385
sa(dp1386
S'action'
p1387
S'delete'
p1388
sS'order'
p1389
F1523918507.001339
sS'objid'
p1390
g8
(g12
S'r\x00\x00\x00\x00\x00\x00\x00'
p1391
tp1392
Rp1393
sa(dp1394
S'action'
p1395
S'delete'
p1396
sS'order'
p1397
F1523918518.249516
sS'objid'
p1398
g8
(g12
S'q\x00\x00\x00\x00\x00\x00\x00'
p1399
tp1400
Rp1401
sa(dp1402
S'action'
p1403
S'delete'
p1404
sS'order'
p1405
F1523918518.269242
sS'objid'
p1406
g8
(g12
S'p\x00\x00\x00\x00\x00\x00\x00'
p1407
tp1408
Rp1409
sa(dp1410
S'action'
p1411
S'delete'
p1412
sS'order'
p1413
F1523918518.280575
sS'objid'
p1414
g8
(g12
S'o\x00\x00\x00\x00\x00\x00\x00'
p1415
tp1416
Rp1417
sa(dp1418
S'action'
p1419
S'delete'
p1420
sS'order'
p1421
F1523918518.296549
sS'objid'
p1422
g8
(g12
S'n\x00\x00\x00\x00\x00\x00\x00'
p1423
tp1424
Rp1425
sa(dp1426
S'action'
p1427
S'delete'
p1428
sS'order'
p1429
F1523918518.307761
sS'objid'
p1430
g8
(g12
S'm\x00\x00\x00\x00\x00\x00\x00'
p1431
tp1432
Rp1433
sa(dp1434
S'action'
p1435
S'delete'
p1436
sS'order'
p1437
F1523918518.318983
sS'objid'
p1438
g8
(g12
S'l\x00\x00\x00\x00\x00\x00\x00'
p1439
tp1440
Rp1441
sa(dp1442
S'action'
p1443
S'delete'
p1444
sS'order'
p1445
F1523918518.330229
sS'objid'
p1446
g8
(g12
S'k\x00\x00\x00\x00\x00\x00\x00'
p1447
tp1448
Rp1449
sa(dp1450
S'action'
p1451
S'delete'
p1452
sS'order'
p1453
F1523918518.341644
sS'objid'
p1454
g8
(g12
S'j\x00\x00\x00\x00\x00\x00\x00'
p1455
tp1456
Rp1457
sa(dp1458
S'action'
p1459
S'delete'
p1460
sS'order'
p1461
F1523918518.353059
sS'objid'
p1462
g8
(g12
S'i\x00\x00\x00\x00\x00\x00\x00'
p1463
tp1464
Rp1465
sa(dp1466
S'action'
p1467
S'delete'
p1468
sS'order'
p1469
F1523918518.364739
sS'objid'
p1470
g8
(g12
S'h\x00\x00\x00\x00\x00\x00\x00'
p1471
tp1472
Rp1473
sa(dp1474
S'action'
p1475
S'delete'
p1476
sS'order'
p1477
F1523918518.376342
sS'objid'
p1478
g8
(g12
S'g\x00\x00\x00\x00\x00\x00\x00'
p1479
tp1480
Rp1481
sa(dp1482
S'action'
p1483
S'delete'
p1484
sS'order'
p1485
F1523918518.387945
sS'objid'
p1486
g8
(g12
S'f\x00\x00\x00\x00\x00\x00\x00'
p1487
tp1488
Rp1489
sa(dp1490
S'action'
p1491
S'delete'
p1492
sS'order'
p1493
F1523918518.399532
sS'objid'
p1494
g8
(g12
S'e\x00\x00\x00\x00\x00\x00\x00'
p1495
tp1496
Rp1497
sa(dp1498
S'action'
p1499
S'delete'
p1500
sS'order'
p1501
F1523918518.411217
sS'objid'
p1502
g8
(g12
S'd\x00\x00\x00\x00\x00\x00\x00'
p1503
tp1504
Rp1505
sa(dp1506
S'action'
p1507
S'delete'
p1508
sS'order'
p1509
F1523918518.422955
sS'objid'
p1510
g8
(g12
S'c\x00\x00\x00\x00\x00\x00\x00'
p1511
tp1512
Rp1513
sa(dp1514
S'action'
p1515
S'delete'
p1516
sS'order'
p1517
F1523918518.434772
sS'objid'
p1518
g8
(g12
S'b\x00\x00\x00\x00\x00\x00\x00'
p1519
tp1520
Rp1521
sa(dp1522
S'action'
p1523
S'delete'
p1524
sS'order'
p1525
F1523918518.4466
sS'objid'
p1526
g8
(g12
S'a\x00\x00\x00\x00\x00\x00\x00'
p1527
tp1528
Rp1529
sa(dp1530
S'action'
p1531
S'delete'
p1532
sS'order'
p1533
F1523918518.458587
sS'objid'
p1534
g8
(g12
S'`\x00\x00\x00\x00\x00\x00\x00'
p1535
tp1536
Rp1537
sa(dp1538
S'action'
p1539
S'delete'
p1540
sS'order'
p1541
F1523918518.470717
sS'objid'
p1542
g8
(g12
S'_\x00\x00\x00\x00\x00\x00\x00'
p1543
tp1544
Rp1545
sa(dp1546
S'action'
p1547
S'delete'
p1548
sS'order'
p1549
F1523918518.482821
sS'objid'
p1550
g8
(g12
S'^\x00\x00\x00\x00\x00\x00\x00'
p1551
tp1552
Rp1553
sa(dp1554
S'action'
p1555
S'delete'
p1556
sS'order'
p1557
F1523918518.494903
sS'objid'
p1558
g8
(g12
S']\x00\x00\x00\x00\x00\x00\x00'
p1559
tp1560
Rp1561
sa(dp1562
S'action'
p1563
S'delete'
p1564
sS'order'
p1565
F1523918518.507038
sS'objid'
p1566
g8
(g12
S'\\\x00\x00\x00\x00\x00\x00\x00'
p1567
tp1568
Rp1569
sa(dp1570
S'action'
p1571
S'delete'
p1572
sS'order'
p1573
F1523918518.519251
sS'objid'
p1574
g8
(g12
S'[\x00\x00\x00\x00\x00\x00\x00'
p1575
tp1576
Rp1577
sa(dp1578
S'action'
p1579
S'delete'
p1580
sS'order'
p1581
F1523918518.531494
sS'objid'
p1582
g8
(g12
S'Z\x00\x00\x00\x00\x00\x00\x00'
p1583
tp1584
Rp1585
sa(dp1586
S'action'
p1587
S'delete'
p1588
sS'order'
p1589
F1523918518.543813
sS'objid'
p1590
g8
(g12
S'Y\x00\x00\x00\x00\x00\x00\x00'
p1591
tp1592
Rp1593
sa(dp1594
S'action'
p1595
S'delete'
p1596
sS'order'
p1597
F1523918518.55622
sS'objid'
p1598
g8
(g12
S'X\x00\x00\x00\x00\x00\x00\x00'
p1599
tp1600
Rp1601
sa(dp1602
S'action'
p1603
S'delete'
p1604
sS'order'
p1605
F1523918518.568744
sS'objid'
p1606
g8
(g12
S'W\x00\x00\x00\x00\x00\x00\x00'
p1607
tp1608
Rp1609
sa(dp1610
S'action'
p1611
S'delete'
p1612
sS'order'
p1613
F1523918518.581385
sS'objid'
p1614
g8
(g12
S'V\x00\x00\x00\x00\x00\x00\x00'
p1615
tp1616
Rp1617
sa(dp1618
S'action'
p1619
S'delete'
p1620
sS'order'
p1621
F1523918518.594048
sS'objid'
p1622
g8
(g12
S'U\x00\x00\x00\x00\x00\x00\x00'
p1623
tp1624
Rp1625
sa(dp1626
S'action'
p1627
S'delete'
p1628
sS'order'
p1629
F1523918518.606714
sS'objid'
p1630
g8
(g12
S'T\x00\x00\x00\x00\x00\x00\x00'
p1631
tp1632
Rp1633
sa(dp1634
S'action'
p1635
S'delete'
p1636
sS'order'
p1637
F1523918518.619302
sS'objid'
p1638
g8
(g12
S'S\x00\x00\x00\x00\x00\x00\x00'
p1639
tp1640
Rp1641
sa(dp1642
S'action'
p1643
S'delete'
p1644
sS'order'
p1645
F1523918518.632024
sS'objid'
p1646
g8
(g12
S'R\x00\x00\x00\x00\x00\x00\x00'
p1647
tp1648
Rp1649
sa(dp1650
S'action'
p1651
S'delete'
p1652
sS'order'
p1653
F1523918518.644798
sS'objid'
p1654
g8
(g12
S'Q\x00\x00\x00\x00\x00\x00\x00'
p1655
tp1656
Rp1657
sa(dp1658
S'action'
p1659
S'delete'
p1660
sS'order'
p1661
F1523918518.657677
sS'objid'
p1662
g8
(g12
S'P\x00\x00\x00\x00\x00\x00\x00'
p1663
tp1664
Rp1665
sa(dp1666
S'action'
p1667
S'delete'
p1668
sS'order'
p1669
F1523918518.670672
sS'objid'
p1670
g8
(g12
S'O\x00\x00\x00\x00\x00\x00\x00'
p1671
tp1672
Rp1673
sa(dp1674
S'action'
p1675
S'delete'
p1676
sS'order'
p1677
F1523918518.683798
sS'objid'
p1678
g8
(g12
S'N\x00\x00\x00\x00\x00\x00\x00'
p1679
tp1680
Rp1681
sa(dp1682
S'action'
p1683
S'delete'
p1684
sS'order'
p1685
F1523918518.696819
sS'objid'
p1686
g8
(g12
S'M\x00\x00\x00\x00\x00\x00\x00'
p1687
tp1688
Rp1689
sa(dp1690
S'action'
p1691
S'delete'
p1692
sS'order'
p1693
F1523918518.709927
sS'objid'
p1694
g8
(g12
S'L\x00\x00\x00\x00\x00\x00\x00'
p1695
tp1696
Rp1697
sa(dp1698
S'action'
p1699
S'delete'
p1700
sS'order'
p1701
F1523918518.722994
sS'objid'
p1702
g8
(g12
S'K\x00\x00\x00\x00\x00\x00\x00'
p1703
tp1704
Rp1705
sa(dp1706
S'action'
p1707
S'delete'
p1708
sS'order'
p1709
F1523918518.736244
sS'objid'
p1710
g8
(g12
S'J\x00\x00\x00\x00\x00\x00\x00'
p1711
tp1712
Rp1713
sa(dp1714
S'action'
p1715
S'delete'
p1716
sS'order'
p1717
F1523918518.749501
sS'objid'
p1718
g8
(g12
S'I\x00\x00\x00\x00\x00\x00\x00'
p1719
tp1720
Rp1721
sa(dp1722
S'action'
p1723
S'delete'
p1724
sS'order'
p1725
F1523918518.762848
sS'objid'
p1726
g8
(g12
S'H\x00\x00\x00\x00\x00\x00\x00'
p1727
tp1728
Rp1729
sa(dp1730
S'action'
p1731
S'delete'
p1732
sS'order'
p1733
F1523918518.776395
sS'objid'
p1734
g8
(g12
S'G\x00\x00\x00\x00\x00\x00\x00'
p1735
tp1736
Rp1737
sa(dp1738
S'action'
p1739
S'delete'
p1740
sS'order'
p1741
F1523918518.789884
sS'objid'
p1742
g8
(g12
S'F\x00\x00\x00\x00\x00\x00\x00'
p1743
tp1744
Rp1745
sa(dp1746
S'action'
p1747
S'delete'
p1748
sS'order'
p1749
F1523918518.803454
sS'objid'
p1750
g8
(g12
S'E\x00\x00\x00\x00\x00\x00\x00'
p1751
tp1752
Rp1753
sa(dp1754
S'action'
p1755
S'delete'
p1756
sS'order'
p1757
F1523918518.816984
sS'objid'
p1758
g8
(g12
S'D\x00\x00\x00\x00\x00\x00\x00'
p1759
tp1760
Rp1761
sa(dp1762
S'action'
p1763
S'delete'
p1764
sS'order'
p1765
F1523918518.830605
sS'objid'
p1766
g8
(g12
S'C\x00\x00\x00\x00\x00\x00\x00'
p1767
tp1768
Rp1769
sa(dp1770
S'action'
p1771
S'delete'
p1772
sS'order'
p1773
F1523918518.844242
sS'objid'
p1774
g8
(g12
S'B\x00\x00\x00\x00\x00\x00\x00'
p1775
tp1776
Rp1777
sa(dp1778
S'action'
p1779
S'delete'
p1780
sS'order'
p1781
F1523918518.85801
sS'objid'
p1782
g8
(g12
S'A\x00\x00\x00\x00\x00\x00\x00'
p1783
tp1784
Rp1785
sa(dp1786
S'action'
p1787
S'delete'
p1788
sS'order'
p1789
F1523918518.871948
sS'objid'
p1790
g8
(g12
S'@\x00\x00\x00\x00\x00\x00\x00'
p1791
tp1792
Rp1793
sa(dp1794
S'action'
p1795
S'delete'
p1796
sS'order'
p1797
F1523918518.885971
sS'objid'
p1798
g8
(g12
S'?\x00\x00\x00\x00\x00\x00\x00'
p1799
tp1800
Rp1801
sa(dp1802
S'action'
p1803
S'delete'
p1804
sS'order'
p1805
F1523918518.899846
sS'objid'
p1806
g8
(g12
S'>\x00\x00\x00\x00\x00\x00\x00'
p1807
tp1808
Rp1809
sa(dp1810
S'action'
p1811
S'delete'
p1812
sS'order'
p1813
F1523918518.91381
sS'objid'
p1814
g8
(g12
S'=\x00\x00\x00\x00\x00\x00\x00'
p1815
tp1816
Rp1817
sa(dp1818
S'action'
p1819
S'delete'
p1820
sS'order'
p1821
F1523918518.927873
sS'objid'
p1822
g8
(g12
S'<\x00\x00\x00\x00\x00\x00\x00'
p1823
tp1824
Rp1825
sa(dp1826
S'action'
p1827
S'delete'
p1828
sS'order'
p1829
F1523918518.941966
sS'objid'
p1830
g8
(g12
S';\x00\x00\x00\x00\x00\x00\x00'
p1831
tp1832
Rp1833
sa(dp1834
S'action'
p1835
S'delete'
p1836
sS'order'
p1837
F1523918518.956102
sS'objid'
p1838
g8
(g12
S':\x00\x00\x00\x00\x00\x00\x00'
p1839
tp1840
Rp1841
sa(dp1842
S'action'
p1843
S'delete'
p1844
sS'order'
p1845
F1523918518.970353
sS'objid'
p1846
g8
(g12
S'9\x00\x00\x00\x00\x00\x00\x00'
p1847
tp1848
Rp1849
sa(dp1850
S'action'
p1851
S'delete'
p1852
sS'order'
p1853
F1523918518.984846
sS'objid'
p1854
g8
(g12
S'7\x00\x00\x00\x00\x00\x00\x00'
p1855
tp1856
Rp1857
sa(dp1858
S'action'
p1859
S'delete'
p1860
sS'order'
p1861
F1523918518.999131
sS'objid'
p1862
g8
(g12
S'6\x00\x00\x00\x00\x00\x00\x00'
p1863
tp1864
Rp1865
sa(dp1866
S'action'
p1867
S'delete'
p1868
sS'order'
p1869
F1523918519.013492
sS'objid'
p1870
g8
(g12
S'5\x00\x00\x00\x00\x00\x00\x00'
p1871
tp1872
Rp1873
sa(dp1874
S'action'
p1875
S'delete'
p1876
sS'order'
p1877
F1523918519.027928
sS'objid'
p1878
g8
(g12
S'4\x00\x00\x00\x00\x00\x00\x00'
p1879
tp1880
Rp1881
sa(dp1882
S'action'
p1883
S'delete'
p1884
sS'order'
p1885
F1523918519.042418
sS'objid'
p1886
g8
(g12
S'3\x00\x00\x00\x00\x00\x00\x00'
p1887
tp1888
Rp1889
sa(dp1890
S'action'
p1891
S'delete'
p1892
sS'order'
p1893
F1523918519.057016
sS'objid'
p1894
g8
(g12
S'2\x00\x00\x00\x00\x00\x00\x00'
p1895
tp1896
Rp1897
sa(dp1898
S'action'
p1899
S'delete'
p1900
sS'order'
p1901
F1523918519.071703
sS'objid'
p1902
g8
(g12
S'1\x00\x00\x00\x00\x00\x00\x00'
p1903
tp1904
Rp1905
sa(dp1906
S'action'
p1907
S'delete'
p1908
sS'order'
p1909
F1523918519.086576
sS'objid'
p1910
g8
(g12
S'0\x00\x00\x00\x00\x00\x00\x00'
p1911
tp1912
Rp1913
sa(dp1914
S'action'
p1915
S'delete'
p1916
sS'order'
p1917
F1523918519.101348
sS'objid'
p1918
g8
(g12
S'/\x00\x00\x00\x00\x00\x00\x00'
p1919
tp1920
Rp1921
sa(dp1922
S'action'
p1923
S'delete'
p1924
sS'order'
p1925
F1523918519.116057
sS'objid'
p1926
g8
(g12
S'.\x00\x00\x00\x00\x00\x00\x00'
p1927
tp1928
Rp1929
sa(dp1930
S'action'
p1931
S'delete'
p1932
sS'order'
p1933
F1523918527.090051
sS'objid'
p1934
g8
(g12
S'-\x00\x00\x00\x00\x00\x00\x00'
p1935
tp1936
Rp1937
sa(dp1938
S'action'
p1939
S'delete'
p1940
sS'order'
p1941
F1523918527.11078
sS'objid'
p1942
g8
(g12
S',\x00\x00\x00\x00\x00\x00\x00'
p1943
tp1944
Rp1945
sa(dp1946
S'action'
p1947
S'delete'
p1948
sS'order'
p1949
F1523918527.128675
sS'objid'
p1950
g8
(g12
S'+\x00\x00\x00\x00\x00\x00\x00'
p1951
tp1952
Rp1953
sa(dp1954
S'action'
p1955
S'delete'
p1956
sS'order'
p1957
F1523918527.147127
sS'objid'
p1958
g8
(g12
S'*\x00\x00\x00\x00\x00\x00\x00'
p1959
tp1960
Rp1961
sa(dp1962
S'action'
p1963
S'delete'
p1964
sS'order'
p1965
F1523918527.167479
sS'objid'
p1966
g8
(g12
S')\x00\x00\x00\x00\x00\x00\x00'
p1967
tp1968
Rp1969
sa(dp1970
S'action'
p1971
S'delete'
p1972
sS'order'
p1973
F1523918527.182639
sS'objid'
p1974
g8
(g12
S'(\x00\x00\x00\x00\x00\x00\x00'
p1975
tp1976
Rp1977
sa(dp1978
S'action'
p1979
S'delete'
p1980
sS'order'
p1981
F1523918527.198078
sS'objid'
p1982
g8
(g12
S"'\x00\x00\x00\x00\x00\x00\x00"
p1983
tp1984
Rp1985
sa(dp1986
S'action'
p1987
S'delete'
p1988
sS'order'
p1989
F1523918527.213398
sS'objid'
p1990
g8
(g12
S'&\x00\x00\x00\x00\x00\x00\x00'
p1991
tp1992
Rp1993
sa(dp1994
S'action'
p1995
S'delete'
p1996
sS'order'
p1997
F1523918527.230548
sS'objid'
p1998
g8
(g12
S'%\x00\x00\x00\x00\x00\x00\x00'
p1999
tp2000
Rp2001
sa(dp2002
S'action'
p2003
S'delete'
p2004
sS'order'
p2005
F1523918527.248573
sS'objid'
p2006
g8
(g12
S'$\x00\x00\x00\x00\x00\x00\x00'
p2007
tp2008
Rp2009
sa(dp2010
S'action'
p2011
S'delete'
p2012
sS'order'
p2013
F1523918527.264036
sS'objid'
p2014
g8
(g12
S'#\x00\x00\x00\x00\x00\x00\x00'
p2015
tp2016
Rp2017
sa(dp2018
S'action'
p2019
S'delete'
p2020
sS'order'
p2021
F1523918527.279533
sS'objid'
p2022
g8
(g12
S'"\x00\x00\x00\x00\x00\x00\x00'
p2023
tp2024
Rp2025
sa(dp2026
S'action'
p2027
S'delete'
p2028
sS'order'
p2029
F1523918527.29511
sS'objid'
p2030
g8
(g12
S'!\x00\x00\x00\x00\x00\x00\x00'
p2031
tp2032
Rp2033
sa(dp2034
S'action'
p2035
S'delete'
p2036
sS'order'
p2037
F1523918527.310699
sS'objid'
p2038
g8
(g12
S' \x00\x00\x00\x00\x00\x00\x00'
p2039
tp2040
Rp2041
sa(dp2042
S'action'
p2043
S'delete'
p2044
sS'order'
p2045
F1523918527.327619
sS'objid'
p2046
g8
(g12
S'\x1f\x00\x00\x00\x00\x00\x00\x00'
p2047
tp2048
Rp2049
sa(dp2050
S'action'
p2051
S'delete'
p2052
sS'order'
p2053
F1523918527.344649
sS'objid'
p2054
g8
(g12
S'\x1e\x00\x00\x00\x00\x00\x00\x00'
p2055
tp2056
Rp2057
sa(dp2058
S'action'
p2059
S'delete'
p2060
sS'order'
p2061
F1523918527.360582
sS'objid'
p2062
g8
(g12
S'\x1d\x00\x00\x00\x00\x00\x00\x00'
p2063
tp2064
Rp2065
sa(dp2066
S'action'
p2067
S'delete'
p2068
sS'order'
p2069
F1523918527.376516
sS'objid'
p2070
g8
(g12
S'\x1c\x00\x00\x00\x00\x00\x00\x00'
p2071
tp2072
Rp2073
sa(dp2074
S'action'
p2075
S'delete'
p2076
sS'order'
p2077
F1523918527.392406
sS'objid'
p2078
g8
(g12
S'\x1b\x00\x00\x00\x00\x00\x00\x00'
p2079
tp2080
Rp2081
sa(dp2082
S'action'
p2083
S'delete'
p2084
sS'order'
p2085
F1523918527.408285
sS'objid'
p2086
g8
(g12
S'\x1a\x00\x00\x00\x00\x00\x00\x00'
p2087
tp2088
Rp2089
sa(dp2090
S'action'
p2091
S'delete'
p2092
sS'order'
p2093
F1523918527.424904
sS'objid'
p2094
g8
(g12
S'\x19\x00\x00\x00\x00\x00\x00\x00'
p2095
tp2096
Rp2097
sa(dp2098
S'action'
p2099
S'delete'
p2100
sS'order'
p2101
F1523918527.444362
sS'objid'
p2102
g8
(g12
S'\x18\x00\x00\x00\x00\x00\x00\x00'
p2103
tp2104
Rp2105
sa(dp2106
S'action'
p2107
S'delete'
p2108
sS'order'
p2109
F1523918527.465335
sS'objid'
p2110
g8
(g12
S'\x17\x00\x00\x00\x00\x00\x00\x00'
p2111
tp2112
Rp2113
sa(dp2114
S'action'
p2115
S'delete'
p2116
sS'order'
p2117
F1523918527.481561
sS'objid'
p2118
g8
(g12
S'\x16\x00\x00\x00\x00\x00\x00\x00'
p2119
tp2120
Rp2121
sa(dp2122
S'action'
p2123
S'delete'
p2124
sS'order'
p2125
F1523918527.497767
sS'objid'
p2126
g8
(g12
S'\x15\x00\x00\x00\x00\x00\x00\x00'
p2127
tp2128
Rp2129
sa(dp2130
S'action'
p2131
S'delete'
p2132
sS'order'
p2133
F1523918527.51411
sS'objid'
p2134
g8
(g12
S'\x14\x00\x00\x00\x00\x00\x00\x00'
p2135
tp2136
Rp2137
sa(dp2138
S'action'
p2139
S'delete'
p2140
sS'order'
p2141
F1523918527.532148
sS'objid'
p2142
g8
(g12
S'\x13\x00\x00\x00\x00\x00\x00\x00'
p2143
tp2144
Rp2145
sa(dp2146
S'action'
p2147
S'delete'
p2148
sS'order'
p2149
F1523918527.55287
sS'objid'
p2150
g8
(g12
S'\x12\x00\x00\x00\x00\x00\x00\x00'
p2151
tp2152
Rp2153
sa(dp2154
S'action'
p2155
S'delete'
p2156
sS'order'
p2157
F1523918527.573977
sS'objid'
p2158
g8
(g12
S'\x11\x00\x00\x00\x00\x00\x00\x00'
p2159
tp2160
Rp2161
sa(dp2162
S'action'
p2163
S'delete'
p2164
sS'order'
p2165
F1523918527.590533
sS'objid'
p2166
g8
(g12
S'\x10\x00\x00\x00\x00\x00\x00\x00'
p2167
tp2168
Rp2169
sa(dp2170
S'action'
p2171
S'delete'
p2172
sS'order'
p2173
F1523918527.607113
sS'objid'
p2174
g8
(g12
S'\x0f\x00\x00\x00\x00\x00\x00\x00'
p2175
tp2176
Rp2177
sa(dp2178
S'action'
p2179
S'delete'
p2180
sS'order'
p2181
F1523918527.623809
sS'objid'
p2182
g8
(g12
S'\x0e\x00\x00\x00\x00\x00\x00\x00'
p2183
tp2184
Rp2185
sa(dp2186
S'action'
p2187
S'delete'
p2188
sS'order'
p2189
F1523918527.642755
sS'objid'
p2190
g8
(g12
S'\r\x00\x00\x00\x00\x00\x00\x00'
p2191
tp2192
Rp2193
sa(dp2194
S'action'
p2195
S'delete'
p2196
sS'order'
p2197
F1523918527.667539
sS'objid'
p2198
g8
(g12
S'\x0c\x00\x00\x00\x00\x00\x00\x00'
p2199
tp2200
Rp2201
sa(dp2202
S'action'
p2203
S'delete'
p2204
sS'order'
p2205
F1523918527.684566
sS'objid'
p2206
g8
(g12
S'\x0b\x00\x00\x00\x00\x00\x00\x00'
p2207
tp2208
Rp2209
sa(dp2210
S'action'
p2211
S'delete'
p2212
sS'order'
p2213
F1523918527.701502
sS'objid'
p2214
g8
(g12
S'\n\x00\x00\x00\x00\x00\x00\x00'
p2215
tp2216
Rp2217
sa(dp2218
S'action'
p2219
S'delete'
p2220
sS'order'
p2221
F1523918527.718609
sS'objid'
p2222
g8
(g12
S'\t\x00\x00\x00\x00\x00\x00\x00'
p2223
tp2224
Rp2225
sa(dp2226
S'action'
p2227
S'delete'
p2228
sS'order'
p2229
F1523918527.737667
sS'objid'
p2230
g8
(g12
S'\x08\x00\x00\x00\x00\x00\x00\x00'
p2231
tp2232
Rp2233
sa(dp2234
S'action'
p2235
S'delete'
p2236
sS'order'
p2237
F1523918527.756964
sS'objid'
p2238
g8
(g12
S'\x07\x00\x00\x00\x00\x00\x00\x00'
p2239
tp2240
Rp2241
sa(dp2242
S'action'
p2243
S'delete'
p2244
sS'order'
p2245
F1523918527.774234
sS'objid'
p2246
g8
(g12
S'\x06\x00\x00\x00\x00\x00\x00\x00'
p2247
tp2248
Rp2249
sa(dp2250
S'action'
p2251
S'delete'
p2252
sS'order'
p2253
F1523918527.79174
sS'objid'
p2254
g8
(g12
S'\x05\x00\x00\x00\x00\x00\x00\x00'
p2255
tp2256
Rp2257
sa(dp2258
S'action'
p2259
S'delete'
p2260
sS'order'
p2261
F1523918527.809119
sS'objid'
p2262
g8
(g12
S'\x04\x00\x00\x00\x00\x00\x00\x00'
p2263
tp2264
Rp2265
sa(dp2266
S'action'
p2267
S'delete'
p2268
sS'order'
p2269
F1523918527.826666
sS'objid'
p2270
g8
(g12
S'\x03\x00\x00\x00\x00\x00\x00\x00'
p2271
tp2272
Rp2273
sa(dp2274
S'action'
p2275
S'delete'
p2276
sS'order'
p2277
F1523918527.846402
sS'objid'
p2278
g8
(g12
S'\x02\x00\x00\x00\x00\x00\x00\x00'
p2279
tp2280
Rp2281
sa(dp2282
S'action'
p2283
S'delete'
p2284
sS'order'
p2285
F1523918527.869966
sS'objid'
p2286
g8
(g12
S'\x01\x00\x00\x00\x00\x00\x00\x00'
p2287
tp2288
Rp2289
sa.