(lp0
(dp1
S'action'
p2
S'join'
p3
sS'data_to_add'
p4
(lp5
sS'order'
p6
F1523924683.414279
sS'new_objid'
p7
cnumpy.core.multiarray
scalar
p8
(cnumpy
dtype
p9
(S'i8'
p10
I0
I1
tp11
Rp12
(I3
S'<'
p13
NNNI-1
I-1
I0
tp14
bS'\xa5\x00\x00\x00\x00\x00\x00\x00'
p15
tp16
Rp17
sS'objids'
p18
(lp19
g8
(g12
S'\x0f\x00\x00\x00\x00\x00\x00\x00'
p20
tp21
Rp22
ag8
(g12
S'\x00\x00\x00\x00\x00\x00\x00\x00'
p23
tp24
Rp25
asa(dp26
S'action'
p27
S'join'
p28
sS'data_to_add'
p29
(lp30
sS'order'
p31
F1523924691.251207
sS'new_objid'
p32
g8
(g12
S'\xa6\x00\x00\x00\x00\x00\x00\x00'
p33
tp34
Rp35
sS'objids'
p36
(lp37
g8
(g12
S'+\x00\x00\x00\x00\x00\x00\x00'
p38
tp39
Rp40
ag8
(g12
S"'\x00\x00\x00\x00\x00\x00\x00"
p41
tp42
Rp43
ag8
(g12
S'\xa5\x00\x00\x00\x00\x00\x00\x00'
p44
tp45
Rp46
asa(dp47
S'action'
p48
S'join'
p49
sS'data_to_add'
p50
(lp51
sS'order'
p52
F1523924698.203835
sS'new_objid'
p53
g8
(g12
S'\xa7\x00\x00\x00\x00\x00\x00\x00'
p54
tp55
Rp56
sS'objids'
p57
(lp58
g8
(g12
S'8\x00\x00\x00\x00\x00\x00\x00'
p59
tp60
Rp61
ag8
(g12
S'\xa6\x00\x00\x00\x00\x00\x00\x00'
p62
tp63
Rp64
asa(dp65
S'action'
p66
S'join'
p67
sS'data_to_add'
p68
(lp69
sS'order'
p70
F1523924707.547991
sS'new_objid'
p71
g8
(g12
S'\xa8\x00\x00\x00\x00\x00\x00\x00'
p72
tp73
Rp74
sS'objids'
p75
(lp76
g8
(g12
S'\xa7\x00\x00\x00\x00\x00\x00\x00'
p77
tp78
Rp79
ag8
(g12
S'\\\x00\x00\x00\x00\x00\x00\x00'
p80
tp81
Rp82
asa(dp83
S'action'
p84
S'join'
p85
sS'data_to_add'
p86
(lp87
sS'order'
p88
F1523924714.779631
sS'new_objid'
p89
g8
(g12
S'\xa9\x00\x00\x00\x00\x00\x00\x00'
p90
tp91
Rp92
sS'objids'
p93
(lp94
g8
(g12
S'\xa8\x00\x00\x00\x00\x00\x00\x00'
p95
tp96
Rp97
ag8
(g12
S'u\x00\x00\x00\x00\x00\x00\x00'
p98
tp99
Rp100
asa(dp101
S'action'
p102
S'delete'
p103
sS'order'
p104
F1523924727.661127
sS'objid'
p105
g8
(g12
S'\x9a\x00\x00\x00\x00\x00\x00\x00'
p106
tp107
Rp108
sa(dp109
S'action'
p110
S'delete'
p111
sS'order'
p112
F1523924727.663439
sS'objid'
p113
g8
(g12
S'\x99\x00\x00\x00\x00\x00\x00\x00'
p114
tp115
Rp116
sa(dp117
S'action'
p118
S'delete'
p119
sS'order'
p120
F1523924727.665669
sS'objid'
p121
g8
(g12
S'\x98\x00\x00\x00\x00\x00\x00\x00'
p122
tp123
Rp124
sa(dp125
S'action'
p126
S'delete'
p127
sS'order'
p128
F1523924727.667907
sS'objid'
p129
g8
(g12
S'\x97\x00\x00\x00\x00\x00\x00\x00'
p130
tp131
Rp132
sa(dp133
S'action'
p134
S'delete'
p135
sS'order'
p136
F1523924727.670223
sS'objid'
p137
g8
(g12
S'\x96\x00\x00\x00\x00\x00\x00\x00'
p138
tp139
Rp140
sa(dp141
S'action'
p142
S'delete'
p143
sS'order'
p144
F1523924727.673038
sS'objid'
p145
g8
(g12
S'\x95\x00\x00\x00\x00\x00\x00\x00'
p146
tp147
Rp148
sa(dp149
S'action'
p150
S'delete'
p151
sS'order'
p152
F1523924727.675603
sS'objid'
p153
g8
(g12
S'\x94\x00\x00\x00\x00\x00\x00\x00'
p154
tp155
Rp156
sa(dp157
S'action'
p158
S'delete'
p159
sS'order'
p160
F1523924727.6774
sS'objid'
p161
g8
(g12
S'\x93\x00\x00\x00\x00\x00\x00\x00'
p162
tp163
Rp164
sa(dp165
S'action'
p166
S'delete'
p167
sS'order'
p168
F1523924727.679224
sS'objid'
p169
g8
(g12
S'\x92\x00\x00\x00\x00\x00\x00\x00'
p170
tp171
Rp172
sa(dp173
S'action'
p174
S'delete'
p175
sS'order'
p176
F1523924727.681097
sS'objid'
p177
g8
(g12
S'\x91\x00\x00\x00\x00\x00\x00\x00'
p178
tp179
Rp180
sa(dp181
S'action'
p182
S'delete'
p183
sS'order'
p184
F1523924727.683025
sS'objid'
p185
g8
(g12
S'\x90\x00\x00\x00\x00\x00\x00\x00'
p186
tp187
Rp188
sa(dp189
S'action'
p190
S'delete'
p191
sS'order'
p192
F1523924727.685016
sS'objid'
p193
g8
(g12
S'\x8f\x00\x00\x00\x00\x00\x00\x00'
p194
tp195
Rp196
sa(dp197
S'action'
p198
S'delete'
p199
sS'order'
p200
F1523924727.687071
sS'objid'
p201
g8
(g12
S'\x8e\x00\x00\x00\x00\x00\x00\x00'
p202
tp203
Rp204
sa(dp205
S'action'
p206
S'delete'
p207
sS'order'
p208
F1523924727.689308
sS'objid'
p209
g8
(g12
S'\x8d\x00\x00\x00\x00\x00\x00\x00'
p210
tp211
Rp212
sa(dp213
S'action'
p214
S'delete'
p215
sS'order'
p216
F1523924727.691469
sS'objid'
p217
g8
(g12
S'\x8c\x00\x00\x00\x00\x00\x00\x00'
p218
tp219
Rp220
sa(dp221
S'action'
p222
S'delete'
p223
sS'order'
p224
F1523924727.693706
sS'objid'
p225
g8
(g12
S'\x8b\x00\x00\x00\x00\x00\x00\x00'
p226
tp227
Rp228
sa(dp229
S'action'
p230
S'delete'
p231
sS'order'
p232
F1523924727.695992
sS'objid'
p233
g8
(g12
S'\x8a\x00\x00\x00\x00\x00\x00\x00'
p234
tp235
Rp236
sa(dp237
S'action'
p238
S'delete'
p239
sS'order'
p240
F1523924727.698335
sS'objid'
p241
g8
(g12
S'\x89\x00\x00\x00\x00\x00\x00\x00'
p242
tp243
Rp244
sa(dp245
S'action'
p246
S'delete'
p247
sS'order'
p248
F1523924727.700736
sS'objid'
p249
g8
(g12
S'\x88\x00\x00\x00\x00\x00\x00\x00'
p250
tp251
Rp252
sa(dp253
S'action'
p254
S'delete'
p255
sS'order'
p256
F1523924727.7032
sS'objid'
p257
g8
(g12
S'\x87\x00\x00\x00\x00\x00\x00\x00'
p258
tp259
Rp260
sa(dp261
S'action'
p262
S'delete'
p263
sS'order'
p264
F1523924727.705712
sS'objid'
p265
g8
(g12
S'\x86\x00\x00\x00\x00\x00\x00\x00'
p266
tp267
Rp268
sa(dp269
S'action'
p270
S'delete'
p271
sS'order'
p272
F1523924727.70829
sS'objid'
p273
g8
(g12
S'\x85\x00\x00\x00\x00\x00\x00\x00'
p274
tp275
Rp276
sa(dp277
S'action'
p278
S'delete'
p279
sS'order'
p280
F1523924727.710921
sS'objid'
p281
g8
(g12
S'\x84\x00\x00\x00\x00\x00\x00\x00'
p282
tp283
Rp284
sa(dp285
S'action'
p286
S'delete'
p287
sS'order'
p288
F1523924727.713614
sS'objid'
p289
g8
(g12
S'\x83\x00\x00\x00\x00\x00\x00\x00'
p290
tp291
Rp292
sa(dp293
S'action'
p294
S'delete'
p295
sS'order'
p296
F1523924727.716364
sS'objid'
p297
g8
(g12
S'\x82\x00\x00\x00\x00\x00\x00\x00'
p298
tp299
Rp300
sa(dp301
S'action'
p302
S'delete'
p303
sS'order'
p304
F1523924727.719182
sS'objid'
p305
g8
(g12
S'\x81\x00\x00\x00\x00\x00\x00\x00'
p306
tp307
Rp308
sa(dp309
S'action'
p310
S'delete'
p311
sS'order'
p312
F1523924727.72204
sS'objid'
p313
g8
(g12
S'\x80\x00\x00\x00\x00\x00\x00\x00'
p314
tp315
Rp316
sa(dp317
S'action'
p318
S'delete'
p319
sS'order'
p320
F1523924727.724969
sS'objid'
p321
g8
(g12
S'\x7f\x00\x00\x00\x00\x00\x00\x00'
p322
tp323
Rp324
sa(dp325
S'action'
p326
S'delete'
p327
sS'order'
p328
F1523924727.727959
sS'objid'
p329
g8
(g12
S'~\x00\x00\x00\x00\x00\x00\x00'
p330
tp331
Rp332
sa(dp333
S'action'
p334
S'delete'
p335
sS'order'
p336
F1523924727.730989
sS'objid'
p337
g8
(g12
S'}\x00\x00\x00\x00\x00\x00\x00'
p338
tp339
Rp340
sa(dp341
S'action'
p342
S'delete'
p343
sS'order'
p344
F1523924727.734091
sS'objid'
p345
g8
(g12
S'|\x00\x00\x00\x00\x00\x00\x00'
p346
tp347
Rp348
sa(dp349
S'action'
p350
S'delete'
p351
sS'order'
p352
F1523924727.737264
sS'objid'
p353
g8
(g12
S'{\x00\x00\x00\x00\x00\x00\x00'
p354
tp355
Rp356
sa(dp357
S'action'
p358
S'delete'
p359
sS'order'
p360
F1523924727.740492
sS'objid'
p361
g8
(g12
S'z\x00\x00\x00\x00\x00\x00\x00'
p362
tp363
Rp364
sa(dp365
S'action'
p366
S'delete'
p367
sS'order'
p368
F1523924727.743794
sS'objid'
p369
g8
(g12
S'y\x00\x00\x00\x00\x00\x00\x00'
p370
tp371
Rp372
sa(dp373
S'action'
p374
S'delete'
p375
sS'order'
p376
F1523924727.74719
sS'objid'
p377
g8
(g12
S'x\x00\x00\x00\x00\x00\x00\x00'
p378
tp379
Rp380
sa(dp381
S'action'
p382
S'delete'
p383
sS'order'
p384
F1523924727.750593
sS'objid'
p385
g8
(g12
S'w\x00\x00\x00\x00\x00\x00\x00'
p386
tp387
Rp388
sa(dp389
S'action'
p390
S'delete'
p391
sS'order'
p392
F1523924727.754294
sS'objid'
p393
g8
(g12
S'v\x00\x00\x00\x00\x00\x00\x00'
p394
tp395
Rp396
sa(dp397
S'action'
p398
S'delete'
p399
sS'order'
p400
F1523924727.757852
sS'objid'
p401
g8
(g12
S't\x00\x00\x00\x00\x00\x00\x00'
p402
tp403
Rp404
sa(dp405
S'action'
p406
S'delete'
p407
sS'order'
p408
F1523924727.761511
sS'objid'
p409
g8
(g12
S's\x00\x00\x00\x00\x00\x00\x00'
p410
tp411
Rp412
sa(dp413
S'action'
p414
S'delete'
p415
sS'order'
p416
F1523924727.765191
sS'objid'
p417
g8
(g12
S'r\x00\x00\x00\x00\x00\x00\x00'
p418
tp419
Rp420
sa(dp421
S'action'
p422
S'delete'
p423
sS'order'
p424
F1523924727.768893
sS'objid'
p425
g8
(g12
S'q\x00\x00\x00\x00\x00\x00\x00'
p426
tp427
Rp428
sa(dp429
S'action'
p430
S'delete'
p431
sS'order'
p432
F1523924727.772671
sS'objid'
p433
g8
(g12
S'p\x00\x00\x00\x00\x00\x00\x00'
p434
tp435
Rp436
sa(dp437
S'action'
p438
S'delete'
p439
sS'order'
p440
F1523924727.776492
sS'objid'
p441
g8
(g12
S'o\x00\x00\x00\x00\x00\x00\x00'
p442
tp443
Rp444
sa(dp445
S'action'
p446
S'delete'
p447
sS'order'
p448
F1523924727.780394
sS'objid'
p449
g8
(g12
S'n\x00\x00\x00\x00\x00\x00\x00'
p450
tp451
Rp452
sa(dp453
S'action'
p454
S'delete'
p455
sS'order'
p456
F1523924727.784327
sS'objid'
p457
g8
(g12
S'm\x00\x00\x00\x00\x00\x00\x00'
p458
tp459
Rp460
sa(dp461
S'action'
p462
S'delete'
p463
sS'order'
p464
F1523924727.78834
sS'objid'
p465
g8
(g12
S'l\x00\x00\x00\x00\x00\x00\x00'
p466
tp467
Rp468
sa(dp469
S'action'
p470
S'delete'
p471
sS'order'
p472
F1523924727.792391
sS'objid'
p473
g8
(g12
S'k\x00\x00\x00\x00\x00\x00\x00'
p474
tp475
Rp476
sa(dp477
S'action'
p478
S'delete'
p479
sS'order'
p480
F1523924727.79651
sS'objid'
p481
g8
(g12
S'j\x00\x00\x00\x00\x00\x00\x00'
p482
tp483
Rp484
sa(dp485
S'action'
p486
S'delete'
p487
sS'order'
p488
F1523924727.800661
sS'objid'
p489
g8
(g12
S'i\x00\x00\x00\x00\x00\x00\x00'
p490
tp491
Rp492
sa(dp493
S'action'
p494
S'delete'
p495
sS'order'
p496
F1523924727.804872
sS'objid'
p497
g8
(g12
S'h\x00\x00\x00\x00\x00\x00\x00'
p498
tp499
Rp500
sa(dp501
S'action'
p502
S'delete'
p503
sS'order'
p504
F1523924727.809144
sS'objid'
p505
g8
(g12
S'g\x00\x00\x00\x00\x00\x00\x00'
p506
tp507
Rp508
sa(dp509
S'action'
p510
S'delete'
p511
sS'order'
p512
F1523924727.813481
sS'objid'
p513
g8
(g12
S'f\x00\x00\x00\x00\x00\x00\x00'
p514
tp515
Rp516
sa(dp517
S'action'
p518
S'delete'
p519
sS'order'
p520
F1523924727.81788
sS'objid'
p521
g8
(g12
S'e\x00\x00\x00\x00\x00\x00\x00'
p522
tp523
Rp524
sa(dp525
S'action'
p526
S'delete'
p527
sS'order'
p528
F1523924727.822346
sS'objid'
p529
g8
(g12
S'd\x00\x00\x00\x00\x00\x00\x00'
p530
tp531
Rp532
sa(dp533
S'action'
p534
S'delete'
p535
sS'order'
p536
F1523924727.826853
sS'objid'
p537
g8
(g12
S'c\x00\x00\x00\x00\x00\x00\x00'
p538
tp539
Rp540
sa(dp541
S'action'
p542
S'delete'
p543
sS'order'
p544
F1523924727.831433
sS'objid'
p545
g8
(g12
S'b\x00\x00\x00\x00\x00\x00\x00'
p546
tp547
Rp548
sa(dp549
S'action'
p550
S'delete'
p551
sS'order'
p552
F1523924727.836067
sS'objid'
p553
g8
(g12
S'a\x00\x00\x00\x00\x00\x00\x00'
p554
tp555
Rp556
sa(dp557
S'action'
p558
S'delete'
p559
sS'order'
p560
F1523924727.840741
sS'objid'
p561
g8
(g12
S'`\x00\x00\x00\x00\x00\x00\x00'
p562
tp563
Rp564
sa(dp565
S'action'
p566
S'delete'
p567
sS'order'
p568
F1523924727.845475
sS'objid'
p569
g8
(g12
S'_\x00\x00\x00\x00\x00\x00\x00'
p570
tp571
Rp572
sa(dp573
S'action'
p574
S'delete'
p575
sS'order'
p576
F1523924727.850305
sS'objid'
p577
g8
(g12
S'^\x00\x00\x00\x00\x00\x00\x00'
p578
tp579
Rp580
sa(dp581
S'action'
p582
S'delete'
p583
sS'order'
p584
F1523924727.855182
sS'objid'
p585
g8
(g12
S']\x00\x00\x00\x00\x00\x00\x00'
p586
tp587
Rp588
sa(dp589
S'action'
p590
S'delete'
p591
sS'order'
p592
F1523924727.860112
sS'objid'
p593
g8
(g12
S'[\x00\x00\x00\x00\x00\x00\x00'
p594
tp595
Rp596
sa(dp597
S'action'
p598
S'delete'
p599
sS'order'
p600
F1523924727.86512
sS'objid'
p601
g8
(g12
S'Z\x00\x00\x00\x00\x00\x00\x00'
p602
tp603
Rp604
sa(dp605
S'action'
p606
S'delete'
p607
sS'order'
p608
F1523924727.870159
sS'objid'
p609
g8
(g12
S'Y\x00\x00\x00\x00\x00\x00\x00'
p610
tp611
Rp612
sa(dp613
S'action'
p614
S'delete'
p615
sS'order'
p616
F1523924727.875265
sS'objid'
p617
g8
(g12
S'X\x00\x00\x00\x00\x00\x00\x00'
p618
tp619
Rp620
sa(dp621
S'action'
p622
S'delete'
p623
sS'order'
p624
F1523924727.8804
sS'objid'
p625
g8
(g12
S'W\x00\x00\x00\x00\x00\x00\x00'
p626
tp627
Rp628
sa(dp629
S'action'
p630
S'delete'
p631
sS'order'
p632
F1523924727.885598
sS'objid'
p633
g8
(g12
S'V\x00\x00\x00\x00\x00\x00\x00'
p634
tp635
Rp636
sa(dp637
S'action'
p638
S'delete'
p639
sS'order'
p640
F1523924735.81259
sS'objid'
p641
g8
(g12
S'U\x00\x00\x00\x00\x00\x00\x00'
p642
tp643
Rp644
sa(dp645
S'action'
p646
S'delete'
p647
sS'order'
p648
F1523924735.821454
sS'objid'
p649
g8
(g12
S'T\x00\x00\x00\x00\x00\x00\x00'
p650
tp651
Rp652
sa(dp653
S'action'
p654
S'delete'
p655
sS'order'
p656
F1523924735.829402
sS'objid'
p657
g8
(g12
S'S\x00\x00\x00\x00\x00\x00\x00'
p658
tp659
Rp660
sa(dp661
S'action'
p662
S'delete'
p663
sS'order'
p664
F1523924735.834862
sS'objid'
p665
g8
(g12
S'R\x00\x00\x00\x00\x00\x00\x00'
p666
tp667
Rp668
sa(dp669
S'action'
p670
S'delete'
p671
sS'order'
p672
F1523924735.840641
sS'objid'
p673
g8
(g12
S'Q\x00\x00\x00\x00\x00\x00\x00'
p674
tp675
Rp676
sa(dp677
S'action'
p678
S'delete'
p679
sS'order'
p680
F1523924735.846161
sS'objid'
p681
g8
(g12
S'P\x00\x00\x00\x00\x00\x00\x00'
p682
tp683
Rp684
sa(dp685
S'action'
p686
S'delete'
p687
sS'order'
p688
F1523924735.85179
sS'objid'
p689
g8
(g12
S'O\x00\x00\x00\x00\x00\x00\x00'
p690
tp691
Rp692
sa(dp693
S'action'
p694
S'delete'
p695
sS'order'
p696
F1523924735.857427
sS'objid'
p697
g8
(g12
S'N\x00\x00\x00\x00\x00\x00\x00'
p698
tp699
Rp700
sa(dp701
S'action'
p702
S'delete'
p703
sS'order'
p704
F1523924735.863127
sS'objid'
p705
g8
(g12
S'M\x00\x00\x00\x00\x00\x00\x00'
p706
tp707
Rp708
sa(dp709
S'action'
p710
S'delete'
p711
sS'order'
p712
F1523924735.868898
sS'objid'
p713
g8
(g12
S'L\x00\x00\x00\x00\x00\x00\x00'
p714
tp715
Rp716
sa(dp717
S'action'
p718
S'delete'
p719
sS'order'
p720
F1523924735.874743
sS'objid'
p721
g8
(g12
S'K\x00\x00\x00\x00\x00\x00\x00'
p722
tp723
Rp724
sa(dp725
S'action'
p726
S'delete'
p727
sS'order'
p728
F1523924735.880613
sS'objid'
p729
g8
(g12
S'J\x00\x00\x00\x00\x00\x00\x00'
p730
tp731
Rp732
sa(dp733
S'action'
p734
S'delete'
p735
sS'order'
p736
F1523924735.886551
sS'objid'
p737
g8
(g12
S'I\x00\x00\x00\x00\x00\x00\x00'
p738
tp739
Rp740
sa(dp741
S'action'
p742
S'delete'
p743
sS'order'
p744
F1523924735.89254
sS'objid'
p745
g8
(g12
S'H\x00\x00\x00\x00\x00\x00\x00'
p746
tp747
Rp748
sa(dp749
S'action'
p750
S'delete'
p751
sS'order'
p752
F1523924735.898643
sS'objid'
p753
g8
(g12
S'G\x00\x00\x00\x00\x00\x00\x00'
p754
tp755
Rp756
sa(dp757
S'action'
p758
S'delete'
p759
sS'order'
p760
F1523924735.904834
sS'objid'
p761
g8
(g12
S'F\x00\x00\x00\x00\x00\x00\x00'
p762
tp763
Rp764
sa(dp765
S'action'
p766
S'delete'
p767
sS'order'
p768
F1523924735.911089
sS'objid'
p769
g8
(g12
S'E\x00\x00\x00\x00\x00\x00\x00'
p770
tp771
Rp772
sa(dp773
S'action'
p774
S'delete'
p775
sS'order'
p776
F1523924735.917344
sS'objid'
p777
g8
(g12
S'D\x00\x00\x00\x00\x00\x00\x00'
p778
tp779
Rp780
sa(dp781
S'action'
p782
S'delete'
p783
sS'order'
p784
F1523924735.923628
sS'objid'
p785
g8
(g12
S'C\x00\x00\x00\x00\x00\x00\x00'
p786
tp787
Rp788
sa(dp789
S'action'
p790
S'delete'
p791
sS'order'
p792
F1523924735.929963
sS'objid'
p793
g8
(g12
S'B\x00\x00\x00\x00\x00\x00\x00'
p794
tp795
Rp796
sa(dp797
S'action'
p798
S'delete'
p799
sS'order'
p800
F1523924735.936371
sS'objid'
p801
g8
(g12
S'A\x00\x00\x00\x00\x00\x00\x00'
p802
tp803
Rp804
sa(dp805
S'action'
p806
S'delete'
p807
sS'order'
p808
F1523924735.94281
sS'objid'
p809
g8
(g12
S'@\x00\x00\x00\x00\x00\x00\x00'
p810
tp811
Rp812
sa(dp813
S'action'
p814
S'delete'
p815
sS'order'
p816
F1523924735.949322
sS'objid'
p817
g8
(g12
S'?\x00\x00\x00\x00\x00\x00\x00'
p818
tp819
Rp820
sa(dp821
S'action'
p822
S'delete'
p823
sS'order'
p824
F1523924735.955945
sS'objid'
p825
g8
(g12
S'>\x00\x00\x00\x00\x00\x00\x00'
p826
tp827
Rp828
sa(dp829
S'action'
p830
S'delete'
p831
sS'order'
p832
F1523924735.96258
sS'objid'
p833
g8
(g12
S'=\x00\x00\x00\x00\x00\x00\x00'
p834
tp835
Rp836
sa(dp837
S'action'
p838
S'delete'
p839
sS'order'
p840
F1523924735.969259
sS'objid'
p841
g8
(g12
S'<\x00\x00\x00\x00\x00\x00\x00'
p842
tp843
Rp844
sa(dp845
S'action'
p846
S'delete'
p847
sS'order'
p848
F1523924735.97601
sS'objid'
p849
g8
(g12
S';\x00\x00\x00\x00\x00\x00\x00'
p850
tp851
Rp852
sa(dp853
S'action'
p854
S'delete'
p855
sS'order'
p856
F1523924735.982771
sS'objid'
p857
g8
(g12
S':\x00\x00\x00\x00\x00\x00\x00'
p858
tp859
Rp860
sa(dp861
S'action'
p862
S'delete'
p863
sS'order'
p864
F1523924735.989619
sS'objid'
p865
g8
(g12
S'9\x00\x00\x00\x00\x00\x00\x00'
p866
tp867
Rp868
sa(dp869
S'action'
p870
S'delete'
p871
sS'order'
p872
F1523924735.996541
sS'objid'
p873
g8
(g12
S'7\x00\x00\x00\x00\x00\x00\x00'
p874
tp875
Rp876
sa(dp877
S'action'
p878
S'delete'
p879
sS'order'
p880
F1523924736.003516
sS'objid'
p881
g8
(g12
S'6\x00\x00\x00\x00\x00\x00\x00'
p882
tp883
Rp884
sa(dp885
S'action'
p886
S'delete'
p887
sS'order'
p888
F1523924736.010593
sS'objid'
p889
g8
(g12
S'5\x00\x00\x00\x00\x00\x00\x00'
p890
tp891
Rp892
sa(dp893
S'action'
p894
S'delete'
p895
sS'order'
p896
F1523924736.017773
sS'objid'
p897
g8
(g12
S'4\x00\x00\x00\x00\x00\x00\x00'
p898
tp899
Rp900
sa(dp901
S'action'
p902
S'delete'
p903
sS'order'
p904
F1523924736.024909
sS'objid'
p905
g8
(g12
S'3\x00\x00\x00\x00\x00\x00\x00'
p906
tp907
Rp908
sa(dp909
S'action'
p910
S'delete'
p911
sS'order'
p912
F1523924736.032143
sS'objid'
p913
g8
(g12
S'2\x00\x00\x00\x00\x00\x00\x00'
p914
tp915
Rp916
sa(dp917
S'action'
p918
S'delete'
p919
sS'order'
p920
F1523924736.039433
sS'objid'
p921
g8
(g12
S'1\x00\x00\x00\x00\x00\x00\x00'
p922
tp923
Rp924
sa(dp925
S'action'
p926
S'delete'
p927
sS'order'
p928
F1523924736.046763
sS'objid'
p929
g8
(g12
S'0\x00\x00\x00\x00\x00\x00\x00'
p930
tp931
Rp932
sa(dp933
S'action'
p934
S'delete'
p935
sS'order'
p936
F1523924736.054168
sS'objid'
p937
g8
(g12
S'/\x00\x00\x00\x00\x00\x00\x00'
p938
tp939
Rp940
sa(dp941
S'action'
p942
S'delete'
p943
sS'order'
p944
F1523924736.06162
sS'objid'
p945
g8
(g12
S'.\x00\x00\x00\x00\x00\x00\x00'
p946
tp947
Rp948
sa(dp949
S'action'
p950
S'delete'
p951
sS'order'
p952
F1523924736.069113
sS'objid'
p953
g8
(g12
S'-\x00\x00\x00\x00\x00\x00\x00'
p954
tp955
Rp956
sa(dp957
S'action'
p958
S'delete'
p959
sS'order'
p960
F1523924736.076673
sS'objid'
p961
g8
(g12
S',\x00\x00\x00\x00\x00\x00\x00'
p962
tp963
Rp964
sa(dp965
S'action'
p966
S'delete'
p967
sS'order'
p968
F1523924736.084281
sS'objid'
p969
g8
(g12
S'*\x00\x00\x00\x00\x00\x00\x00'
p970
tp971
Rp972
sa(dp973
S'action'
p974
S'delete'
p975
sS'order'
p976
F1523924736.091982
sS'objid'
p977
g8
(g12
S')\x00\x00\x00\x00\x00\x00\x00'
p978
tp979
Rp980
sa(dp981
S'action'
p982
S'delete'
p983
sS'order'
p984
F1523924736.099709
sS'objid'
p985
g8
(g12
S'(\x00\x00\x00\x00\x00\x00\x00'
p986
tp987
Rp988
sa(dp989
S'action'
p990
S'delete'
p991
sS'order'
p992
F1523924736.107519
sS'objid'
p993
g8
(g12
S'&\x00\x00\x00\x00\x00\x00\x00'
p994
tp995
Rp996
sa(dp997
S'action'
p998
S'delete'
p999
sS'order'
p1000
F1523924736.115452
sS'objid'
p1001
g8
(g12
S'%\x00\x00\x00\x00\x00\x00\x00'
p1002
tp1003
Rp1004
sa(dp1005
S'action'
p1006
S'delete'
p1007
sS'order'
p1008
F1523924742.788831
sS'objid'
p1009
g8
(g12
S'$\x00\x00\x00\x00\x00\x00\x00'
p1010
tp1011
Rp1012
sa(dp1013
S'action'
p1014
S'delete'
p1015
sS'order'
p1016
F1523924742.799509
sS'objid'
p1017
g8
(g12
S'#\x00\x00\x00\x00\x00\x00\x00'
p1018
tp1019
Rp1020
sa(dp1021
S'action'
p1022
S'delete'
p1023
sS'order'
p1024
F1523924742.808164
sS'objid'
p1025
g8
(g12
S'"\x00\x00\x00\x00\x00\x00\x00'
p1026
tp1027
Rp1028
sa(dp1029
S'action'
p1030
S'delete'
p1031
sS'order'
p1032
F1523924742.816403
sS'objid'
p1033
g8
(g12
S'!\x00\x00\x00\x00\x00\x00\x00'
p1034
tp1035
Rp1036
sa(dp1037
S'action'
p1038
S'delete'
p1039
sS'order'
p1040
F1523924742.825789
sS'objid'
p1041
g8
(g12
S' \x00\x00\x00\x00\x00\x00\x00'
p1042
tp1043
Rp1044
sa(dp1045
S'action'
p1046
S'delete'
p1047
sS'order'
p1048
F1523924742.834863
sS'objid'
p1049
g8
(g12
S'\x1f\x00\x00\x00\x00\x00\x00\x00'
p1050
tp1051
Rp1052
sa(dp1053
S'action'
p1054
S'delete'
p1055
sS'order'
p1056
F1523924742.843303
sS'objid'
p1057
g8
(g12
S'\x1e\x00\x00\x00\x00\x00\x00\x00'
p1058
tp1059
Rp1060
sa(dp1061
S'action'
p1062
S'delete'
p1063
sS'order'
p1064
F1523924742.851602
sS'objid'
p1065
g8
(g12
S'\x1d\x00\x00\x00\x00\x00\x00\x00'
p1066
tp1067
Rp1068
sa(dp1069
S'action'
p1070
S'delete'
p1071
sS'order'
p1072
F1523924742.860516
sS'objid'
p1073
g8
(g12
S'\x1c\x00\x00\x00\x00\x00\x00\x00'
p1074
tp1075
Rp1076
sa(dp1077
S'action'
p1078
S'delete'
p1079
sS'order'
p1080
F1523924742.868951
sS'objid'
p1081
g8
(g12
S'\x1b\x00\x00\x00\x00\x00\x00\x00'
p1082
tp1083
Rp1084
sa(dp1085
S'action'
p1086
S'delete'
p1087
sS'order'
p1088
F1523924742.877442
sS'objid'
p1089
g8
(g12
S'\x1a\x00\x00\x00\x00\x00\x00\x00'
p1090
tp1091
Rp1092
sa(dp1093
S'action'
p1094
S'delete'
p1095
sS'order'
p1096
F1523924742.88601
sS'objid'
p1097
g8
(g12
S'\x19\x00\x00\x00\x00\x00\x00\x00'
p1098
tp1099
Rp1100
sa(dp1101
S'action'
p1102
S'delete'
p1103
sS'order'
p1104
F1523924742.894599
sS'objid'
p1105
g8
(g12
S'\x18\x00\x00\x00\x00\x00\x00\x00'
p1106
tp1107
Rp1108
sa(dp1109
S'action'
p1110
S'delete'
p1111
sS'order'
p1112
F1523924742.903253
sS'objid'
p1113
g8
(g12
S'\x17\x00\x00\x00\x00\x00\x00\x00'
p1114
tp1115
Rp1116
sa(dp1117
S'action'
p1118
S'delete'
p1119
sS'order'
p1120
F1523924742.911982
sS'objid'
p1121
g8
(g12
S'\x16\x00\x00\x00\x00\x00\x00\x00'
p1122
tp1123
Rp1124
sa(dp1125
S'action'
p1126
S'delete'
p1127
sS'order'
p1128
F1523924742.920782
sS'objid'
p1129
g8
(g12
S'\x15\x00\x00\x00\x00\x00\x00\x00'
p1130
tp1131
Rp1132
sa(dp1133
S'action'
p1134
S'delete'
p1135
sS'order'
p1136
F1523924742.93108
sS'objid'
p1137
g8
(g12
S'\x14\x00\x00\x00\x00\x00\x00\x00'
p1138
tp1139
Rp1140
sa(dp1141
S'action'
p1142
S'delete'
p1143
sS'order'
p1144
F1523924742.940443
sS'objid'
p1145
g8
(g12
S'\x13\x00\x00\x00\x00\x00\x00\x00'
p1146
tp1147
Rp1148
sa(dp1149
S'action'
p1150
S'delete'
p1151
sS'order'
p1152
F1523924742.949468
sS'objid'
p1153
g8
(g12
S'\x12\x00\x00\x00\x00\x00\x00\x00'
p1154
tp1155
Rp1156
sa(dp1157
S'action'
p1158
S'delete'
p1159
sS'order'
p1160
F1523924742.958487
sS'objid'
p1161
g8
(g12
S'\x11\x00\x00\x00\x00\x00\x00\x00'
p1162
tp1163
Rp1164
sa(dp1165
S'action'
p1166
S'delete'
p1167
sS'order'
p1168
F1523924742.967573
sS'objid'
p1169
g8
(g12
S'\x10\x00\x00\x00\x00\x00\x00\x00'
p1170
tp1171
Rp1172
sa(dp1173
S'action'
p1174
S'delete'
p1175
sS'order'
p1176
F1523924742.976738
sS'objid'
p1177
g8
(g12
S'\x0e\x00\x00\x00\x00\x00\x00\x00'
p1178
tp1179
Rp1180
sa(dp1181
S'action'
p1182
S'delete'
p1183
sS'order'
p1184
F1523924742.985942
sS'objid'
p1185
g8
(g12
S'\r\x00\x00\x00\x00\x00\x00\x00'
p1186
tp1187
Rp1188
sa(dp1189
S'action'
p1190
S'delete'
p1191
sS'order'
p1192
F1523924742.995149
sS'objid'
p1193
g8
(g12
S'\x0c\x00\x00\x00\x00\x00\x00\x00'
p1194
tp1195
Rp1196
sa(dp1197
S'action'
p1198
S'delete'
p1199
sS'order'
p1200
F1523924743.004438
sS'objid'
p1201
g8
(g12
S'\x0b\x00\x00\x00\x00\x00\x00\x00'
p1202
tp1203
Rp1204
sa(dp1205
S'action'
p1206
S'delete'
p1207
sS'order'
p1208
F1523924743.013785
sS'objid'
p1209
g8
(g12
S'\n\x00\x00\x00\x00\x00\x00\x00'
p1210
tp1211
Rp1212
sa(dp1213
S'action'
p1214
S'delete'
p1215
sS'order'
p1216
F1523924743.023196
sS'objid'
p1217
g8
(g12
S'\t\x00\x00\x00\x00\x00\x00\x00'
p1218
tp1219
Rp1220
sa(dp1221
S'action'
p1222
S'delete'
p1223
sS'order'
p1224
F1523924743.034273
sS'objid'
p1225
g8
(g12
S'\x08\x00\x00\x00\x00\x00\x00\x00'
p1226
tp1227
Rp1228
sa(dp1229
S'action'
p1230
S'delete'
p1231
sS'order'
p1232
F1523924743.044139
sS'objid'
p1233
g8
(g12
S'\x07\x00\x00\x00\x00\x00\x00\x00'
p1234
tp1235
Rp1236
sa(dp1237
S'action'
p1238
S'delete'
p1239
sS'order'
p1240
F1523924743.053789
sS'objid'
p1241
g8
(g12
S'\x06\x00\x00\x00\x00\x00\x00\x00'
p1242
tp1243
Rp1244
sa(dp1245
S'action'
p1246
S'delete'
p1247
sS'order'
p1248
F1523924743.063438
sS'objid'
p1249
g8
(g12
S'\x05\x00\x00\x00\x00\x00\x00\x00'
p1250
tp1251
Rp1252
sa(dp1253
S'action'
p1254
S'delete'
p1255
sS'order'
p1256
F1523924743.073115
sS'objid'
p1257
g8
(g12
S'\x04\x00\x00\x00\x00\x00\x00\x00'
p1258
tp1259
Rp1260
sa(dp1261
S'action'
p1262
S'delete'
p1263
sS'order'
p1264
F1523924743.082937
sS'objid'
p1265
g8
(g12
S'\x03\x00\x00\x00\x00\x00\x00\x00'
p1266
tp1267
Rp1268
sa(dp1269
S'action'
p1270
S'delete'
p1271
sS'order'
p1272
F1523924743.092749
sS'objid'
p1273
g8
(g12
S'\x02\x00\x00\x00\x00\x00\x00\x00'
p1274
tp1275
Rp1276
sa(dp1277
S'action'
p1278
S'delete'
p1279
sS'order'
p1280
F1523924743.102662
sS'objid'
p1281
g8
(g12
S'\x01\x00\x00\x00\x00\x00\x00\x00'
p1282
tp1283
Rp1284
sa.