(lp0
(dp1
S'action'
p2
S'join'
p3
sS'data_to_add'
p4
(lp5
sS'order'
p6
F1524183668.030761
sS'new_objid'
p7
cnumpy.core.multiarray
scalar
p8
(cnumpy
dtype
p9
(S'i8'
p10
I0
I1
tp11
Rp12
(I3
S'<'
p13
NNNI-1
I-1
I0
tp14
bS'#\x00\x00\x00\x00\x00\x00\x00'
p15
tp16
Rp17
sS'objids'
p18
(lp19
g8
(g12
S'\x01\x00\x00\x00\x00\x00\x00\x00'
p20
tp21
Rp22
ag8
(g12
S'\x00\x00\x00\x00\x00\x00\x00\x00'
p23
tp24
Rp25
ag8
(g12
S'\x03\x00\x00\x00\x00\x00\x00\x00'
p26
tp27
Rp28
asa(dp29
S'action'
p30
S'join'
p31
sS'data_to_add'
p32
(lp33
sS'order'
p34
F1524183675.740146
sS'new_objid'
p35
g8
(g12
S'$\x00\x00\x00\x00\x00\x00\x00'
p36
tp37
Rp38
sS'objids'
p39
(lp40
g8
(g12
S'\x06\x00\x00\x00\x00\x00\x00\x00'
p41
tp42
Rp43
ag8
(g12
S'#\x00\x00\x00\x00\x00\x00\x00'
p44
tp45
Rp46
asa(dp47
S'action'
p48
S'join'
p49
sS'data_to_add'
p50
(lp51
sS'order'
p52
F1524183686.836329
sS'new_objid'
p53
g8
(g12
S'%\x00\x00\x00\x00\x00\x00\x00'
p54
tp55
Rp56
sS'objids'
p57
(lp58
g8
(g12
S'$\x00\x00\x00\x00\x00\x00\x00'
p59
tp60
Rp61
ag8
(g12
S'\n\x00\x00\x00\x00\x00\x00\x00'
p62
tp63
Rp64
ag8
(g12
S'\t\x00\x00\x00\x00\x00\x00\x00'
p65
tp66
Rp67
asa(dp68
S'action'
p69
S'join'
p70
sS'data_to_add'
p71
(lp72
sS'order'
p73
F1524183696.780933
sS'new_objid'
p74
g8
(g12
S'&\x00\x00\x00\x00\x00\x00\x00'
p75
tp76
Rp77
sS'objids'
p78
(lp79
g8
(g12
S'%\x00\x00\x00\x00\x00\x00\x00'
p80
tp81
Rp82
ag8
(g12
S'\x0e\x00\x00\x00\x00\x00\x00\x00'
p83
tp84
Rp85
ag8
(g12
S'\x0f\x00\x00\x00\x00\x00\x00\x00'
p86
tp87
Rp88
asa(dp89
S'action'
p90
S'join'
p91
sS'data_to_add'
p92
(lp93
sS'order'
p94
F1524183710.468935
sS'new_objid'
p95
g8
(g12
S"'\x00\x00\x00\x00\x00\x00\x00"
p96
tp97
Rp98
sS'objids'
p99
(lp100
g8
(g12
S'\x18\x00\x00\x00\x00\x00\x00\x00'
p101
tp102
Rp103
ag8
(g12
S'&\x00\x00\x00\x00\x00\x00\x00'
p104
tp105
Rp106
asa(dp107
S'action'
p108
S'delete'
p109
sS'order'
p110
F1524183716.372889
sS'objid'
p111
g8
(g12
S'\x17\x00\x00\x00\x00\x00\x00\x00'
p112
tp113
Rp114
sa(dp115
S'action'
p116
S'delete'
p117
sS'order'
p118
F1524183716.37466
sS'objid'
p119
g8
(g12
S'\x16\x00\x00\x00\x00\x00\x00\x00'
p120
tp121
Rp122
sa(dp123
S'action'
p124
S'delete'
p125
sS'order'
p126
F1524183716.376798
sS'objid'
p127
g8
(g12
S'\x15\x00\x00\x00\x00\x00\x00\x00'
p128
tp129
Rp130
sa(dp131
S'action'
p132
S'delete'
p133
sS'order'
p134
F1524183716.37916
sS'objid'
p135
g8
(g12
S'\x14\x00\x00\x00\x00\x00\x00\x00'
p136
tp137
Rp138
sa(dp139
S'action'
p140
S'delete'
p141
sS'order'
p142
F1524183716.381663
sS'objid'
p143
g8
(g12
S'\x13\x00\x00\x00\x00\x00\x00\x00'
p144
tp145
Rp146
sa(dp147
S'action'
p148
S'delete'
p149
sS'order'
p150
F1524183716.384247
sS'objid'
p151
g8
(g12
S'\x12\x00\x00\x00\x00\x00\x00\x00'
p152
tp153
Rp154
sa(dp155
S'action'
p156
S'delete'
p157
sS'order'
p158
F1524183716.386266
sS'objid'
p159
g8
(g12
S'\x11\x00\x00\x00\x00\x00\x00\x00'
p160
tp161
Rp162
sa(dp163
S'action'
p164
S'delete'
p165
sS'order'
p166
F1524183716.388173
sS'objid'
p167
g8
(g12
S'\x10\x00\x00\x00\x00\x00\x00\x00'
p168
tp169
Rp170
sa(dp171
S'action'
p172
S'delete'
p173
sS'order'
p174
F1524183716.390093
sS'objid'
p175
g8
(g12
S'\r\x00\x00\x00\x00\x00\x00\x00'
p176
tp177
Rp178
sa(dp179
S'action'
p180
S'delete'
p181
sS'order'
p182
F1524183716.392075
sS'objid'
p183
g8
(g12
S'\x0c\x00\x00\x00\x00\x00\x00\x00'
p184
tp185
Rp186
sa(dp187
S'action'
p188
S'delete'
p189
sS'order'
p190
F1524183716.394121
sS'objid'
p191
g8
(g12
S'\x0b\x00\x00\x00\x00\x00\x00\x00'
p192
tp193
Rp194
sa(dp195
S'action'
p196
S'delete'
p197
sS'order'
p198
F1524183716.396249
sS'objid'
p199
g8
(g12
S'\x08\x00\x00\x00\x00\x00\x00\x00'
p200
tp201
Rp202
sa(dp203
S'action'
p204
S'delete'
p205
sS'order'
p206
F1524183716.398406
sS'objid'
p207
g8
(g12
S'\x07\x00\x00\x00\x00\x00\x00\x00'
p208
tp209
Rp210
sa(dp211
S'action'
p212
S'delete'
p213
sS'order'
p214
F1524183716.40065
sS'objid'
p215
g8
(g12
S'\x05\x00\x00\x00\x00\x00\x00\x00'
p216
tp217
Rp218
sa(dp219
S'action'
p220
S'delete'
p221
sS'order'
p222
F1524183716.403137
sS'objid'
p223
g8
(g12
S'\x04\x00\x00\x00\x00\x00\x00\x00'
p224
tp225
Rp226
sa(dp227
S'action'
p228
S'delete'
p229
sS'order'
p230
F1524183716.406011
sS'objid'
p231
g8
(g12
S'\x02\x00\x00\x00\x00\x00\x00\x00'
p232
tp233
Rp234
sa.