(lp0
(dp1
S'action'
p2
S'join'
p3
sS'data_to_add'
p4
(lp5
sS'order'
p6
F1523922357.196677
sS'new_objid'
p7
cnumpy.core.multiarray
scalar
p8
(cnumpy
dtype
p9
(S'i8'
p10
I0
I1
tp11
Rp12
(I3
S'<'
p13
NNNI-1
I-1
I0
tp14
bS'<\x00\x00\x00\x00\x00\x00\x00'
p15
tp16
Rp17
sS'objids'
p18
(lp19
g8
(g12
S'"\x00\x00\x00\x00\x00\x00\x00'
p20
tp21
Rp22
ag8
(g12
S'\x00\x00\x00\x00\x00\x00\x00\x00'
p23
tp24
Rp25
asa(dp26
S'action'
p27
S'join'
p28
sS'data_to_add'
p29
(lp30
sS'order'
p31
F1523922367.92027
sS'new_objid'
p32
g8
(g12
S'=\x00\x00\x00\x00\x00\x00\x00'
p33
tp34
Rp35
sS'objids'
p36
(lp37
g8
(g12
S"'\x00\x00\x00\x00\x00\x00\x00"
p38
tp39
Rp40
ag8
(g12
S'<\x00\x00\x00\x00\x00\x00\x00'
p41
tp42
Rp43
ag8
(g12
S')\x00\x00\x00\x00\x00\x00\x00'
p44
tp45
Rp46
asa(dp47
S'action'
p48
S'delete'
p49
sS'order'
p50
F1523922376.603433
sS'objid'
p51
g8
(g12
S'1\x00\x00\x00\x00\x00\x00\x00'
p52
tp53
Rp54
sa(dp55
S'action'
p56
S'delete'
p57
sS'order'
p58
F1523922376.604721
sS'objid'
p59
g8
(g12
S'0\x00\x00\x00\x00\x00\x00\x00'
p60
tp61
Rp62
sa(dp63
S'action'
p64
S'delete'
p65
sS'order'
p66
F1523922376.605854
sS'objid'
p67
g8
(g12
S'/\x00\x00\x00\x00\x00\x00\x00'
p68
tp69
Rp70
sa(dp71
S'action'
p72
S'delete'
p73
sS'order'
p74
F1523922376.606996
sS'objid'
p75
g8
(g12
S'.\x00\x00\x00\x00\x00\x00\x00'
p76
tp77
Rp78
sa(dp79
S'action'
p80
S'delete'
p81
sS'order'
p82
F1523922376.608191
sS'objid'
p83
g8
(g12
S'-\x00\x00\x00\x00\x00\x00\x00'
p84
tp85
Rp86
sa(dp87
S'action'
p88
S'delete'
p89
sS'order'
p90
F1523922376.609438
sS'objid'
p91
g8
(g12
S',\x00\x00\x00\x00\x00\x00\x00'
p92
tp93
Rp94
sa(dp95
S'action'
p96
S'delete'
p97
sS'order'
p98
F1523922376.610745
sS'objid'
p99
g8
(g12
S'+\x00\x00\x00\x00\x00\x00\x00'
p100
tp101
Rp102
sa(dp103
S'action'
p104
S'delete'
p105
sS'order'
p106
F1523922376.612126
sS'objid'
p107
g8
(g12
S'*\x00\x00\x00\x00\x00\x00\x00'
p108
tp109
Rp110
sa(dp111
S'action'
p112
S'delete'
p113
sS'order'
p114
F1523922376.613547
sS'objid'
p115
g8
(g12
S'(\x00\x00\x00\x00\x00\x00\x00'
p116
tp117
Rp118
sa(dp119
S'action'
p120
S'delete'
p121
sS'order'
p122
F1523922376.61519
sS'objid'
p123
g8
(g12
S'&\x00\x00\x00\x00\x00\x00\x00'
p124
tp125
Rp126
sa(dp127
S'action'
p128
S'delete'
p129
sS'order'
p130
F1523922376.61674
sS'objid'
p131
g8
(g12
S'%\x00\x00\x00\x00\x00\x00\x00'
p132
tp133
Rp134
sa(dp135
S'action'
p136
S'delete'
p137
sS'order'
p138
F1523922376.61833
sS'objid'
p139
g8
(g12
S'$\x00\x00\x00\x00\x00\x00\x00'
p140
tp141
Rp142
sa(dp143
S'action'
p144
S'delete'
p145
sS'order'
p146
F1523922376.619989
sS'objid'
p147
g8
(g12
S'#\x00\x00\x00\x00\x00\x00\x00'
p148
tp149
Rp150
sa(dp151
S'action'
p152
S'delete'
p153
sS'order'
p154
F1523922376.621691
sS'objid'
p155
g8
(g12
S'!\x00\x00\x00\x00\x00\x00\x00'
p156
tp157
Rp158
sa(dp159
S'action'
p160
S'delete'
p161
sS'order'
p162
F1523922376.623466
sS'objid'
p163
g8
(g12
S' \x00\x00\x00\x00\x00\x00\x00'
p164
tp165
Rp166
sa(dp167
S'action'
p168
S'delete'
p169
sS'order'
p170
F1523922376.625285
sS'objid'
p171
g8
(g12
S'\x1f\x00\x00\x00\x00\x00\x00\x00'
p172
tp173
Rp174
sa(dp175
S'action'
p176
S'delete'
p177
sS'order'
p178
F1523922376.627144
sS'objid'
p179
g8
(g12
S'\x1e\x00\x00\x00\x00\x00\x00\x00'
p180
tp181
Rp182
sa(dp183
S'action'
p184
S'delete'
p185
sS'order'
p186
F1523922376.629084
sS'objid'
p187
g8
(g12
S'\x1d\x00\x00\x00\x00\x00\x00\x00'
p188
tp189
Rp190
sa(dp191
S'action'
p192
S'delete'
p193
sS'order'
p194
F1523922376.631091
sS'objid'
p195
g8
(g12
S'\x1c\x00\x00\x00\x00\x00\x00\x00'
p196
tp197
Rp198
sa(dp199
S'action'
p200
S'delete'
p201
sS'order'
p202
F1523922376.633157
sS'objid'
p203
g8
(g12
S'\x1b\x00\x00\x00\x00\x00\x00\x00'
p204
tp205
Rp206
sa(dp207
S'action'
p208
S'delete'
p209
sS'order'
p210
F1523922376.635263
sS'objid'
p211
g8
(g12
S'\x1a\x00\x00\x00\x00\x00\x00\x00'
p212
tp213
Rp214
sa(dp215
S'action'
p216
S'delete'
p217
sS'order'
p218
F1523922376.637406
sS'objid'
p219
g8
(g12
S'\x19\x00\x00\x00\x00\x00\x00\x00'
p220
tp221
Rp222
sa(dp223
S'action'
p224
S'delete'
p225
sS'order'
p226
F1523922376.639664
sS'objid'
p227
g8
(g12
S'\x18\x00\x00\x00\x00\x00\x00\x00'
p228
tp229
Rp230
sa(dp231
S'action'
p232
S'delete'
p233
sS'order'
p234
F1523922376.641931
sS'objid'
p235
g8
(g12
S'\x17\x00\x00\x00\x00\x00\x00\x00'
p236
tp237
Rp238
sa(dp239
S'action'
p240
S'delete'
p241
sS'order'
p242
F1523922376.644275
sS'objid'
p243
g8
(g12
S'\x16\x00\x00\x00\x00\x00\x00\x00'
p244
tp245
Rp246
sa(dp247
S'action'
p248
S'delete'
p249
sS'order'
p250
F1523922376.646723
sS'objid'
p251
g8
(g12
S'\x15\x00\x00\x00\x00\x00\x00\x00'
p252
tp253
Rp254
sa(dp255
S'action'
p256
S'delete'
p257
sS'order'
p258
F1523922376.649208
sS'objid'
p259
g8
(g12
S'\x14\x00\x00\x00\x00\x00\x00\x00'
p260
tp261
Rp262
sa(dp263
S'action'
p264
S'delete'
p265
sS'order'
p266
F1523922376.651721
sS'objid'
p267
g8
(g12
S'\x13\x00\x00\x00\x00\x00\x00\x00'
p268
tp269
Rp270
sa(dp271
S'action'
p272
S'delete'
p273
sS'order'
p274
F1523922376.654357
sS'objid'
p275
g8
(g12
S'\x12\x00\x00\x00\x00\x00\x00\x00'
p276
tp277
Rp278
sa(dp279
S'action'
p280
S'delete'
p281
sS'order'
p282
F1523922376.65703
sS'objid'
p283
g8
(g12
S'\x11\x00\x00\x00\x00\x00\x00\x00'
p284
tp285
Rp286
sa(dp287
S'action'
p288
S'delete'
p289
sS'order'
p290
F1523922376.659727
sS'objid'
p291
g8
(g12
S'\x10\x00\x00\x00\x00\x00\x00\x00'
p292
tp293
Rp294
sa(dp295
S'action'
p296
S'delete'
p297
sS'order'
p298
F1523922376.662508
sS'objid'
p299
g8
(g12
S'\x0f\x00\x00\x00\x00\x00\x00\x00'
p300
tp301
Rp302
sa(dp303
S'action'
p304
S'delete'
p305
sS'order'
p306
F1523922376.665415
sS'objid'
p307
g8
(g12
S'\x0e\x00\x00\x00\x00\x00\x00\x00'
p308
tp309
Rp310
sa(dp311
S'action'
p312
S'delete'
p313
sS'order'
p314
F1523922376.668276
sS'objid'
p315
g8
(g12
S'\r\x00\x00\x00\x00\x00\x00\x00'
p316
tp317
Rp318
sa(dp319
S'action'
p320
S'delete'
p321
sS'order'
p322
F1523922376.671191
sS'objid'
p323
g8
(g12
S'\x0c\x00\x00\x00\x00\x00\x00\x00'
p324
tp325
Rp326
sa(dp327
S'action'
p328
S'delete'
p329
sS'order'
p330
F1523922376.674148
sS'objid'
p331
g8
(g12
S'\x0b\x00\x00\x00\x00\x00\x00\x00'
p332
tp333
Rp334
sa(dp335
S'action'
p336
S'delete'
p337
sS'order'
p338
F1523922376.677171
sS'objid'
p339
g8
(g12
S'\n\x00\x00\x00\x00\x00\x00\x00'
p340
tp341
Rp342
sa(dp343
S'action'
p344
S'delete'
p345
sS'order'
p346
F1523922376.68027
sS'objid'
p347
g8
(g12
S'\t\x00\x00\x00\x00\x00\x00\x00'
p348
tp349
Rp350
sa(dp351
S'action'
p352
S'delete'
p353
sS'order'
p354
F1523922376.683426
sS'objid'
p355
g8
(g12
S'\x08\x00\x00\x00\x00\x00\x00\x00'
p356
tp357
Rp358
sa(dp359
S'action'
p360
S'delete'
p361
sS'order'
p362
F1523922376.686622
sS'objid'
p363
g8
(g12
S'\x07\x00\x00\x00\x00\x00\x00\x00'
p364
tp365
Rp366
sa(dp367
S'action'
p368
S'delete'
p369
sS'order'
p370
F1523922376.689907
sS'objid'
p371
g8
(g12
S'\x06\x00\x00\x00\x00\x00\x00\x00'
p372
tp373
Rp374
sa(dp375
S'action'
p376
S'delete'
p377
sS'order'
p378
F1523922376.693239
sS'objid'
p379
g8
(g12
S'\x05\x00\x00\x00\x00\x00\x00\x00'
p380
tp381
Rp382
sa(dp383
S'action'
p384
S'delete'
p385
sS'order'
p386
F1523922376.696628
sS'objid'
p387
g8
(g12
S'\x04\x00\x00\x00\x00\x00\x00\x00'
p388
tp389
Rp390
sa(dp391
S'action'
p392
S'delete'
p393
sS'order'
p394
F1523922376.700068
sS'objid'
p395
g8
(g12
S'\x03\x00\x00\x00\x00\x00\x00\x00'
p396
tp397
Rp398
sa(dp399
S'action'
p400
S'delete'
p401
sS'order'
p402
F1523922376.703554
sS'objid'
p403
g8
(g12
S'\x02\x00\x00\x00\x00\x00\x00\x00'
p404
tp405
Rp406
sa(dp407
S'action'
p408
S'delete'
p409
sS'order'
p410
F1523922376.707096
sS'objid'
p411
g8
(g12
S'\x01\x00\x00\x00\x00\x00\x00\x00'
p412
tp413
Rp414
sa.