(lp0
(dp1
S'action'
p2
S'join'
p3
sS'data_to_add'
p4
(lp5
sS'order'
p6
F1523927433.753176
sS'new_objid'
p7
cnumpy.core.multiarray
scalar
p8
(cnumpy
dtype
p9
(S'i8'
p10
I0
I1
tp11
Rp12
(I3
S'<'
p13
NNNI-1
I-1
I0
tp14
bS'\xc5\x00\x00\x00\x00\x00\x00\x00'
p15
tp16
Rp17
sS'objids'
p18
(lp19
g8
(g12
S'\x00\x00\x00\x00\x00\x00\x00\x00'
p20
tp21
Rp22
ag8
(g12
S'\x01\x00\x00\x00\x00\x00\x00\x00'
p23
tp24
Rp25
ag8
(g12
S'\x02\x00\x00\x00\x00\x00\x00\x00'
p26
tp27
Rp28
asa(dp29
S'action'
p30
S'join'
p31
sS'data_to_add'
p32
(lp33
sS'order'
p34
F1523927454.031047
sS'new_objid'
p35
g8
(g12
S'\xc6\x00\x00\x00\x00\x00\x00\x00'
p36
tp37
Rp38
sS'objids'
p39
(lp40
g8
(g12
S'I\x00\x00\x00\x00\x00\x00\x00'
p41
tp42
Rp43
ag8
(g12
S'\xc5\x00\x00\x00\x00\x00\x00\x00'
p44
tp45
Rp46
ag8
(g12
S'Y\x00\x00\x00\x00\x00\x00\x00'
p47
tp48
Rp49
asa(dp50
S'action'
p51
S'delete'
p52
sS'order'
p53
F1523927488.055552
sS'objid'
p54
g8
(g12
S'\xba\x00\x00\x00\x00\x00\x00\x00'
p55
tp56
Rp57
sa(dp58
S'action'
p59
S'delete'
p60
sS'order'
p61
F1523927488.057822
sS'objid'
p62
g8
(g12
S'\xb9\x00\x00\x00\x00\x00\x00\x00'
p63
tp64
Rp65
sa(dp66
S'action'
p67
S'delete'
p68
sS'order'
p69
F1523927488.059742
sS'objid'
p70
g8
(g12
S'\xb8\x00\x00\x00\x00\x00\x00\x00'
p71
tp72
Rp73
sa(dp74
S'action'
p75
S'delete'
p76
sS'order'
p77
F1523927488.061702
sS'objid'
p78
g8
(g12
S'\xb7\x00\x00\x00\x00\x00\x00\x00'
p79
tp80
Rp81
sa(dp82
S'action'
p83
S'delete'
p84
sS'order'
p85
F1523927488.063687
sS'objid'
p86
g8
(g12
S'\xb6\x00\x00\x00\x00\x00\x00\x00'
p87
tp88
Rp89
sa(dp90
S'action'
p91
S'delete'
p92
sS'order'
p93
F1523927488.065779
sS'objid'
p94
g8
(g12
S'\xb5\x00\x00\x00\x00\x00\x00\x00'
p95
tp96
Rp97
sa(dp98
S'action'
p99
S'delete'
p100
sS'order'
p101
F1523927488.06776
sS'objid'
p102
g8
(g12
S'\xb4\x00\x00\x00\x00\x00\x00\x00'
p103
tp104
Rp105
sa(dp106
S'action'
p107
S'delete'
p108
sS'order'
p109
F1523927488.069163
sS'objid'
p110
g8
(g12
S'\xb3\x00\x00\x00\x00\x00\x00\x00'
p111
tp112
Rp113
sa(dp114
S'action'
p115
S'delete'
p116
sS'order'
p117
F1523927488.070587
sS'objid'
p118
g8
(g12
S'\xb2\x00\x00\x00\x00\x00\x00\x00'
p119
tp120
Rp121
sa(dp122
S'action'
p123
S'delete'
p124
sS'order'
p125
F1523927488.072078
sS'objid'
p126
g8
(g12
S'\xb1\x00\x00\x00\x00\x00\x00\x00'
p127
tp128
Rp129
sa(dp130
S'action'
p131
S'delete'
p132
sS'order'
p133
F1523927488.073628
sS'objid'
p134
g8
(g12
S'\xb0\x00\x00\x00\x00\x00\x00\x00'
p135
tp136
Rp137
sa(dp138
S'action'
p139
S'delete'
p140
sS'order'
p141
F1523927488.075232
sS'objid'
p142
g8
(g12
S'\xaf\x00\x00\x00\x00\x00\x00\x00'
p143
tp144
Rp145
sa(dp146
S'action'
p147
S'delete'
p148
sS'order'
p149
F1523927488.07689
sS'objid'
p150
g8
(g12
S'\xae\x00\x00\x00\x00\x00\x00\x00'
p151
tp152
Rp153
sa(dp154
S'action'
p155
S'delete'
p156
sS'order'
p157
F1523927488.078603
sS'objid'
p158
g8
(g12
S'\xad\x00\x00\x00\x00\x00\x00\x00'
p159
tp160
Rp161
sa(dp162
S'action'
p163
S'delete'
p164
sS'order'
p165
F1523927488.080373
sS'objid'
p166
g8
(g12
S'\xac\x00\x00\x00\x00\x00\x00\x00'
p167
tp168
Rp169
sa(dp170
S'action'
p171
S'delete'
p172
sS'order'
p173
F1523927488.082244
sS'objid'
p174
g8
(g12
S'\xab\x00\x00\x00\x00\x00\x00\x00'
p175
tp176
Rp177
sa(dp178
S'action'
p179
S'delete'
p180
sS'order'
p181
F1523927488.084147
sS'objid'
p182
g8
(g12
S'\xaa\x00\x00\x00\x00\x00\x00\x00'
p183
tp184
Rp185
sa(dp186
S'action'
p187
S'delete'
p188
sS'order'
p189
F1523927488.086102
sS'objid'
p190
g8
(g12
S'\xa9\x00\x00\x00\x00\x00\x00\x00'
p191
tp192
Rp193
sa(dp194
S'action'
p195
S'delete'
p196
sS'order'
p197
F1523927488.088094
sS'objid'
p198
g8
(g12
S'\xa8\x00\x00\x00\x00\x00\x00\x00'
p199
tp200
Rp201
sa(dp202
S'action'
p203
S'delete'
p204
sS'order'
p205
F1523927488.090151
sS'objid'
p206
g8
(g12
S'\xa7\x00\x00\x00\x00\x00\x00\x00'
p207
tp208
Rp209
sa(dp210
S'action'
p211
S'delete'
p212
sS'order'
p213
F1523927488.092274
sS'objid'
p214
g8
(g12
S'\xa6\x00\x00\x00\x00\x00\x00\x00'
p215
tp216
Rp217
sa(dp218
S'action'
p219
S'delete'
p220
sS'order'
p221
F1523927488.094454
sS'objid'
p222
g8
(g12
S'\xa5\x00\x00\x00\x00\x00\x00\x00'
p223
tp224
Rp225
sa(dp226
S'action'
p227
S'delete'
p228
sS'order'
p229
F1523927488.096678
sS'objid'
p230
g8
(g12
S'\xa4\x00\x00\x00\x00\x00\x00\x00'
p231
tp232
Rp233
sa(dp234
S'action'
p235
S'delete'
p236
sS'order'
p237
F1523927488.098967
sS'objid'
p238
g8
(g12
S'\xa3\x00\x00\x00\x00\x00\x00\x00'
p239
tp240
Rp241
sa(dp242
S'action'
p243
S'delete'
p244
sS'order'
p245
F1523927488.101311
sS'objid'
p246
g8
(g12
S'\xa2\x00\x00\x00\x00\x00\x00\x00'
p247
tp248
Rp249
sa(dp250
S'action'
p251
S'delete'
p252
sS'order'
p253
F1523927488.103714
sS'objid'
p254
g8
(g12
S'\xa1\x00\x00\x00\x00\x00\x00\x00'
p255
tp256
Rp257
sa(dp258
S'action'
p259
S'delete'
p260
sS'order'
p261
F1523927488.106157
sS'objid'
p262
g8
(g12
S'\xa0\x00\x00\x00\x00\x00\x00\x00'
p263
tp264
Rp265
sa(dp266
S'action'
p267
S'delete'
p268
sS'order'
p269
F1523927488.10868
sS'objid'
p270
g8
(g12
S'\x9f\x00\x00\x00\x00\x00\x00\x00'
p271
tp272
Rp273
sa(dp274
S'action'
p275
S'delete'
p276
sS'order'
p277
F1523927488.111257
sS'objid'
p278
g8
(g12
S'\x9e\x00\x00\x00\x00\x00\x00\x00'
p279
tp280
Rp281
sa(dp282
S'action'
p283
S'delete'
p284
sS'order'
p285
F1523927488.113876
sS'objid'
p286
g8
(g12
S'\x9d\x00\x00\x00\x00\x00\x00\x00'
p287
tp288
Rp289
sa(dp290
S'action'
p291
S'delete'
p292
sS'order'
p293
F1523927488.116555
sS'objid'
p294
g8
(g12
S'\x9c\x00\x00\x00\x00\x00\x00\x00'
p295
tp296
Rp297
sa(dp298
S'action'
p299
S'delete'
p300
sS'order'
p301
F1523927488.119299
sS'objid'
p302
g8
(g12
S'\x9b\x00\x00\x00\x00\x00\x00\x00'
p303
tp304
Rp305
sa(dp306
S'action'
p307
S'delete'
p308
sS'order'
p309
F1523927488.122119
sS'objid'
p310
g8
(g12
S'\x9a\x00\x00\x00\x00\x00\x00\x00'
p311
tp312
Rp313
sa(dp314
S'action'
p315
S'delete'
p316
sS'order'
p317
F1523927488.124967
sS'objid'
p318
g8
(g12
S'\x99\x00\x00\x00\x00\x00\x00\x00'
p319
tp320
Rp321
sa(dp322
S'action'
p323
S'delete'
p324
sS'order'
p325
F1523927488.127879
sS'objid'
p326
g8
(g12
S'\x98\x00\x00\x00\x00\x00\x00\x00'
p327
tp328
Rp329
sa(dp330
S'action'
p331
S'delete'
p332
sS'order'
p333
F1523927488.130841
sS'objid'
p334
g8
(g12
S'\x97\x00\x00\x00\x00\x00\x00\x00'
p335
tp336
Rp337
sa(dp338
S'action'
p339
S'delete'
p340
sS'order'
p341
F1523927488.133863
sS'objid'
p342
g8
(g12
S'\x96\x00\x00\x00\x00\x00\x00\x00'
p343
tp344
Rp345
sa(dp346
S'action'
p347
S'delete'
p348
sS'order'
p349
F1523927488.136985
sS'objid'
p350
g8
(g12
S'\x95\x00\x00\x00\x00\x00\x00\x00'
p351
tp352
Rp353
sa(dp354
S'action'
p355
S'delete'
p356
sS'order'
p357
F1523927488.140164
sS'objid'
p358
g8
(g12
S'\x94\x00\x00\x00\x00\x00\x00\x00'
p359
tp360
Rp361
sa(dp362
S'action'
p363
S'delete'
p364
sS'order'
p365
F1523927488.143413
sS'objid'
p366
g8
(g12
S'\x93\x00\x00\x00\x00\x00\x00\x00'
p367
tp368
Rp369
sa(dp370
S'action'
p371
S'delete'
p372
sS'order'
p373
F1523927488.146692
sS'objid'
p374
g8
(g12
S'\x92\x00\x00\x00\x00\x00\x00\x00'
p375
tp376
Rp377
sa(dp378
S'action'
p379
S'delete'
p380
sS'order'
p381
F1523927488.150031
sS'objid'
p382
g8
(g12
S'\x91\x00\x00\x00\x00\x00\x00\x00'
p383
tp384
Rp385
sa(dp386
S'action'
p387
S'delete'
p388
sS'order'
p389
F1523927488.15349
sS'objid'
p390
g8
(g12
S'\x90\x00\x00\x00\x00\x00\x00\x00'
p391
tp392
Rp393
sa(dp394
S'action'
p395
S'delete'
p396
sS'order'
p397
F1523927488.156946
sS'objid'
p398
g8
(g12
S'\x8f\x00\x00\x00\x00\x00\x00\x00'
p399
tp400
Rp401
sa(dp402
S'action'
p403
S'delete'
p404
sS'order'
p405
F1523927488.160459
sS'objid'
p406
g8
(g12
S'\x8e\x00\x00\x00\x00\x00\x00\x00'
p407
tp408
Rp409
sa(dp410
S'action'
p411
S'delete'
p412
sS'order'
p413
F1523927488.164013
sS'objid'
p414
g8
(g12
S'\x8d\x00\x00\x00\x00\x00\x00\x00'
p415
tp416
Rp417
sa(dp418
S'action'
p419
S'delete'
p420
sS'order'
p421
F1523927488.167623
sS'objid'
p422
g8
(g12
S'\x8c\x00\x00\x00\x00\x00\x00\x00'
p423
tp424
Rp425
sa(dp426
S'action'
p427
S'delete'
p428
sS'order'
p429
F1523927488.171289
sS'objid'
p430
g8
(g12
S'\x8b\x00\x00\x00\x00\x00\x00\x00'
p431
tp432
Rp433
sa(dp434
S'action'
p435
S'delete'
p436
sS'order'
p437
F1523927488.174998
sS'objid'
p438
g8
(g12
S'\x8a\x00\x00\x00\x00\x00\x00\x00'
p439
tp440
Rp441
sa(dp442
S'action'
p443
S'delete'
p444
sS'order'
p445
F1523927488.178778
sS'objid'
p446
g8
(g12
S'\x89\x00\x00\x00\x00\x00\x00\x00'
p447
tp448
Rp449
sa(dp450
S'action'
p451
S'delete'
p452
sS'order'
p453
F1523927488.182612
sS'objid'
p454
g8
(g12
S'\x88\x00\x00\x00\x00\x00\x00\x00'
p455
tp456
Rp457
sa(dp458
S'action'
p459
S'delete'
p460
sS'order'
p461
F1523927488.186513
sS'objid'
p462
g8
(g12
S'\x87\x00\x00\x00\x00\x00\x00\x00'
p463
tp464
Rp465
sa(dp466
S'action'
p467
S'delete'
p468
sS'order'
p469
F1523927488.190477
sS'objid'
p470
g8
(g12
S'\x86\x00\x00\x00\x00\x00\x00\x00'
p471
tp472
Rp473
sa(dp474
S'action'
p475
S'delete'
p476
sS'order'
p477
F1523927488.194486
sS'objid'
p478
g8
(g12
S'\x85\x00\x00\x00\x00\x00\x00\x00'
p479
tp480
Rp481
sa(dp482
S'action'
p483
S'delete'
p484
sS'order'
p485
F1523927488.198552
sS'objid'
p486
g8
(g12
S'\x84\x00\x00\x00\x00\x00\x00\x00'
p487
tp488
Rp489
sa(dp490
S'action'
p491
S'delete'
p492
sS'order'
p493
F1523927488.202677
sS'objid'
p494
g8
(g12
S'\x83\x00\x00\x00\x00\x00\x00\x00'
p495
tp496
Rp497
sa(dp498
S'action'
p499
S'delete'
p500
sS'order'
p501
F1523927488.20685
sS'objid'
p502
g8
(g12
S'\x82\x00\x00\x00\x00\x00\x00\x00'
p503
tp504
Rp505
sa(dp506
S'action'
p507
S'delete'
p508
sS'order'
p509
F1523927488.211074
sS'objid'
p510
g8
(g12
S'\x81\x00\x00\x00\x00\x00\x00\x00'
p511
tp512
Rp513
sa(dp514
S'action'
p515
S'delete'
p516
sS'order'
p517
F1523927488.215371
sS'objid'
p518
g8
(g12
S'\x80\x00\x00\x00\x00\x00\x00\x00'
p519
tp520
Rp521
sa(dp522
S'action'
p523
S'delete'
p524
sS'order'
p525
F1523927488.219759
sS'objid'
p526
g8
(g12
S'\x7f\x00\x00\x00\x00\x00\x00\x00'
p527
tp528
Rp529
sa(dp530
S'action'
p531
S'delete'
p532
sS'order'
p533
F1523927488.224159
sS'objid'
p534
g8
(g12
S'~\x00\x00\x00\x00\x00\x00\x00'
p535
tp536
Rp537
sa(dp538
S'action'
p539
S'delete'
p540
sS'order'
p541
F1523927488.228639
sS'objid'
p542
g8
(g12
S'}\x00\x00\x00\x00\x00\x00\x00'
p543
tp544
Rp545
sa(dp546
S'action'
p547
S'delete'
p548
sS'order'
p549
F1523927488.233149
sS'objid'
p550
g8
(g12
S'|\x00\x00\x00\x00\x00\x00\x00'
p551
tp552
Rp553
sa(dp554
S'action'
p555
S'delete'
p556
sS'order'
p557
F1523927488.237726
sS'objid'
p558
g8
(g12
S'{\x00\x00\x00\x00\x00\x00\x00'
p559
tp560
Rp561
sa(dp562
S'action'
p563
S'delete'
p564
sS'order'
p565
F1523927488.24238
sS'objid'
p566
g8
(g12
S'z\x00\x00\x00\x00\x00\x00\x00'
p567
tp568
Rp569
sa(dp570
S'action'
p571
S'delete'
p572
sS'order'
p573
F1523927488.247119
sS'objid'
p574
g8
(g12
S'y\x00\x00\x00\x00\x00\x00\x00'
p575
tp576
Rp577
sa(dp578
S'action'
p579
S'delete'
p580
sS'order'
p581
F1523927488.251878
sS'objid'
p582
g8
(g12
S'x\x00\x00\x00\x00\x00\x00\x00'
p583
tp584
Rp585
sa(dp586
S'action'
p587
S'delete'
p588
sS'order'
p589
F1523927488.25673
sS'objid'
p590
g8
(g12
S'w\x00\x00\x00\x00\x00\x00\x00'
p591
tp592
Rp593
sa(dp594
S'action'
p595
S'delete'
p596
sS'order'
p597
F1523927488.261586
sS'objid'
p598
g8
(g12
S'v\x00\x00\x00\x00\x00\x00\x00'
p599
tp600
Rp601
sa(dp602
S'action'
p603
S'delete'
p604
sS'order'
p605
F1523927488.266553
sS'objid'
p606
g8
(g12
S'u\x00\x00\x00\x00\x00\x00\x00'
p607
tp608
Rp609
sa(dp610
S'action'
p611
S'delete'
p612
sS'order'
p613
F1523927488.271544
sS'objid'
p614
g8
(g12
S't\x00\x00\x00\x00\x00\x00\x00'
p615
tp616
Rp617
sa(dp618
S'action'
p619
S'delete'
p620
sS'order'
p621
F1523927488.276581
sS'objid'
p622
g8
(g12
S's\x00\x00\x00\x00\x00\x00\x00'
p623
tp624
Rp625
sa(dp626
S'action'
p627
S'delete'
p628
sS'order'
p629
F1523927488.281652
sS'objid'
p630
g8
(g12
S'r\x00\x00\x00\x00\x00\x00\x00'
p631
tp632
Rp633
sa(dp634
S'action'
p635
S'delete'
p636
sS'order'
p637
F1523927488.286809
sS'objid'
p638
g8
(g12
S'q\x00\x00\x00\x00\x00\x00\x00'
p639
tp640
Rp641
sa(dp642
S'action'
p643
S'delete'
p644
sS'order'
p645
F1523927488.292004
sS'objid'
p646
g8
(g12
S'p\x00\x00\x00\x00\x00\x00\x00'
p647
tp648
Rp649
sa(dp650
S'action'
p651
S'delete'
p652
sS'order'
p653
F1523927488.297256
sS'objid'
p654
g8
(g12
S'o\x00\x00\x00\x00\x00\x00\x00'
p655
tp656
Rp657
sa(dp658
S'action'
p659
S'delete'
p660
sS'order'
p661
F1523927488.302563
sS'objid'
p662
g8
(g12
S'n\x00\x00\x00\x00\x00\x00\x00'
p663
tp664
Rp665
sa(dp666
S'action'
p667
S'delete'
p668
sS'order'
p669
F1523927488.307942
sS'objid'
p670
g8
(g12
S'm\x00\x00\x00\x00\x00\x00\x00'
p671
tp672
Rp673
sa(dp674
S'action'
p675
S'delete'
p676
sS'order'
p677
F1523927488.313362
sS'objid'
p678
g8
(g12
S'l\x00\x00\x00\x00\x00\x00\x00'
p679
tp680
Rp681
sa(dp682
S'action'
p683
S'delete'
p684
sS'order'
p685
F1523927506.311461
sS'objid'
p686
g8
(g12
S'k\x00\x00\x00\x00\x00\x00\x00'
p687
tp688
Rp689
sa(dp690
S'action'
p691
S'delete'
p692
sS'order'
p693
F1523927506.317403
sS'objid'
p694
g8
(g12
S'j\x00\x00\x00\x00\x00\x00\x00'
p695
tp696
Rp697
sa(dp698
S'action'
p699
S'delete'
p700
sS'order'
p701
F1523927506.323346
sS'objid'
p702
g8
(g12
S'i\x00\x00\x00\x00\x00\x00\x00'
p703
tp704
Rp705
sa(dp706
S'action'
p707
S'delete'
p708
sS'order'
p709
F1523927506.32908
sS'objid'
p710
g8
(g12
S'h\x00\x00\x00\x00\x00\x00\x00'
p711
tp712
Rp713
sa(dp714
S'action'
p715
S'delete'
p716
sS'order'
p717
F1523927506.334864
sS'objid'
p718
g8
(g12
S'g\x00\x00\x00\x00\x00\x00\x00'
p719
tp720
Rp721
sa(dp722
S'action'
p723
S'delete'
p724
sS'order'
p725
F1523927506.340706
sS'objid'
p726
g8
(g12
S'f\x00\x00\x00\x00\x00\x00\x00'
p727
tp728
Rp729
sa(dp730
S'action'
p731
S'delete'
p732
sS'order'
p733
F1523927506.346641
sS'objid'
p734
g8
(g12
S'e\x00\x00\x00\x00\x00\x00\x00'
p735
tp736
Rp737
sa(dp738
S'action'
p739
S'delete'
p740
sS'order'
p741
F1523927506.352578
sS'objid'
p742
g8
(g12
S'd\x00\x00\x00\x00\x00\x00\x00'
p743
tp744
Rp745
sa(dp746
S'action'
p747
S'delete'
p748
sS'order'
p749
F1523927506.358545
sS'objid'
p750
g8
(g12
S'c\x00\x00\x00\x00\x00\x00\x00'
p751
tp752
Rp753
sa(dp754
S'action'
p755
S'delete'
p756
sS'order'
p757
F1523927506.364612
sS'objid'
p758
g8
(g12
S'b\x00\x00\x00\x00\x00\x00\x00'
p759
tp760
Rp761
sa(dp762
S'action'
p763
S'delete'
p764
sS'order'
p765
F1523927506.370709
sS'objid'
p766
g8
(g12
S'a\x00\x00\x00\x00\x00\x00\x00'
p767
tp768
Rp769
sa(dp770
S'action'
p771
S'delete'
p772
sS'order'
p773
F1523927506.376928
sS'objid'
p774
g8
(g12
S'`\x00\x00\x00\x00\x00\x00\x00'
p775
tp776
Rp777
sa(dp778
S'action'
p779
S'delete'
p780
sS'order'
p781
F1523927506.383162
sS'objid'
p782
g8
(g12
S'_\x00\x00\x00\x00\x00\x00\x00'
p783
tp784
Rp785
sa(dp786
S'action'
p787
S'delete'
p788
sS'order'
p789
F1523927506.389451
sS'objid'
p790
g8
(g12
S'^\x00\x00\x00\x00\x00\x00\x00'
p791
tp792
Rp793
sa(dp794
S'action'
p795
S'delete'
p796
sS'order'
p797
F1523927506.395742
sS'objid'
p798
g8
(g12
S']\x00\x00\x00\x00\x00\x00\x00'
p799
tp800
Rp801
sa(dp802
S'action'
p803
S'delete'
p804
sS'order'
p805
F1523927506.402117
sS'objid'
p806
g8
(g12
S'\\\x00\x00\x00\x00\x00\x00\x00'
p807
tp808
Rp809
sa(dp810
S'action'
p811
S'delete'
p812
sS'order'
p813
F1523927506.408522
sS'objid'
p814
g8
(g12
S'[\x00\x00\x00\x00\x00\x00\x00'
p815
tp816
Rp817
sa(dp818
S'action'
p819
S'delete'
p820
sS'order'
p821
F1523927506.415012
sS'objid'
p822
g8
(g12
S'Z\x00\x00\x00\x00\x00\x00\x00'
p823
tp824
Rp825
sa(dp826
S'action'
p827
S'delete'
p828
sS'order'
p829
F1523927506.421562
sS'objid'
p830
g8
(g12
S'X\x00\x00\x00\x00\x00\x00\x00'
p831
tp832
Rp833
sa(dp834
S'action'
p835
S'delete'
p836
sS'order'
p837
F1523927506.428132
sS'objid'
p838
g8
(g12
S'W\x00\x00\x00\x00\x00\x00\x00'
p839
tp840
Rp841
sa(dp842
S'action'
p843
S'delete'
p844
sS'order'
p845
F1523927506.43476
sS'objid'
p846
g8
(g12
S'V\x00\x00\x00\x00\x00\x00\x00'
p847
tp848
Rp849
sa(dp850
S'action'
p851
S'delete'
p852
sS'order'
p853
F1523927506.441462
sS'objid'
p854
g8
(g12
S'U\x00\x00\x00\x00\x00\x00\x00'
p855
tp856
Rp857
sa(dp858
S'action'
p859
S'delete'
p860
sS'order'
p861
F1523927506.448214
sS'objid'
p862
g8
(g12
S'T\x00\x00\x00\x00\x00\x00\x00'
p863
tp864
Rp865
sa(dp866
S'action'
p867
S'delete'
p868
sS'order'
p869
F1523927506.455004
sS'objid'
p870
g8
(g12
S'S\x00\x00\x00\x00\x00\x00\x00'
p871
tp872
Rp873
sa(dp874
S'action'
p875
S'delete'
p876
sS'order'
p877
F1523927506.461851
sS'objid'
p878
g8
(g12
S'R\x00\x00\x00\x00\x00\x00\x00'
p879
tp880
Rp881
sa(dp882
S'action'
p883
S'delete'
p884
sS'order'
p885
F1523927506.468773
sS'objid'
p886
g8
(g12
S'Q\x00\x00\x00\x00\x00\x00\x00'
p887
tp888
Rp889
sa(dp890
S'action'
p891
S'delete'
p892
sS'order'
p893
F1523927506.475789
sS'objid'
p894
g8
(g12
S'P\x00\x00\x00\x00\x00\x00\x00'
p895
tp896
Rp897
sa(dp898
S'action'
p899
S'delete'
p900
sS'order'
p901
F1523927506.482872
sS'objid'
p902
g8
(g12
S'O\x00\x00\x00\x00\x00\x00\x00'
p903
tp904
Rp905
sa(dp906
S'action'
p907
S'delete'
p908
sS'order'
p909
F1523927506.490053
sS'objid'
p910
g8
(g12
S'N\x00\x00\x00\x00\x00\x00\x00'
p911
tp912
Rp913
sa(dp914
S'action'
p915
S'delete'
p916
sS'order'
p917
F1523927506.497226
sS'objid'
p918
g8
(g12
S'M\x00\x00\x00\x00\x00\x00\x00'
p919
tp920
Rp921
sa(dp922
S'action'
p923
S'delete'
p924
sS'order'
p925
F1523927506.504446
sS'objid'
p926
g8
(g12
S'L\x00\x00\x00\x00\x00\x00\x00'
p927
tp928
Rp929
sa(dp930
S'action'
p931
S'delete'
p932
sS'order'
p933
F1523927506.511679
sS'objid'
p934
g8
(g12
S'K\x00\x00\x00\x00\x00\x00\x00'
p935
tp936
Rp937
sa(dp938
S'action'
p939
S'delete'
p940
sS'order'
p941
F1523927506.518974
sS'objid'
p942
g8
(g12
S'J\x00\x00\x00\x00\x00\x00\x00'
p943
tp944
Rp945
sa(dp946
S'action'
p947
S'delete'
p948
sS'order'
p949
F1523927506.526362
sS'objid'
p950
g8
(g12
S'H\x00\x00\x00\x00\x00\x00\x00'
p951
tp952
Rp953
sa(dp954
S'action'
p955
S'delete'
p956
sS'order'
p957
F1523927506.533794
sS'objid'
p958
g8
(g12
S'G\x00\x00\x00\x00\x00\x00\x00'
p959
tp960
Rp961
sa(dp962
S'action'
p963
S'delete'
p964
sS'order'
p965
F1523927506.541291
sS'objid'
p966
g8
(g12
S'F\x00\x00\x00\x00\x00\x00\x00'
p967
tp968
Rp969
sa(dp970
S'action'
p971
S'delete'
p972
sS'order'
p973
F1523927506.548857
sS'objid'
p974
g8
(g12
S'E\x00\x00\x00\x00\x00\x00\x00'
p975
tp976
Rp977
sa(dp978
S'action'
p979
S'delete'
p980
sS'order'
p981
F1523927506.556449
sS'objid'
p982
g8
(g12
S'D\x00\x00\x00\x00\x00\x00\x00'
p983
tp984
Rp985
sa(dp986
S'action'
p987
S'delete'
p988
sS'order'
p989
F1523927506.564125
sS'objid'
p990
g8
(g12
S'C\x00\x00\x00\x00\x00\x00\x00'
p991
tp992
Rp993
sa(dp994
S'action'
p995
S'delete'
p996
sS'order'
p997
F1523927506.571829
sS'objid'
p998
g8
(g12
S'B\x00\x00\x00\x00\x00\x00\x00'
p999
tp1000
Rp1001
sa(dp1002
S'action'
p1003
S'delete'
p1004
sS'order'
p1005
F1523927506.57969
sS'objid'
p1006
g8
(g12
S'A\x00\x00\x00\x00\x00\x00\x00'
p1007
tp1008
Rp1009
sa(dp1010
S'action'
p1011
S'delete'
p1012
sS'order'
p1013
F1523927506.58759
sS'objid'
p1014
g8
(g12
S'@\x00\x00\x00\x00\x00\x00\x00'
p1015
tp1016
Rp1017
sa(dp1018
S'action'
p1019
S'delete'
p1020
sS'order'
p1021
F1523927506.59559
sS'objid'
p1022
g8
(g12
S'?\x00\x00\x00\x00\x00\x00\x00'
p1023
tp1024
Rp1025
sa(dp1026
S'action'
p1027
S'delete'
p1028
sS'order'
p1029
F1523927506.603541
sS'objid'
p1030
g8
(g12
S'>\x00\x00\x00\x00\x00\x00\x00'
p1031
tp1032
Rp1033
sa(dp1034
S'action'
p1035
S'delete'
p1036
sS'order'
p1037
F1523927506.611559
sS'objid'
p1038
g8
(g12
S'=\x00\x00\x00\x00\x00\x00\x00'
p1039
tp1040
Rp1041
sa(dp1042
S'action'
p1043
S'delete'
p1044
sS'order'
p1045
F1523927506.619643
sS'objid'
p1046
g8
(g12
S'<\x00\x00\x00\x00\x00\x00\x00'
p1047
tp1048
Rp1049
sa(dp1050
S'action'
p1051
S'delete'
p1052
sS'order'
p1053
F1523927506.627777
sS'objid'
p1054
g8
(g12
S';\x00\x00\x00\x00\x00\x00\x00'
p1055
tp1056
Rp1057
sa(dp1058
S'action'
p1059
S'delete'
p1060
sS'order'
p1061
F1523927506.635944
sS'objid'
p1062
g8
(g12
S':\x00\x00\x00\x00\x00\x00\x00'
p1063
tp1064
Rp1065
sa(dp1066
S'action'
p1067
S'delete'
p1068
sS'order'
p1069
F1523927506.644173
sS'objid'
p1070
g8
(g12
S'9\x00\x00\x00\x00\x00\x00\x00'
p1071
tp1072
Rp1073
sa(dp1074
S'action'
p1075
S'delete'
p1076
sS'order'
p1077
F1523927506.652468
sS'objid'
p1078
g8
(g12
S'8\x00\x00\x00\x00\x00\x00\x00'
p1079
tp1080
Rp1081
sa(dp1082
S'action'
p1083
S'delete'
p1084
sS'order'
p1085
F1523927506.660813
sS'objid'
p1086
g8
(g12
S'7\x00\x00\x00\x00\x00\x00\x00'
p1087
tp1088
Rp1089
sa(dp1090
S'action'
p1091
S'delete'
p1092
sS'order'
p1093
F1523927506.669215
sS'objid'
p1094
g8
(g12
S'6\x00\x00\x00\x00\x00\x00\x00'
p1095
tp1096
Rp1097
sa(dp1098
S'action'
p1099
S'delete'
p1100
sS'order'
p1101
F1523927506.67771
sS'objid'
p1102
g8
(g12
S'5\x00\x00\x00\x00\x00\x00\x00'
p1103
tp1104
Rp1105
sa(dp1106
S'action'
p1107
S'delete'
p1108
sS'order'
p1109
F1523927506.686261
sS'objid'
p1110
g8
(g12
S'4\x00\x00\x00\x00\x00\x00\x00'
p1111
tp1112
Rp1113
sa(dp1114
S'action'
p1115
S'delete'
p1116
sS'order'
p1117
F1523927506.694913
sS'objid'
p1118
g8
(g12
S'3\x00\x00\x00\x00\x00\x00\x00'
p1119
tp1120
Rp1121
sa(dp1122
S'action'
p1123
S'delete'
p1124
sS'order'
p1125
F1523927506.70354
sS'objid'
p1126
g8
(g12
S'2\x00\x00\x00\x00\x00\x00\x00'
p1127
tp1128
Rp1129
sa(dp1130
S'action'
p1131
S'delete'
p1132
sS'order'
p1133
F1523927506.712207
sS'objid'
p1134
g8
(g12
S'1\x00\x00\x00\x00\x00\x00\x00'
p1135
tp1136
Rp1137
sa(dp1138
S'action'
p1139
S'delete'
p1140
sS'order'
p1141
F1523927506.720985
sS'objid'
p1142
g8
(g12
S'0\x00\x00\x00\x00\x00\x00\x00'
p1143
tp1144
Rp1145
sa(dp1146
S'action'
p1147
S'delete'
p1148
sS'order'
p1149
F1523927506.729768
sS'objid'
p1150
g8
(g12
S'/\x00\x00\x00\x00\x00\x00\x00'
p1151
tp1152
Rp1153
sa(dp1154
S'action'
p1155
S'delete'
p1156
sS'order'
p1157
F1523927506.738608
sS'objid'
p1158
g8
(g12
S'.\x00\x00\x00\x00\x00\x00\x00'
p1159
tp1160
Rp1161
sa(dp1162
S'action'
p1163
S'delete'
p1164
sS'order'
p1165
F1523927506.747525
sS'objid'
p1166
g8
(g12
S'-\x00\x00\x00\x00\x00\x00\x00'
p1167
tp1168
Rp1169
sa(dp1170
S'action'
p1171
S'delete'
p1172
sS'order'
p1173
F1523927506.756488
sS'objid'
p1174
g8
(g12
S',\x00\x00\x00\x00\x00\x00\x00'
p1175
tp1176
Rp1177
sa(dp1178
S'action'
p1179
S'delete'
p1180
sS'order'
p1181
F1523927506.765529
sS'objid'
p1182
g8
(g12
S'+\x00\x00\x00\x00\x00\x00\x00'
p1183
tp1184
Rp1185
sa(dp1186
S'action'
p1187
S'delete'
p1188
sS'order'
p1189
F1523927506.7746
sS'objid'
p1190
g8
(g12
S'*\x00\x00\x00\x00\x00\x00\x00'
p1191
tp1192
Rp1193
sa(dp1194
S'action'
p1195
S'delete'
p1196
sS'order'
p1197
F1523927506.783804
sS'objid'
p1198
g8
(g12
S')\x00\x00\x00\x00\x00\x00\x00'
p1199
tp1200
Rp1201
sa(dp1202
S'action'
p1203
S'delete'
p1204
sS'order'
p1205
F1523927506.793093
sS'objid'
p1206
g8
(g12
S'(\x00\x00\x00\x00\x00\x00\x00'
p1207
tp1208
Rp1209
sa(dp1210
S'action'
p1211
S'delete'
p1212
sS'order'
p1213
F1523927506.802395
sS'objid'
p1214
g8
(g12
S"'\x00\x00\x00\x00\x00\x00\x00"
p1215
tp1216
Rp1217
sa(dp1218
S'action'
p1219
S'delete'
p1220
sS'order'
p1221
F1523927506.811718
sS'objid'
p1222
g8
(g12
S'&\x00\x00\x00\x00\x00\x00\x00'
p1223
tp1224
Rp1225
sa(dp1226
S'action'
p1227
S'delete'
p1228
sS'order'
p1229
F1523927506.821094
sS'objid'
p1230
g8
(g12
S'%\x00\x00\x00\x00\x00\x00\x00'
p1231
tp1232
Rp1233
sa(dp1234
S'action'
p1235
S'delete'
p1236
sS'order'
p1237
F1523927506.830545
sS'objid'
p1238
g8
(g12
S'$\x00\x00\x00\x00\x00\x00\x00'
p1239
tp1240
Rp1241
sa(dp1242
S'action'
p1243
S'delete'
p1244
sS'order'
p1245
F1523927506.840014
sS'objid'
p1246
g8
(g12
S'#\x00\x00\x00\x00\x00\x00\x00'
p1247
tp1248
Rp1249
sa(dp1250
S'action'
p1251
S'delete'
p1252
sS'order'
p1253
F1523927506.849529
sS'objid'
p1254
g8
(g12
S'"\x00\x00\x00\x00\x00\x00\x00'
p1255
tp1256
Rp1257
sa(dp1258
S'action'
p1259
S'delete'
p1260
sS'order'
p1261
F1523927506.859143
sS'objid'
p1262
g8
(g12
S'!\x00\x00\x00\x00\x00\x00\x00'
p1263
tp1264
Rp1265
sa(dp1266
S'action'
p1267
S'delete'
p1268
sS'order'
p1269
F1523927506.868812
sS'objid'
p1270
g8
(g12
S' \x00\x00\x00\x00\x00\x00\x00'
p1271
tp1272
Rp1273
sa(dp1274
S'action'
p1275
S'delete'
p1276
sS'order'
p1277
F1523927506.878513
sS'objid'
p1278
g8
(g12
S'\x1f\x00\x00\x00\x00\x00\x00\x00'
p1279
tp1280
Rp1281
sa(dp1282
S'action'
p1283
S'delete'
p1284
sS'order'
p1285
F1523927506.888369
sS'objid'
p1286
g8
(g12
S'\x1e\x00\x00\x00\x00\x00\x00\x00'
p1287
tp1288
Rp1289
sa(dp1290
S'action'
p1291
S'delete'
p1292
sS'order'
p1293
F1523927506.898226
sS'objid'
p1294
g8
(g12
S'\x1d\x00\x00\x00\x00\x00\x00\x00'
p1295
tp1296
Rp1297
sa(dp1298
S'action'
p1299
S'delete'
p1300
sS'order'
p1301
F1523927506.908126
sS'objid'
p1302
g8
(g12
S'\x1c\x00\x00\x00\x00\x00\x00\x00'
p1303
tp1304
Rp1305
sa(dp1306
S'action'
p1307
S'delete'
p1308
sS'order'
p1309
F1523927506.918176
sS'objid'
p1310
g8
(g12
S'\x1b\x00\x00\x00\x00\x00\x00\x00'
p1311
tp1312
Rp1313
sa(dp1314
S'action'
p1315
S'delete'
p1316
sS'order'
p1317
F1523927506.928144
sS'objid'
p1318
g8
(g12
S'\x1a\x00\x00\x00\x00\x00\x00\x00'
p1319
tp1320
Rp1321
sa(dp1322
S'action'
p1323
S'delete'
p1324
sS'order'
p1325
F1523927506.938218
sS'objid'
p1326
g8
(g12
S'\x19\x00\x00\x00\x00\x00\x00\x00'
p1327
tp1328
Rp1329
sa(dp1330
S'action'
p1331
S'delete'
p1332
sS'order'
p1333
F1523927506.948408
sS'objid'
p1334
g8
(g12
S'\x18\x00\x00\x00\x00\x00\x00\x00'
p1335
tp1336
Rp1337
sa(dp1338
S'action'
p1339
S'delete'
p1340
sS'order'
p1341
F1523927506.95857
sS'objid'
p1342
g8
(g12
S'\x17\x00\x00\x00\x00\x00\x00\x00'
p1343
tp1344
Rp1345
sa(dp1346
S'action'
p1347
S'delete'
p1348
sS'order'
p1349
F1523927506.96879
sS'objid'
p1350
g8
(g12
S'\x16\x00\x00\x00\x00\x00\x00\x00'
p1351
tp1352
Rp1353
sa(dp1354
S'action'
p1355
S'delete'
p1356
sS'order'
p1357
F1523927506.979105
sS'objid'
p1358
g8
(g12
S'\x15\x00\x00\x00\x00\x00\x00\x00'
p1359
tp1360
Rp1361
sa(dp1362
S'action'
p1363
S'delete'
p1364
sS'order'
p1365
F1523927506.989515
sS'objid'
p1366
g8
(g12
S'\x14\x00\x00\x00\x00\x00\x00\x00'
p1367
tp1368
Rp1369
sa(dp1370
S'action'
p1371
S'delete'
p1372
sS'order'
p1373
F1523927507.000123
sS'objid'
p1374
g8
(g12
S'\x13\x00\x00\x00\x00\x00\x00\x00'
p1375
tp1376
Rp1377
sa(dp1378
S'action'
p1379
S'delete'
p1380
sS'order'
p1381
F1523927507.010658
sS'objid'
p1382
g8
(g12
S'\x12\x00\x00\x00\x00\x00\x00\x00'
p1383
tp1384
Rp1385
sa(dp1386
S'action'
p1387
S'delete'
p1388
sS'order'
p1389
F1523927507.021231
sS'objid'
p1390
g8
(g12
S'\x11\x00\x00\x00\x00\x00\x00\x00'
p1391
tp1392
Rp1393
sa(dp1394
S'action'
p1395
S'delete'
p1396
sS'order'
p1397
F1523927507.031868
sS'objid'
p1398
g8
(g12
S'\x10\x00\x00\x00\x00\x00\x00\x00'
p1399
tp1400
Rp1401
sa(dp1402
S'action'
p1403
S'delete'
p1404
sS'order'
p1405
F1523927507.042688
sS'objid'
p1406
g8
(g12
S'\x0f\x00\x00\x00\x00\x00\x00\x00'
p1407
tp1408
Rp1409
sa(dp1410
S'action'
p1411
S'delete'
p1412
sS'order'
p1413
F1523927507.053466
sS'objid'
p1414
g8
(g12
S'\x0e\x00\x00\x00\x00\x00\x00\x00'
p1415
tp1416
Rp1417
sa(dp1418
S'action'
p1419
S'delete'
p1420
sS'order'
p1421
F1523927507.064263
sS'objid'
p1422
g8
(g12
S'\r\x00\x00\x00\x00\x00\x00\x00'
p1423
tp1424
Rp1425
sa(dp1426
S'action'
p1427
S'delete'
p1428
sS'order'
p1429
F1523927516.964299
sS'objid'
p1430
g8
(g12
S'\x0c\x00\x00\x00\x00\x00\x00\x00'
p1431
tp1432
Rp1433
sa(dp1434
S'action'
p1435
S'delete'
p1436
sS'order'
p1437
F1523927516.979396
sS'objid'
p1438
g8
(g12
S'\x0b\x00\x00\x00\x00\x00\x00\x00'
p1439
tp1440
Rp1441
sa(dp1442
S'action'
p1443
S'delete'
p1444
sS'order'
p1445
F1523927516.990493
sS'objid'
p1446
g8
(g12
S'\n\x00\x00\x00\x00\x00\x00\x00'
p1447
tp1448
Rp1449
sa(dp1450
S'action'
p1451
S'delete'
p1452
sS'order'
p1453
F1523927517.002772
sS'objid'
p1454
g8
(g12
S'\t\x00\x00\x00\x00\x00\x00\x00'
p1455
tp1456
Rp1457
sa(dp1458
S'action'
p1459
S'delete'
p1460
sS'order'
p1461
F1523927517.016475
sS'objid'
p1462
g8
(g12
S'\x08\x00\x00\x00\x00\x00\x00\x00'
p1463
tp1464
Rp1465
sa(dp1466
S'action'
p1467
S'delete'
p1468
sS'order'
p1469
F1523927517.027577
sS'objid'
p1470
g8
(g12
S'\x07\x00\x00\x00\x00\x00\x00\x00'
p1471
tp1472
Rp1473
sa(dp1474
S'action'
p1475
S'delete'
p1476
sS'order'
p1477
F1523927517.038765
sS'objid'
p1478
g8
(g12
S'\x06\x00\x00\x00\x00\x00\x00\x00'
p1479
tp1480
Rp1481
sa(dp1482
S'action'
p1483
S'delete'
p1484
sS'order'
p1485
F1523927517.050115
sS'objid'
p1486
g8
(g12
S'\x05\x00\x00\x00\x00\x00\x00\x00'
p1487
tp1488
Rp1489
sa(dp1490
S'action'
p1491
S'delete'
p1492
sS'order'
p1493
F1523927517.070759
sS'objid'
p1494
g8
(g12
S'\x04\x00\x00\x00\x00\x00\x00\x00'
p1495
tp1496
Rp1497
sa(dp1498
S'action'
p1499
S'delete'
p1500
sS'order'
p1501
F1523927517.082607
sS'objid'
p1502
g8
(g12
S'\x03\x00\x00\x00\x00\x00\x00\x00'
p1503
tp1504
Rp1505
sa.