(lp0
(dp1
S'action'
p2
S'delete'
p3
sS'order'
p4
F1524180444.411629
sS'objid'
p5
cnumpy.core.multiarray
scalar
p6
(cnumpy
dtype
p7
(S'i8'
p8
I0
I1
tp9
Rp10
(I3
S'<'
p11
NNNI-1
I-1
I0
tp12
bS'\n\x00\x00\x00\x00\x00\x00\x00'
p13
tp14
Rp15
sa(dp16
S'action'
p17
S'delete'
p18
sS'order'
p19
F1524180444.413409
sS'objid'
p20
g6
(g10
S'\t\x00\x00\x00\x00\x00\x00\x00'
p21
tp22
Rp23
sa(dp24
S'action'
p25
S'delete'
p26
sS'order'
p27
F1524180444.415174
sS'objid'
p28
g6
(g10
S'\x08\x00\x00\x00\x00\x00\x00\x00'
p29
tp30
Rp31
sa(dp32
S'action'
p33
S'delete'
p34
sS'order'
p35
F1524180444.416963
sS'objid'
p36
g6
(g10
S'\x07\x00\x00\x00\x00\x00\x00\x00'
p37
tp38
Rp39
sa(dp40
S'action'
p41
S'delete'
p42
sS'order'
p43
F1524180444.418825
sS'objid'
p44
g6
(g10
S'\x06\x00\x00\x00\x00\x00\x00\x00'
p45
tp46
Rp47
sa(dp48
S'action'
p49
S'delete'
p50
sS'order'
p51
F1524180444.420013
sS'objid'
p52
g6
(g10
S'\x05\x00\x00\x00\x00\x00\x00\x00'
p53
tp54
Rp55
sa(dp56
S'action'
p57
S'delete'
p58
sS'order'
p59
F1524180444.421018
sS'objid'
p60
g6
(g10
S'\x04\x00\x00\x00\x00\x00\x00\x00'
p61
tp62
Rp63
sa(dp64
S'action'
p65
S'delete'
p66
sS'order'
p67
F1524180444.422085
sS'objid'
p68
g6
(g10
S'\x03\x00\x00\x00\x00\x00\x00\x00'
p69
tp70
Rp71
sa(dp72
S'action'
p73
S'delete'
p74
sS'order'
p75
F1524180444.423406
sS'objid'
p76
g6
(g10
S'\x02\x00\x00\x00\x00\x00\x00\x00'
p77
tp78
Rp79
sa(dp80
S'action'
p81
S'delete'
p82
sS'order'
p83
F1524180444.424599
sS'objid'
p84
g6
(g10
S'\x01\x00\x00\x00\x00\x00\x00\x00'
p85
tp86
Rp87
sa.