(lp0
(dp1
S'action'
p2
S'join'
p3
sS'data_to_add'
p4
(lp5
sS'order'
p6
F1523657756.631995
sS'new_objid'
p7
cnumpy.core.multiarray
scalar
p8
(cnumpy
dtype
p9
(S'i8'
p10
I0
I1
tp11
Rp12
(I3
S'<'
p13
NNNI-1
I-1
I0
tp14
bS'\x1e\x00\x00\x00\x00\x00\x00\x00'
p15
tp16
Rp17
sS'objids'
p18
(lp19
g8
(g12
S'\x00\x00\x00\x00\x00\x00\x00\x00'
p20
tp21
Rp22
ag8
(g12
S'\x04\x00\x00\x00\x00\x00\x00\x00'
p23
tp24
Rp25
ag8
(g12
S'\x03\x00\x00\x00\x00\x00\x00\x00'
p26
tp27
Rp28
asa(dp29
S'action'
p30
S'join'
p31
sS'data_to_add'
p32
(lp33
sS'order'
p34
F1523657763.340679
sS'new_objid'
p35
g8
(g12
S'\x1f\x00\x00\x00\x00\x00\x00\x00'
p36
tp37
Rp38
sS'objids'
p39
(lp40
g8
(g12
S'\x1e\x00\x00\x00\x00\x00\x00\x00'
p41
tp42
Rp43
ag8
(g12
S'\x06\x00\x00\x00\x00\x00\x00\x00'
p44
tp45
Rp46
asa(dp47
S'action'
p48
S'delete'
p49
sS'order'
p50
F1523657777.6564
sS'objid'
p51
g8
(g12
S'\x13\x00\x00\x00\x00\x00\x00\x00'
p52
tp53
Rp54
sa(dp55
S'action'
p56
S'delete'
p57
sS'order'
p58
F1523657777.658354
sS'objid'
p59
g8
(g12
S'\x12\x00\x00\x00\x00\x00\x00\x00'
p60
tp61
Rp62
sa(dp63
S'action'
p64
S'delete'
p65
sS'order'
p66
F1523657777.660194
sS'objid'
p67
g8
(g12
S'\x11\x00\x00\x00\x00\x00\x00\x00'
p68
tp69
Rp70
sa(dp71
S'action'
p72
S'delete'
p73
sS'order'
p74
F1523657777.662118
sS'objid'
p75
g8
(g12
S'\x10\x00\x00\x00\x00\x00\x00\x00'
p76
tp77
Rp78
sa(dp79
S'action'
p80
S'delete'
p81
sS'order'
p82
F1523657777.664164
sS'objid'
p83
g8
(g12
S'\x0f\x00\x00\x00\x00\x00\x00\x00'
p84
tp85
Rp86
sa(dp87
S'action'
p88
S'delete'
p89
sS'order'
p90
F1523657777.667694
sS'objid'
p91
g8
(g12
S'\x0e\x00\x00\x00\x00\x00\x00\x00'
p92
tp93
Rp94
sa(dp95
S'action'
p96
S'delete'
p97
sS'order'
p98
F1523657777.670025
sS'objid'
p99
g8
(g12
S'\r\x00\x00\x00\x00\x00\x00\x00'
p100
tp101
Rp102
sa(dp103
S'action'
p104
S'delete'
p105
sS'order'
p106
F1523657777.673166
sS'objid'
p107
g8
(g12
S'\x0c\x00\x00\x00\x00\x00\x00\x00'
p108
tp109
Rp110
sa(dp111
S'action'
p112
S'delete'
p113
sS'order'
p114
F1523657777.675704
sS'objid'
p115
g8
(g12
S'\x0b\x00\x00\x00\x00\x00\x00\x00'
p116
tp117
Rp118
sa(dp119
S'action'
p120
S'delete'
p121
sS'order'
p122
F1523657777.678322
sS'objid'
p123
g8
(g12
S'\n\x00\x00\x00\x00\x00\x00\x00'
p124
tp125
Rp126
sa(dp127
S'action'
p128
S'delete'
p129
sS'order'
p130
F1523657777.68107
sS'objid'
p131
g8
(g12
S'\t\x00\x00\x00\x00\x00\x00\x00'
p132
tp133
Rp134
sa(dp135
S'action'
p136
S'delete'
p137
sS'order'
p138
F1523657777.683911
sS'objid'
p139
g8
(g12
S'\x08\x00\x00\x00\x00\x00\x00\x00'
p140
tp141
Rp142
sa(dp143
S'action'
p144
S'delete'
p145
sS'order'
p146
F1523657777.686863
sS'objid'
p147
g8
(g12
S'\x07\x00\x00\x00\x00\x00\x00\x00'
p148
tp149
Rp150
sa(dp151
S'action'
p152
S'delete'
p153
sS'order'
p154
F1523657777.690276
sS'objid'
p155
g8
(g12
S'\x05\x00\x00\x00\x00\x00\x00\x00'
p156
tp157
Rp158
sa(dp159
S'action'
p160
S'delete'
p161
sS'order'
p162
F1523657777.693522
sS'objid'
p163
g8
(g12
S'\x02\x00\x00\x00\x00\x00\x00\x00'
p164
tp165
Rp166
sa(dp167
S'action'
p168
S'delete'
p169
sS'order'
p170
F1523657777.697342
sS'objid'
p171
g8
(g12
S'\x01\x00\x00\x00\x00\x00\x00\x00'
p172
tp173
Rp174
sa.