(lp0
(dp1
S'action'
p2
S'join'
p3
sS'data_to_add'
p4
(lp5
sS'order'
p6
F1523923910.168793
sS'new_objid'
p7
cnumpy.core.multiarray
scalar
p8
(cnumpy
dtype
p9
(S'i8'
p10
I0
I1
tp11
Rp12
(I3
S'<'
p13
NNNI-1
I-1
I0
tp14
bS'\x11\x00\x00\x00\x00\x00\x00\x00'
p15
tp16
Rp17
sS'objids'
p18
(lp19
g8
(g12
S'\x00\x00\x00\x00\x00\x00\x00\x00'
p20
tp21
Rp22
ag8
(g12
S'\x03\x00\x00\x00\x00\x00\x00\x00'
p23
tp24
Rp25
ag8
(g12
S'\x04\x00\x00\x00\x00\x00\x00\x00'
p26
tp27
Rp28
asa(dp29
S'action'
p30
S'delete'
p31
sS'order'
p32
F1523923917.520034
sS'objid'
p33
g8
(g12
S'\x06\x00\x00\x00\x00\x00\x00\x00'
p34
tp35
Rp36
sa(dp37
S'action'
p38
S'delete'
p39
sS'order'
p40
F1523923917.52121
sS'objid'
p41
g8
(g12
S'\x05\x00\x00\x00\x00\x00\x00\x00'
p42
tp43
Rp44
sa(dp45
S'action'
p46
S'delete'
p47
sS'order'
p48
F1523923917.522179
sS'objid'
p49
g8
(g12
S'\x02\x00\x00\x00\x00\x00\x00\x00'
p50
tp51
Rp52
sa(dp53
S'action'
p54
S'delete'
p55
sS'order'
p56
F1523923917.523199
sS'objid'
p57
g8
(g12
S'\x01\x00\x00\x00\x00\x00\x00\x00'
p58
tp59
Rp60
sa.