(lp0
(dp1
S'action'
p2
S'join'
p3
sS'data_to_add'
p4
(lp5
sS'order'
p6
F1524090517.701257
sS'new_objid'
p7
cnumpy.core.multiarray
scalar
p8
(cnumpy
dtype
p9
(S'i8'
p10
I0
I1
tp11
Rp12
(I3
S'<'
p13
NNNI-1
I-1
I0
tp14
bS'\x1d\x01\x00\x00\x00\x00\x00\x00'
p15
tp16
Rp17
sS'objids'
p18
(lp19
g8
(g12
S'\x00\x00\x00\x00\x00\x00\x00\x00'
p20
tp21
Rp22
ag8
(g12
S'\x18\x00\x00\x00\x00\x00\x00\x00'
p23
tp24
Rp25
ag8
(g12
S'\x1b\x00\x00\x00\x00\x00\x00\x00'
p26
tp27
Rp28
asa(dp29
S'action'
p30
S'join'
p31
sS'data_to_add'
p32
(lp33
sS'order'
p34
F1524090524.649342
sS'new_objid'
p35
g8
(g12
S'\x1e\x01\x00\x00\x00\x00\x00\x00'
p36
tp37
Rp38
sS'objids'
p39
(lp40
g8
(g12
S'\x1d\x01\x00\x00\x00\x00\x00\x00'
p41
tp42
Rp43
ag8
(g12
S'#\x00\x00\x00\x00\x00\x00\x00'
p44
tp45
Rp46
asa(dp47
S'action'
p48
S'join'
p49
sS'data_to_add'
p50
(lp51
sS'order'
p52
F1524090538.49708
sS'new_objid'
p53
g8
(g12
S'\x1f\x01\x00\x00\x00\x00\x00\x00'
p54
tp55
Rp56
sS'objids'
p57
(lp58
g8
(g12
S'F\x00\x00\x00\x00\x00\x00\x00'
p59
tp60
Rp61
ag8
(g12
S'\x1e\x01\x00\x00\x00\x00\x00\x00'
p62
tp63
Rp64
ag8
(g12
S'J\x00\x00\x00\x00\x00\x00\x00'
p65
tp66
Rp67
ag8
(g12
S'?\x00\x00\x00\x00\x00\x00\x00'
p68
tp69
Rp70
asa(dp71
S'action'
p72
S'join'
p73
sS'data_to_add'
p74
(lp75
sS'order'
p76
F1524090548.92914
sS'new_objid'
p77
g8
(g12
S' \x01\x00\x00\x00\x00\x00\x00'
p78
tp79
Rp80
sS'objids'
p81
(lp82
g8
(g12
S'\x1f\x01\x00\x00\x00\x00\x00\x00'
p83
tp84
Rp85
ag8
(g12
S'X\x00\x00\x00\x00\x00\x00\x00'
p86
tp87
Rp88
ag8
(g12
S'j\x00\x00\x00\x00\x00\x00\x00'
p89
tp90
Rp91
asa(dp92
S'cut_frame_global'
p93
I906
sS'cut_time_epoch'
p94
g8
(g9
(S'f8'
p95
I0
I1
tp96
Rp97
(I3
S'<'
p98
NNNI-1
I-1
I0
tp99
bS'\xe3\xd3\x01\xf4\xe0\xb5\xd6A'
p100
tp101
Rp102
sS'cut_frame_trajectory'
p103
g8
(g12
S'\x87\x03\x00\x00\x00\x00\x00\x00'
p104
tp105
Rp106
sS'objid'
p107
g8
(g12
S' \x01\x00\x00\x00\x00\x00\x00'
p108
tp109
Rp110
sS'action'
p111
S'cut'
p112
sS'order'
p113
F1524090567.29291
sS'new_objid'
p114
g8
(g12
S'!\x01\x00\x00\x00\x00\x00\x00'
p115
tp116
Rp117
sa(dp118
S'action'
p119
S'join'
p120
sS'data_to_add'
p121
(lp122
sS'order'
p123
F1524090573.970191
sS'new_objid'
p124
g8
(g12
S'"\x01\x00\x00\x00\x00\x00\x00'
p125
tp126
Rp127
sS'objids'
p128
(lp129
g8
(g12
S' \x01\x00\x00\x00\x00\x00\x00'
p130
tp131
Rp132
ag8
(g12
S'\x85\x00\x00\x00\x00\x00\x00\x00'
p133
tp134
Rp135
ag8
(g12
S'\x89\x00\x00\x00\x00\x00\x00\x00'
p136
tp137
Rp138
asa(dp139
S'action'
p140
S'join'
p141
sS'data_to_add'
p142
(lp143
sS'order'
p144
F1524090594.666459
sS'new_objid'
p145
g8
(g12
S'#\x01\x00\x00\x00\x00\x00\x00'
p146
tp147
Rp148
sS'objids'
p149
(lp150
g8
(g12
S'\xa0\x00\x00\x00\x00\x00\x00\x00'
p151
tp152
Rp153
ag8
(g12
S'"\x01\x00\x00\x00\x00\x00\x00'
p154
tp155
Rp156
asa(dp157
S'cut_frame_global'
p158
I921
sS'cut_time_epoch'
p159
g8
(g97
S'\x10\xd2a\xf4\xe0\xb5\xd6A'
p160
tp161
Rp162
sS'cut_frame_trajectory'
p163
g8
(g12
S'\x96\x03\x00\x00\x00\x00\x00\x00'
p164
tp165
Rp166
sS'objid'
p167
g8
(g12
S'#\x01\x00\x00\x00\x00\x00\x00'
p168
tp169
Rp170
sS'action'
p171
S'cut'
p172
sS'order'
p173
F1524090610.694135
sS'new_objid'
p174
g8
(g12
S'$\x01\x00\x00\x00\x00\x00\x00'
p175
tp176
Rp177
sa(dp178
S'cut_frame_global'
p179
I1221
sS'cut_time_epoch'
p180
g8
(g97
S'\xef\xd2\xe1\xfb\xe0\xb5\xd6A'
p181
tp182
Rp183
sS'cut_frame_trajectory'
p184
g8
(g12
S',\x01\x00\x00\x00\x00\x00\x00'
p185
tp186
Rp187
sS'objid'
p188
g8
(g12
S'$\x01\x00\x00\x00\x00\x00\x00'
p189
tp190
Rp191
sS'action'
p192
S'cut'
p193
sS'order'
p194
F1524090612.470458
sS'new_objid'
p195
g8
(g12
S'%\x01\x00\x00\x00\x00\x00\x00'
p196
tp197
Rp198
sa(dp199
S'action'
p200
S'join'
p201
sS'data_to_add'
p202
(lp203
sS'order'
p204
F1524090620.594843
sS'new_objid'
p205
g8
(g12
S'&\x01\x00\x00\x00\x00\x00\x00'
p206
tp207
Rp208
sS'objids'
p209
(lp210
g8
(g12
S'\xb8\x00\x00\x00\x00\x00\x00\x00'
p211
tp212
Rp213
ag8
(g12
S'$\x01\x00\x00\x00\x00\x00\x00'
p214
tp215
Rp216
asa(dp217
S'action'
p218
S'join'
p219
sS'data_to_add'
p220
(lp221
sS'order'
p222
F1524090633.971691
sS'new_objid'
p223
g8
(g12
S"'\x01\x00\x00\x00\x00\x00\x00"
p224
tp225
Rp226
sS'objids'
p227
(lp228
g8
(g12
S'&\x01\x00\x00\x00\x00\x00\x00'
p229
tp230
Rp231
ag8
(g12
S'\xe5\x00\x00\x00\x00\x00\x00\x00'
p232
tp233
Rp234
asa(dp235
S'action'
p236
S'join'
p237
sS'data_to_add'
p238
(lp239
sS'order'
p240
F1524090641.403346
sS'new_objid'
p241
g8
(g12
S'(\x01\x00\x00\x00\x00\x00\x00'
p242
tp243
Rp244
sS'objids'
p245
(lp246
g8
(g12
S'\xf3\x00\x00\x00\x00\x00\x00\x00'
p247
tp248
Rp249
ag8
(g12
S"'\x01\x00\x00\x00\x00\x00\x00"
p250
tp251
Rp252
asa(dp253
S'action'
p254
S'join'
p255
sS'data_to_add'
p256
(lp257
sS'order'
p258
F1524090656.323982
sS'new_objid'
p259
g8
(g12
S')\x01\x00\x00\x00\x00\x00\x00'
p260
tp261
Rp262
sS'objids'
p263
(lp264
g8
(g12
S'(\x01\x00\x00\x00\x00\x00\x00'
p265
tp266
Rp267
ag8
(g12
S'\xfc\x00\x00\x00\x00\x00\x00\x00'
p268
tp269
Rp270
asa(dp271
S'action'
p272
S'join'
p273
sS'data_to_add'
p274
(lp275
sS'order'
p276
F1524090667.300317
sS'new_objid'
p277
g8
(g12
S'*\x01\x00\x00\x00\x00\x00\x00'
p278
tp279
Rp280
sS'objids'
p281
(lp282
g8
(g12
S'\x12\x01\x00\x00\x00\x00\x00\x00'
p283
tp284
Rp285
ag8
(g12
S')\x01\x00\x00\x00\x00\x00\x00'
p286
tp287
Rp288
asa(dp289
S'action'
p290
S'delete'
p291
sS'order'
p292
F1524090682.77254
sS'objid'
p293
g8
(g12
S'\x11\x01\x00\x00\x00\x00\x00\x00'
p294
tp295
Rp296
sa(dp297
S'action'
p298
S'delete'
p299
sS'order'
p300
F1524090682.778823
sS'objid'
p301
g8
(g12
S'\x10\x01\x00\x00\x00\x00\x00\x00'
p302
tp303
Rp304
sa(dp305
S'action'
p306
S'delete'
p307
sS'order'
p308
F1524090682.788614
sS'objid'
p309
g8
(g12
S'\x0f\x01\x00\x00\x00\x00\x00\x00'
p310
tp311
Rp312
sa(dp313
S'action'
p314
S'delete'
p315
sS'order'
p316
F1524090682.794405
sS'objid'
p317
g8
(g12
S'\x0e\x01\x00\x00\x00\x00\x00\x00'
p318
tp319
Rp320
sa(dp321
S'action'
p322
S'delete'
p323
sS'order'
p324
F1524090682.797485
sS'objid'
p325
g8
(g12
S'\r\x01\x00\x00\x00\x00\x00\x00'
p326
tp327
Rp328
sa(dp329
S'action'
p330
S'delete'
p331
sS'order'
p332
F1524090682.800867
sS'objid'
p333
g8
(g12
S'\x0c\x01\x00\x00\x00\x00\x00\x00'
p334
tp335
Rp336
sa(dp337
S'action'
p338
S'delete'
p339
sS'order'
p340
F1524090682.80461
sS'objid'
p341
g8
(g12
S'\x0b\x01\x00\x00\x00\x00\x00\x00'
p342
tp343
Rp344
sa(dp345
S'action'
p346
S'delete'
p347
sS'order'
p348
F1524090682.808197
sS'objid'
p349
g8
(g12
S'\n\x01\x00\x00\x00\x00\x00\x00'
p350
tp351
Rp352
sa(dp353
S'action'
p354
S'delete'
p355
sS'order'
p356
F1524090682.811698
sS'objid'
p357
g8
(g12
S'\t\x01\x00\x00\x00\x00\x00\x00'
p358
tp359
Rp360
sa(dp361
S'action'
p362
S'delete'
p363
sS'order'
p364
F1524090682.815068
sS'objid'
p365
g8
(g12
S'\x08\x01\x00\x00\x00\x00\x00\x00'
p366
tp367
Rp368
sa(dp369
S'action'
p370
S'delete'
p371
sS'order'
p372
F1524090682.820215
sS'objid'
p373
g8
(g12
S'\x07\x01\x00\x00\x00\x00\x00\x00'
p374
tp375
Rp376
sa(dp377
S'action'
p378
S'delete'
p379
sS'order'
p380
F1524090682.827082
sS'objid'
p381
g8
(g12
S'\x06\x01\x00\x00\x00\x00\x00\x00'
p382
tp383
Rp384
sa(dp385
S'action'
p386
S'delete'
p387
sS'order'
p388
F1524090682.830682
sS'objid'
p389
g8
(g12
S'\x05\x01\x00\x00\x00\x00\x00\x00'
p390
tp391
Rp392
sa(dp393
S'action'
p394
S'delete'
p395
sS'order'
p396
F1524090682.8343
sS'objid'
p397
g8
(g12
S'\x04\x01\x00\x00\x00\x00\x00\x00'
p398
tp399
Rp400
sa(dp401
S'action'
p402
S'delete'
p403
sS'order'
p404
F1524090682.837939
sS'objid'
p405
g8
(g12
S'\x03\x01\x00\x00\x00\x00\x00\x00'
p406
tp407
Rp408
sa(dp409
S'action'
p410
S'delete'
p411
sS'order'
p412
F1524090682.841652
sS'objid'
p413
g8
(g12
S'\x02\x01\x00\x00\x00\x00\x00\x00'
p414
tp415
Rp416
sa(dp417
S'action'
p418
S'delete'
p419
sS'order'
p420
F1524090682.845457
sS'objid'
p421
g8
(g12
S'\x01\x01\x00\x00\x00\x00\x00\x00'
p422
tp423
Rp424
sa(dp425
S'action'
p426
S'delete'
p427
sS'order'
p428
F1524090682.84927
sS'objid'
p429
g8
(g12
S'\x00\x01\x00\x00\x00\x00\x00\x00'
p430
tp431
Rp432
sa(dp433
S'action'
p434
S'delete'
p435
sS'order'
p436
F1524090682.853154
sS'objid'
p437
g8
(g12
S'\xff\x00\x00\x00\x00\x00\x00\x00'
p438
tp439
Rp440
sa(dp441
S'action'
p442
S'delete'
p443
sS'order'
p444
F1524090682.857098
sS'objid'
p445
g8
(g12
S'\xfe\x00\x00\x00\x00\x00\x00\x00'
p446
tp447
Rp448
sa(dp449
S'action'
p450
S'delete'
p451
sS'order'
p452
F1524090682.861101
sS'objid'
p453
g8
(g12
S'\xfd\x00\x00\x00\x00\x00\x00\x00'
p454
tp455
Rp456
sa(dp457
S'action'
p458
S'delete'
p459
sS'order'
p460
F1524090682.865157
sS'objid'
p461
g8
(g12
S'\xfb\x00\x00\x00\x00\x00\x00\x00'
p462
tp463
Rp464
sa(dp465
S'action'
p466
S'delete'
p467
sS'order'
p468
F1524090682.869255
sS'objid'
p469
g8
(g12
S'\xfa\x00\x00\x00\x00\x00\x00\x00'
p470
tp471
Rp472
sa(dp473
S'action'
p474
S'delete'
p475
sS'order'
p476
F1524090682.873435
sS'objid'
p477
g8
(g12
S'\xf9\x00\x00\x00\x00\x00\x00\x00'
p478
tp479
Rp480
sa(dp481
S'action'
p482
S'delete'
p483
sS'order'
p484
F1524090682.877652
sS'objid'
p485
g8
(g12
S'\xf8\x00\x00\x00\x00\x00\x00\x00'
p486
tp487
Rp488
sa(dp489
S'action'
p490
S'delete'
p491
sS'order'
p492
F1524090682.881921
sS'objid'
p493
g8
(g12
S'\xf7\x00\x00\x00\x00\x00\x00\x00'
p494
tp495
Rp496
sa(dp497
S'action'
p498
S'delete'
p499
sS'order'
p500
F1524090682.886258
sS'objid'
p501
g8
(g12
S'\xf6\x00\x00\x00\x00\x00\x00\x00'
p502
tp503
Rp504
sa(dp505
S'action'
p506
S'delete'
p507
sS'order'
p508
F1524090682.890668
sS'objid'
p509
g8
(g12
S'\xf5\x00\x00\x00\x00\x00\x00\x00'
p510
tp511
Rp512
sa(dp513
S'action'
p514
S'delete'
p515
sS'order'
p516
F1524090682.895137
sS'objid'
p517
g8
(g12
S'\xf4\x00\x00\x00\x00\x00\x00\x00'
p518
tp519
Rp520
sa(dp521
S'action'
p522
S'delete'
p523
sS'order'
p524
F1524090682.899649
sS'objid'
p525
g8
(g12
S'\xf2\x00\x00\x00\x00\x00\x00\x00'
p526
tp527
Rp528
sa(dp529
S'action'
p530
S'delete'
p531
sS'order'
p532
F1524090682.904225
sS'objid'
p533
g8
(g12
S'\xf1\x00\x00\x00\x00\x00\x00\x00'
p534
tp535
Rp536
sa(dp537
S'action'
p538
S'delete'
p539
sS'order'
p540
F1524090682.908856
sS'objid'
p541
g8
(g12
S'\xf0\x00\x00\x00\x00\x00\x00\x00'
p542
tp543
Rp544
sa(dp545
S'action'
p546
S'delete'
p547
sS'order'
p548
F1524090682.913549
sS'objid'
p549
g8
(g12
S'\xef\x00\x00\x00\x00\x00\x00\x00'
p550
tp551
Rp552
sa(dp553
S'action'
p554
S'delete'
p555
sS'order'
p556
F1524090682.918288
sS'objid'
p557
g8
(g12
S'\xee\x00\x00\x00\x00\x00\x00\x00'
p558
tp559
Rp560
sa(dp561
S'action'
p562
S'delete'
p563
sS'order'
p564
F1524090682.923116
sS'objid'
p565
g8
(g12
S'\xed\x00\x00\x00\x00\x00\x00\x00'
p566
tp567
Rp568
sa(dp569
S'action'
p570
S'delete'
p571
sS'order'
p572
F1524090682.92802
sS'objid'
p573
g8
(g12
S'\xec\x00\x00\x00\x00\x00\x00\x00'
p574
tp575
Rp576
sa(dp577
S'action'
p578
S'delete'
p579
sS'order'
p580
F1524090682.932951
sS'objid'
p581
g8
(g12
S'\xeb\x00\x00\x00\x00\x00\x00\x00'
p582
tp583
Rp584
sa(dp585
S'action'
p586
S'delete'
p587
sS'order'
p588
F1524090682.937918
sS'objid'
p589
g8
(g12
S'\xea\x00\x00\x00\x00\x00\x00\x00'
p590
tp591
Rp592
sa(dp593
S'action'
p594
S'delete'
p595
sS'order'
p596
F1524090682.94298
sS'objid'
p597
g8
(g12
S'\xe9\x00\x00\x00\x00\x00\x00\x00'
p598
tp599
Rp600
sa(dp601
S'action'
p602
S'delete'
p603
sS'order'
p604
F1524090682.948076
sS'objid'
p605
g8
(g12
S'\xe8\x00\x00\x00\x00\x00\x00\x00'
p606
tp607
Rp608
sa(dp609
S'action'
p610
S'delete'
p611
sS'order'
p612
F1524090682.953209
sS'objid'
p613
g8
(g12
S'\xe7\x00\x00\x00\x00\x00\x00\x00'
p614
tp615
Rp616
sa(dp617
S'action'
p618
S'delete'
p619
sS'order'
p620
F1524090682.958406
sS'objid'
p621
g8
(g12
S'\xe6\x00\x00\x00\x00\x00\x00\x00'
p622
tp623
Rp624
sa(dp625
S'action'
p626
S'delete'
p627
sS'order'
p628
F1524090682.963691
sS'objid'
p629
g8
(g12
S'\xe4\x00\x00\x00\x00\x00\x00\x00'
p630
tp631
Rp632
sa(dp633
S'action'
p634
S'delete'
p635
sS'order'
p636
F1524090682.969013
sS'objid'
p637
g8
(g12
S'\xe3\x00\x00\x00\x00\x00\x00\x00'
p638
tp639
Rp640
sa(dp641
S'action'
p642
S'delete'
p643
sS'order'
p644
F1524090682.974387
sS'objid'
p645
g8
(g12
S'\xe2\x00\x00\x00\x00\x00\x00\x00'
p646
tp647
Rp648
sa(dp649
S'action'
p650
S'delete'
p651
sS'order'
p652
F1524090682.979825
sS'objid'
p653
g8
(g12
S'\xe1\x00\x00\x00\x00\x00\x00\x00'
p654
tp655
Rp656
sa(dp657
S'action'
p658
S'delete'
p659
sS'order'
p660
F1524090682.985311
sS'objid'
p661
g8
(g12
S'\xe0\x00\x00\x00\x00\x00\x00\x00'
p662
tp663
Rp664
sa(dp665
S'action'
p666
S'delete'
p667
sS'order'
p668
F1524090682.99085
sS'objid'
p669
g8
(g12
S'\xdf\x00\x00\x00\x00\x00\x00\x00'
p670
tp671
Rp672
sa(dp673
S'action'
p674
S'delete'
p675
sS'order'
p676
F1524090682.996485
sS'objid'
p677
g8
(g12
S'\xde\x00\x00\x00\x00\x00\x00\x00'
p678
tp679
Rp680
sa(dp681
S'action'
p682
S'delete'
p683
sS'order'
p684
F1524090683.002176
sS'objid'
p685
g8
(g12
S'\xdd\x00\x00\x00\x00\x00\x00\x00'
p686
tp687
Rp688
sa(dp689
S'action'
p690
S'delete'
p691
sS'order'
p692
F1524090683.007912
sS'objid'
p693
g8
(g12
S'\xdc\x00\x00\x00\x00\x00\x00\x00'
p694
tp695
Rp696
sa(dp697
S'action'
p698
S'delete'
p699
sS'order'
p700
F1524090683.013689
sS'objid'
p701
g8
(g12
S'\xdb\x00\x00\x00\x00\x00\x00\x00'
p702
tp703
Rp704
sa(dp705
S'action'
p706
S'delete'
p707
sS'order'
p708
F1524090683.019527
sS'objid'
p709
g8
(g12
S'\xda\x00\x00\x00\x00\x00\x00\x00'
p710
tp711
Rp712
sa(dp713
S'action'
p714
S'delete'
p715
sS'order'
p716
F1524090683.025438
sS'objid'
p717
g8
(g12
S'\xd9\x00\x00\x00\x00\x00\x00\x00'
p718
tp719
Rp720
sa(dp721
S'action'
p722
S'delete'
p723
sS'order'
p724
F1524090683.03139
sS'objid'
p725
g8
(g12
S'\xd8\x00\x00\x00\x00\x00\x00\x00'
p726
tp727
Rp728
sa(dp729
S'action'
p730
S'delete'
p731
sS'order'
p732
F1524090683.037391
sS'objid'
p733
g8
(g12
S'\xd7\x00\x00\x00\x00\x00\x00\x00'
p734
tp735
Rp736
sa(dp737
S'action'
p738
S'delete'
p739
sS'order'
p740
F1524090683.043466
sS'objid'
p741
g8
(g12
S'\xd6\x00\x00\x00\x00\x00\x00\x00'
p742
tp743
Rp744
sa(dp745
S'action'
p746
S'delete'
p747
sS'order'
p748
F1524090683.049596
sS'objid'
p749
g8
(g12
S'\xd5\x00\x00\x00\x00\x00\x00\x00'
p750
tp751
Rp752
sa(dp753
S'action'
p754
S'delete'
p755
sS'order'
p756
F1524090683.055782
sS'objid'
p757
g8
(g12
S'\xd4\x00\x00\x00\x00\x00\x00\x00'
p758
tp759
Rp760
sa(dp761
S'action'
p762
S'delete'
p763
sS'order'
p764
F1524090683.062014
sS'objid'
p765
g8
(g12
S'\xd3\x00\x00\x00\x00\x00\x00\x00'
p766
tp767
Rp768
sa(dp769
S'action'
p770
S'delete'
p771
sS'order'
p772
F1524090683.068354
sS'objid'
p773
g8
(g12
S'\xd2\x00\x00\x00\x00\x00\x00\x00'
p774
tp775
Rp776
sa(dp777
S'action'
p778
S'delete'
p779
sS'order'
p780
F1524090683.074701
sS'objid'
p781
g8
(g12
S'\xd1\x00\x00\x00\x00\x00\x00\x00'
p782
tp783
Rp784
sa(dp785
S'action'
p786
S'delete'
p787
sS'order'
p788
F1524090683.081111
sS'objid'
p789
g8
(g12
S'\xd0\x00\x00\x00\x00\x00\x00\x00'
p790
tp791
Rp792
sa(dp793
S'action'
p794
S'delete'
p795
sS'order'
p796
F1524090683.087579
sS'objid'
p797
g8
(g12
S'\xcf\x00\x00\x00\x00\x00\x00\x00'
p798
tp799
Rp800
sa(dp801
S'action'
p802
S'delete'
p803
sS'order'
p804
F1524090683.094134
sS'objid'
p805
g8
(g12
S'\xce\x00\x00\x00\x00\x00\x00\x00'
p806
tp807
Rp808
sa(dp809
S'action'
p810
S'delete'
p811
sS'order'
p812
F1524090683.100697
sS'objid'
p813
g8
(g12
S'\xcd\x00\x00\x00\x00\x00\x00\x00'
p814
tp815
Rp816
sa(dp817
S'action'
p818
S'delete'
p819
sS'order'
p820
F1524090683.107379
sS'objid'
p821
g8
(g12
S'\xcc\x00\x00\x00\x00\x00\x00\x00'
p822
tp823
Rp824
sa(dp825
S'action'
p826
S'delete'
p827
sS'order'
p828
F1524090683.114114
sS'objid'
p829
g8
(g12
S'\xcb\x00\x00\x00\x00\x00\x00\x00'
p830
tp831
Rp832
sa(dp833
S'action'
p834
S'delete'
p835
sS'order'
p836
F1524090683.120855
sS'objid'
p837
g8
(g12
S'\xca\x00\x00\x00\x00\x00\x00\x00'
p838
tp839
Rp840
sa(dp841
S'action'
p842
S'delete'
p843
sS'order'
p844
F1524090683.127687
sS'objid'
p845
g8
(g12
S'\xc9\x00\x00\x00\x00\x00\x00\x00'
p846
tp847
Rp848
sa(dp849
S'action'
p850
S'delete'
p851
sS'order'
p852
F1524090683.134591
sS'objid'
p853
g8
(g12
S'\xc8\x00\x00\x00\x00\x00\x00\x00'
p854
tp855
Rp856
sa(dp857
S'action'
p858
S'delete'
p859
sS'order'
p860
F1524090683.141522
sS'objid'
p861
g8
(g12
S'\xc7\x00\x00\x00\x00\x00\x00\x00'
p862
tp863
Rp864
sa(dp865
S'action'
p866
S'delete'
p867
sS'order'
p868
F1524090683.148508
sS'objid'
p869
g8
(g12
S'\xc6\x00\x00\x00\x00\x00\x00\x00'
p870
tp871
Rp872
sa(dp873
S'action'
p874
S'delete'
p875
sS'order'
p876
F1524090683.155573
sS'objid'
p877
g8
(g12
S'\xc5\x00\x00\x00\x00\x00\x00\x00'
p878
tp879
Rp880
sa(dp881
S'action'
p882
S'delete'
p883
sS'order'
p884
F1524090683.16267
sS'objid'
p885
g8
(g12
S'\xc4\x00\x00\x00\x00\x00\x00\x00'
p886
tp887
Rp888
sa(dp889
S'action'
p890
S'delete'
p891
sS'order'
p892
F1524090683.169846
sS'objid'
p893
g8
(g12
S'\xc3\x00\x00\x00\x00\x00\x00\x00'
p894
tp895
Rp896
sa(dp897
S'action'
p898
S'delete'
p899
sS'order'
p900
F1524090683.17715
sS'objid'
p901
g8
(g12
S'\xc2\x00\x00\x00\x00\x00\x00\x00'
p902
tp903
Rp904
sa(dp905
S'action'
p906
S'delete'
p907
sS'order'
p908
F1524090683.184459
sS'objid'
p909
g8
(g12
S'\xc1\x00\x00\x00\x00\x00\x00\x00'
p910
tp911
Rp912
sa(dp913
S'action'
p914
S'delete'
p915
sS'order'
p916
F1524090683.191806
sS'objid'
p917
g8
(g12
S'\xc0\x00\x00\x00\x00\x00\x00\x00'
p918
tp919
Rp920
sa(dp921
S'action'
p922
S'delete'
p923
sS'order'
p924
F1524090683.1992
sS'objid'
p925
g8
(g12
S'\xbf\x00\x00\x00\x00\x00\x00\x00'
p926
tp927
Rp928
sa(dp929
S'action'
p930
S'delete'
p931
sS'order'
p932
F1524090683.206653
sS'objid'
p933
g8
(g12
S'\xbe\x00\x00\x00\x00\x00\x00\x00'
p934
tp935
Rp936
sa(dp937
S'action'
p938
S'delete'
p939
sS'order'
p940
F1524090683.214174
sS'objid'
p941
g8
(g12
S'\xbd\x00\x00\x00\x00\x00\x00\x00'
p942
tp943
Rp944
sa(dp945
S'action'
p946
S'delete'
p947
sS'order'
p948
F1524090683.221713
sS'objid'
p949
g8
(g12
S'\xbc\x00\x00\x00\x00\x00\x00\x00'
p950
tp951
Rp952
sa(dp953
S'action'
p954
S'delete'
p955
sS'order'
p956
F1524090683.229407
sS'objid'
p957
g8
(g12
S'\xbb\x00\x00\x00\x00\x00\x00\x00'
p958
tp959
Rp960
sa(dp961
S'action'
p962
S'delete'
p963
sS'order'
p964
F1524090683.237145
sS'objid'
p965
g8
(g12
S'\xba\x00\x00\x00\x00\x00\x00\x00'
p966
tp967
Rp968
sa(dp969
S'action'
p970
S'delete'
p971
sS'order'
p972
F1524090683.244911
sS'objid'
p973
g8
(g12
S'\xb9\x00\x00\x00\x00\x00\x00\x00'
p974
tp975
Rp976
sa(dp977
S'action'
p978
S'join'
p979
sS'data_to_add'
p980
(lp981
sS'order'
p982
F1524090701.027839
sS'new_objid'
p983
g8
(g12
S'+\x01\x00\x00\x00\x00\x00\x00'
p984
tp985
Rp986
sS'objids'
p987
(lp988
g8
(g12
S'*\x01\x00\x00\x00\x00\x00\x00'
p989
tp990
Rp991
ag8
(g12
S'#\x01\x00\x00\x00\x00\x00\x00'
p992
tp993
Rp994
asa(dp995
S'action'
p996
S'delete'
p997
sS'order'
p998
F1524090719.893013
sS'objid'
p999
g8
(g12
S'%\x01\x00\x00\x00\x00\x00\x00'
p1000
tp1001
Rp1002
sa(dp1003
S'action'
p1004
S'delete'
p1005
sS'order'
p1006
F1524090719.907332
sS'objid'
p1007
g8
(g12
S'!\x01\x00\x00\x00\x00\x00\x00'
p1008
tp1009
Rp1010
sa(dp1011
S'action'
p1012
S'delete'
p1013
sS'order'
p1014
F1524090719.91551
sS'objid'
p1015
g8
(g12
S'\xb7\x00\x00\x00\x00\x00\x00\x00'
p1016
tp1017
Rp1018
sa(dp1019
S'action'
p1020
S'delete'
p1021
sS'order'
p1022
F1524090719.924115
sS'objid'
p1023
g8
(g12
S'\xb6\x00\x00\x00\x00\x00\x00\x00'
p1024
tp1025
Rp1026
sa(dp1027
S'action'
p1028
S'delete'
p1029
sS'order'
p1030
F1524090719.932354
sS'objid'
p1031
g8
(g12
S'\xb5\x00\x00\x00\x00\x00\x00\x00'
p1032
tp1033
Rp1034
sa(dp1035
S'action'
p1036
S'delete'
p1037
sS'order'
p1038
F1524090719.940651
sS'objid'
p1039
g8
(g12
S'\xb4\x00\x00\x00\x00\x00\x00\x00'
p1040
tp1041
Rp1042
sa(dp1043
S'action'
p1044
S'delete'
p1045
sS'order'
p1046
F1524090719.948951
sS'objid'
p1047
g8
(g12
S'\xb3\x00\x00\x00\x00\x00\x00\x00'
p1048
tp1049
Rp1050
sa(dp1051
S'action'
p1052
S'delete'
p1053
sS'order'
p1054
F1524090719.957402
sS'objid'
p1055
g8
(g12
S'\xb2\x00\x00\x00\x00\x00\x00\x00'
p1056
tp1057
Rp1058
sa(dp1059
S'action'
p1060
S'delete'
p1061
sS'order'
p1062
F1524090719.965849
sS'objid'
p1063
g8
(g12
S'\xb1\x00\x00\x00\x00\x00\x00\x00'
p1064
tp1065
Rp1066
sa(dp1067
S'action'
p1068
S'delete'
p1069
sS'order'
p1070
F1524090719.974363
sS'objid'
p1071
g8
(g12
S'\xb0\x00\x00\x00\x00\x00\x00\x00'
p1072
tp1073
Rp1074
sa(dp1075
S'action'
p1076
S'delete'
p1077
sS'order'
p1078
F1524090719.982899
sS'objid'
p1079
g8
(g12
S'\xaf\x00\x00\x00\x00\x00\x00\x00'
p1080
tp1081
Rp1082
sa(dp1083
S'action'
p1084
S'delete'
p1085
sS'order'
p1086
F1524090719.991555
sS'objid'
p1087
g8
(g12
S'\xae\x00\x00\x00\x00\x00\x00\x00'
p1088
tp1089
Rp1090
sa(dp1091
S'action'
p1092
S'delete'
p1093
sS'order'
p1094
F1524090720.000235
sS'objid'
p1095
g8
(g12
S'\xad\x00\x00\x00\x00\x00\x00\x00'
p1096
tp1097
Rp1098
sa(dp1099
S'action'
p1100
S'delete'
p1101
sS'order'
p1102
F1524090720.008992
sS'objid'
p1103
g8
(g12
S'\xac\x00\x00\x00\x00\x00\x00\x00'
p1104
tp1105
Rp1106
sa(dp1107
S'action'
p1108
S'delete'
p1109
sS'order'
p1110
F1524090720.01778
sS'objid'
p1111
g8
(g12
S'\xab\x00\x00\x00\x00\x00\x00\x00'
p1112
tp1113
Rp1114
sa(dp1115
S'action'
p1116
S'delete'
p1117
sS'order'
p1118
F1524090720.026659
sS'objid'
p1119
g8
(g12
S'\xaa\x00\x00\x00\x00\x00\x00\x00'
p1120
tp1121
Rp1122
sa(dp1123
S'action'
p1124
S'delete'
p1125
sS'order'
p1126
F1524090720.035582
sS'objid'
p1127
g8
(g12
S'\xa9\x00\x00\x00\x00\x00\x00\x00'
p1128
tp1129
Rp1130
sa(dp1131
S'action'
p1132
S'delete'
p1133
sS'order'
p1134
F1524090720.044552
sS'objid'
p1135
g8
(g12
S'\xa8\x00\x00\x00\x00\x00\x00\x00'
p1136
tp1137
Rp1138
sa(dp1139
S'action'
p1140
S'delete'
p1141
sS'order'
p1142
F1524090720.053529
sS'objid'
p1143
g8
(g12
S'\xa7\x00\x00\x00\x00\x00\x00\x00'
p1144
tp1145
Rp1146
sa(dp1147
S'action'
p1148
S'delete'
p1149
sS'order'
p1150
F1524090720.062603
sS'objid'
p1151
g8
(g12
S'\xa6\x00\x00\x00\x00\x00\x00\x00'
p1152
tp1153
Rp1154
sa(dp1155
S'action'
p1156
S'delete'
p1157
sS'order'
p1158
F1524090720.071733
sS'objid'
p1159
g8
(g12
S'\xa5\x00\x00\x00\x00\x00\x00\x00'
p1160
tp1161
Rp1162
sa(dp1163
S'action'
p1164
S'delete'
p1165
sS'order'
p1166
F1524090720.080972
sS'objid'
p1167
g8
(g12
S'\xa4\x00\x00\x00\x00\x00\x00\x00'
p1168
tp1169
Rp1170
sa(dp1171
S'action'
p1172
S'delete'
p1173
sS'order'
p1174
F1524090720.090581
sS'objid'
p1175
g8
(g12
S'\xa3\x00\x00\x00\x00\x00\x00\x00'
p1176
tp1177
Rp1178
sa(dp1179
S'action'
p1180
S'delete'
p1181
sS'order'
p1182
F1524090720.099967
sS'objid'
p1183
g8
(g12
S'\xa2\x00\x00\x00\x00\x00\x00\x00'
p1184
tp1185
Rp1186
sa(dp1187
S'action'
p1188
S'delete'
p1189
sS'order'
p1190
F1524090720.109404
sS'objid'
p1191
g8
(g12
S'\xa1\x00\x00\x00\x00\x00\x00\x00'
p1192
tp1193
Rp1194
sa(dp1195
S'action'
p1196
S'delete'
p1197
sS'order'
p1198
F1524090720.118881
sS'objid'
p1199
g8
(g12
S'\x9f\x00\x00\x00\x00\x00\x00\x00'
p1200
tp1201
Rp1202
sa(dp1203
S'action'
p1204
S'delete'
p1205
sS'order'
p1206
F1524090720.128386
sS'objid'
p1207
g8
(g12
S'\x9e\x00\x00\x00\x00\x00\x00\x00'
p1208
tp1209
Rp1210
sa(dp1211
S'action'
p1212
S'delete'
p1213
sS'order'
p1214
F1524090720.137958
sS'objid'
p1215
g8
(g12
S'\x9d\x00\x00\x00\x00\x00\x00\x00'
p1216
tp1217
Rp1218
sa(dp1219
S'action'
p1220
S'delete'
p1221
sS'order'
p1222
F1524090720.147536
sS'objid'
p1223
g8
(g12
S'\x9c\x00\x00\x00\x00\x00\x00\x00'
p1224
tp1225
Rp1226
sa(dp1227
S'action'
p1228
S'delete'
p1229
sS'order'
p1230
F1524090720.157191
sS'objid'
p1231
g8
(g12
S'\x9b\x00\x00\x00\x00\x00\x00\x00'
p1232
tp1233
Rp1234
sa(dp1235
S'action'
p1236
S'delete'
p1237
sS'order'
p1238
F1524090720.16685
sS'objid'
p1239
g8
(g12
S'\x9a\x00\x00\x00\x00\x00\x00\x00'
p1240
tp1241
Rp1242
sa(dp1243
S'action'
p1244
S'delete'
p1245
sS'order'
p1246
F1524090720.176653
sS'objid'
p1247
g8
(g12
S'\x99\x00\x00\x00\x00\x00\x00\x00'
p1248
tp1249
Rp1250
sa(dp1251
S'action'
p1252
S'delete'
p1253
sS'order'
p1254
F1524090720.186475
sS'objid'
p1255
g8
(g12
S'\x98\x00\x00\x00\x00\x00\x00\x00'
p1256
tp1257
Rp1258
sa(dp1259
S'action'
p1260
S'delete'
p1261
sS'order'
p1262
F1524090720.196355
sS'objid'
p1263
g8
(g12
S'\x97\x00\x00\x00\x00\x00\x00\x00'
p1264
tp1265
Rp1266
sa(dp1267
S'action'
p1268
S'delete'
p1269
sS'order'
p1270
F1524090720.20628
sS'objid'
p1271
g8
(g12
S'\x96\x00\x00\x00\x00\x00\x00\x00'
p1272
tp1273
Rp1274
sa(dp1275
S'action'
p1276
S'delete'
p1277
sS'order'
p1278
F1524090720.216288
sS'objid'
p1279
g8
(g12
S'\x95\x00\x00\x00\x00\x00\x00\x00'
p1280
tp1281
Rp1282
sa(dp1283
S'action'
p1284
S'delete'
p1285
sS'order'
p1286
F1524090720.226297
sS'objid'
p1287
g8
(g12
S'\x94\x00\x00\x00\x00\x00\x00\x00'
p1288
tp1289
Rp1290
sa(dp1291
S'action'
p1292
S'delete'
p1293
sS'order'
p1294
F1524090720.236471
sS'objid'
p1295
g8
(g12
S'\x93\x00\x00\x00\x00\x00\x00\x00'
p1296
tp1297
Rp1298
sa(dp1299
S'action'
p1300
S'delete'
p1301
sS'order'
p1302
F1524090720.24665
sS'objid'
p1303
g8
(g12
S'\x92\x00\x00\x00\x00\x00\x00\x00'
p1304
tp1305
Rp1306
sa(dp1307
S'action'
p1308
S'delete'
p1309
sS'order'
p1310
F1524090720.256946
sS'objid'
p1311
g8
(g12
S'\x91\x00\x00\x00\x00\x00\x00\x00'
p1312
tp1313
Rp1314
sa(dp1315
S'action'
p1316
S'delete'
p1317
sS'order'
p1318
F1524090720.267198
sS'objid'
p1319
g8
(g12
S'\x90\x00\x00\x00\x00\x00\x00\x00'
p1320
tp1321
Rp1322
sa(dp1323
S'action'
p1324
S'delete'
p1325
sS'order'
p1326
F1524090720.27759
sS'objid'
p1327
g8
(g12
S'\x8f\x00\x00\x00\x00\x00\x00\x00'
p1328
tp1329
Rp1330
sa(dp1331
S'action'
p1332
S'delete'
p1333
sS'order'
p1334
F1524090720.288052
sS'objid'
p1335
g8
(g12
S'\x8e\x00\x00\x00\x00\x00\x00\x00'
p1336
tp1337
Rp1338
sa(dp1339
S'action'
p1340
S'delete'
p1341
sS'order'
p1342
F1524090720.298544
sS'objid'
p1343
g8
(g12
S'\x8d\x00\x00\x00\x00\x00\x00\x00'
p1344
tp1345
Rp1346
sa(dp1347
S'action'
p1348
S'delete'
p1349
sS'order'
p1350
F1524090720.309079
sS'objid'
p1351
g8
(g12
S'\x8c\x00\x00\x00\x00\x00\x00\x00'
p1352
tp1353
Rp1354
sa(dp1355
S'action'
p1356
S'delete'
p1357
sS'order'
p1358
F1524090720.319713
sS'objid'
p1359
g8
(g12
S'\x8b\x00\x00\x00\x00\x00\x00\x00'
p1360
tp1361
Rp1362
sa(dp1363
S'action'
p1364
S'delete'
p1365
sS'order'
p1366
F1524090720.330325
sS'objid'
p1367
g8
(g12
S'\x8a\x00\x00\x00\x00\x00\x00\x00'
p1368
tp1369
Rp1370
sa(dp1371
S'action'
p1372
S'delete'
p1373
sS'order'
p1374
F1524090720.341117
sS'objid'
p1375
g8
(g12
S'\x88\x00\x00\x00\x00\x00\x00\x00'
p1376
tp1377
Rp1378
sa(dp1379
S'action'
p1380
S'delete'
p1381
sS'order'
p1382
F1524090720.35193
sS'objid'
p1383
g8
(g12
S'\x87\x00\x00\x00\x00\x00\x00\x00'
p1384
tp1385
Rp1386
sa(dp1387
S'action'
p1388
S'delete'
p1389
sS'order'
p1390
F1524090720.362801
sS'objid'
p1391
g8
(g12
S'\x86\x00\x00\x00\x00\x00\x00\x00'
p1392
tp1393
Rp1394
sa(dp1395
S'action'
p1396
S'delete'
p1397
sS'order'
p1398
F1524090720.373746
sS'objid'
p1399
g8
(g12
S'\x84\x00\x00\x00\x00\x00\x00\x00'
p1400
tp1401
Rp1402
sa(dp1403
S'action'
p1404
S'delete'
p1405
sS'order'
p1406
F1524090720.384808
sS'objid'
p1407
g8
(g12
S'\x83\x00\x00\x00\x00\x00\x00\x00'
p1408
tp1409
Rp1410
sa(dp1411
S'action'
p1412
S'delete'
p1413
sS'order'
p1414
F1524090720.395872
sS'objid'
p1415
g8
(g12
S'\x82\x00\x00\x00\x00\x00\x00\x00'
p1416
tp1417
Rp1418
sa(dp1419
S'action'
p1420
S'delete'
p1421
sS'order'
p1422
F1524090720.406954
sS'objid'
p1423
g8
(g12
S'\x81\x00\x00\x00\x00\x00\x00\x00'
p1424
tp1425
Rp1426
sa(dp1427
S'action'
p1428
S'delete'
p1429
sS'order'
p1430
F1524090720.418081
sS'objid'
p1431
g8
(g12
S'\x80\x00\x00\x00\x00\x00\x00\x00'
p1432
tp1433
Rp1434
sa(dp1435
S'action'
p1436
S'delete'
p1437
sS'order'
p1438
F1524090720.429338
sS'objid'
p1439
g8
(g12
S'\x7f\x00\x00\x00\x00\x00\x00\x00'
p1440
tp1441
Rp1442
sa(dp1443
S'action'
p1444
S'delete'
p1445
sS'order'
p1446
F1524090720.440642
sS'objid'
p1447
g8
(g12
S'~\x00\x00\x00\x00\x00\x00\x00'
p1448
tp1449
Rp1450
sa(dp1451
S'action'
p1452
S'delete'
p1453
sS'order'
p1454
F1524090720.452028
sS'objid'
p1455
g8
(g12
S'}\x00\x00\x00\x00\x00\x00\x00'
p1456
tp1457
Rp1458
sa(dp1459
S'action'
p1460
S'delete'
p1461
sS'order'
p1462
F1524090720.463382
sS'objid'
p1463
g8
(g12
S'|\x00\x00\x00\x00\x00\x00\x00'
p1464
tp1465
Rp1466
sa(dp1467
S'action'
p1468
S'delete'
p1469
sS'order'
p1470
F1524090720.474851
sS'objid'
p1471
g8
(g12
S'{\x00\x00\x00\x00\x00\x00\x00'
p1472
tp1473
Rp1474
sa(dp1475
S'action'
p1476
S'delete'
p1477
sS'order'
p1478
F1524090720.486381
sS'objid'
p1479
g8
(g12
S'z\x00\x00\x00\x00\x00\x00\x00'
p1480
tp1481
Rp1482
sa(dp1483
S'action'
p1484
S'delete'
p1485
sS'order'
p1486
F1524090720.49796
sS'objid'
p1487
g8
(g12
S'y\x00\x00\x00\x00\x00\x00\x00'
p1488
tp1489
Rp1490
sa(dp1491
S'action'
p1492
S'delete'
p1493
sS'order'
p1494
F1524090720.509584
sS'objid'
p1495
g8
(g12
S'x\x00\x00\x00\x00\x00\x00\x00'
p1496
tp1497
Rp1498
sa(dp1499
S'action'
p1500
S'delete'
p1501
sS'order'
p1502
F1524090720.521233
sS'objid'
p1503
g8
(g12
S'w\x00\x00\x00\x00\x00\x00\x00'
p1504
tp1505
Rp1506
sa(dp1507
S'action'
p1508
S'delete'
p1509
sS'order'
p1510
F1524090720.532967
sS'objid'
p1511
g8
(g12
S'v\x00\x00\x00\x00\x00\x00\x00'
p1512
tp1513
Rp1514
sa(dp1515
S'action'
p1516
S'delete'
p1517
sS'order'
p1518
F1524090720.544716
sS'objid'
p1519
g8
(g12
S'u\x00\x00\x00\x00\x00\x00\x00'
p1520
tp1521
Rp1522
sa(dp1523
S'action'
p1524
S'delete'
p1525
sS'order'
p1526
F1524090720.556564
sS'objid'
p1527
g8
(g12
S't\x00\x00\x00\x00\x00\x00\x00'
p1528
tp1529
Rp1530
sa(dp1531
S'action'
p1532
S'delete'
p1533
sS'order'
p1534
F1524090720.568447
sS'objid'
p1535
g8
(g12
S's\x00\x00\x00\x00\x00\x00\x00'
p1536
tp1537
Rp1538
sa(dp1539
S'action'
p1540
S'delete'
p1541
sS'order'
p1542
F1524090720.580394
sS'objid'
p1543
g8
(g12
S'r\x00\x00\x00\x00\x00\x00\x00'
p1544
tp1545
Rp1546
sa(dp1547
S'action'
p1548
S'delete'
p1549
sS'order'
p1550
F1524090720.592472
sS'objid'
p1551
g8
(g12
S'q\x00\x00\x00\x00\x00\x00\x00'
p1552
tp1553
Rp1554
sa(dp1555
S'action'
p1556
S'delete'
p1557
sS'order'
p1558
F1524090720.604538
sS'objid'
p1559
g8
(g12
S'p\x00\x00\x00\x00\x00\x00\x00'
p1560
tp1561
Rp1562
sa(dp1563
S'action'
p1564
S'delete'
p1565
sS'order'
p1566
F1524090720.61672
sS'objid'
p1567
g8
(g12
S'o\x00\x00\x00\x00\x00\x00\x00'
p1568
tp1569
Rp1570
sa(dp1571
S'action'
p1572
S'delete'
p1573
sS'order'
p1574
F1524090720.628899
sS'objid'
p1575
g8
(g12
S'n\x00\x00\x00\x00\x00\x00\x00'
p1576
tp1577
Rp1578
sa(dp1579
S'action'
p1580
S'delete'
p1581
sS'order'
p1582
F1524090720.641134
sS'objid'
p1583
g8
(g12
S'm\x00\x00\x00\x00\x00\x00\x00'
p1584
tp1585
Rp1586
sa(dp1587
S'action'
p1588
S'delete'
p1589
sS'order'
p1590
F1524090720.65343
sS'objid'
p1591
g8
(g12
S'l\x00\x00\x00\x00\x00\x00\x00'
p1592
tp1593
Rp1594
sa(dp1595
S'action'
p1596
S'delete'
p1597
sS'order'
p1598
F1524090720.665815
sS'objid'
p1599
g8
(g12
S'k\x00\x00\x00\x00\x00\x00\x00'
p1600
tp1601
Rp1602
sa(dp1603
S'action'
p1604
S'delete'
p1605
sS'order'
p1606
F1524090720.678188
sS'objid'
p1607
g8
(g12
S'i\x00\x00\x00\x00\x00\x00\x00'
p1608
tp1609
Rp1610
sa(dp1611
S'action'
p1612
S'delete'
p1613
sS'order'
p1614
F1524090720.690697
sS'objid'
p1615
g8
(g12
S'h\x00\x00\x00\x00\x00\x00\x00'
p1616
tp1617
Rp1618
sa(dp1619
S'action'
p1620
S'delete'
p1621
sS'order'
p1622
F1524090720.703242
sS'objid'
p1623
g8
(g12
S'g\x00\x00\x00\x00\x00\x00\x00'
p1624
tp1625
Rp1626
sa(dp1627
S'action'
p1628
S'delete'
p1629
sS'order'
p1630
F1524090720.715929
sS'objid'
p1631
g8
(g12
S'f\x00\x00\x00\x00\x00\x00\x00'
p1632
tp1633
Rp1634
sa(dp1635
S'action'
p1636
S'delete'
p1637
sS'order'
p1638
F1524090720.72864
sS'objid'
p1639
g8
(g12
S'e\x00\x00\x00\x00\x00\x00\x00'
p1640
tp1641
Rp1642
sa(dp1643
S'action'
p1644
S'delete'
p1645
sS'order'
p1646
F1524090720.741462
sS'objid'
p1647
g8
(g12
S'd\x00\x00\x00\x00\x00\x00\x00'
p1648
tp1649
Rp1650
sa(dp1651
S'action'
p1652
S'delete'
p1653
sS'order'
p1654
F1524090720.754229
sS'objid'
p1655
g8
(g12
S'c\x00\x00\x00\x00\x00\x00\x00'
p1656
tp1657
Rp1658
sa(dp1659
S'action'
p1660
S'delete'
p1661
sS'order'
p1662
F1524090720.767068
sS'objid'
p1663
g8
(g12
S'b\x00\x00\x00\x00\x00\x00\x00'
p1664
tp1665
Rp1666
sa(dp1667
S'action'
p1668
S'delete'
p1669
sS'order'
p1670
F1524090731.740803
sS'objid'
p1671
g8
(g12
S'a\x00\x00\x00\x00\x00\x00\x00'
p1672
tp1673
Rp1674
sa(dp1675
S'action'
p1676
S'delete'
p1677
sS'order'
p1678
F1524090731.758522
sS'objid'
p1679
g8
(g12
S'`\x00\x00\x00\x00\x00\x00\x00'
p1680
tp1681
Rp1682
sa(dp1683
S'action'
p1684
S'delete'
p1685
sS'order'
p1686
F1524090731.772796
sS'objid'
p1687
g8
(g12
S'_\x00\x00\x00\x00\x00\x00\x00'
p1688
tp1689
Rp1690
sa(dp1691
S'action'
p1692
S'delete'
p1693
sS'order'
p1694
F1524090731.78596
sS'objid'
p1695
g8
(g12
S'^\x00\x00\x00\x00\x00\x00\x00'
p1696
tp1697
Rp1698
sa(dp1699
S'action'
p1700
S'delete'
p1701
sS'order'
p1702
F1524090731.799072
sS'objid'
p1703
g8
(g12
S']\x00\x00\x00\x00\x00\x00\x00'
p1704
tp1705
Rp1706
sa(dp1707
S'action'
p1708
S'delete'
p1709
sS'order'
p1710
F1524090731.812276
sS'objid'
p1711
g8
(g12
S'\\\x00\x00\x00\x00\x00\x00\x00'
p1712
tp1713
Rp1714
sa(dp1715
S'action'
p1716
S'delete'
p1717
sS'order'
p1718
F1524090731.825508
sS'objid'
p1719
g8
(g12
S'[\x00\x00\x00\x00\x00\x00\x00'
p1720
tp1721
Rp1722
sa(dp1723
S'action'
p1724
S'delete'
p1725
sS'order'
p1726
F1524090731.838773
sS'objid'
p1727
g8
(g12
S'Z\x00\x00\x00\x00\x00\x00\x00'
p1728
tp1729
Rp1730
sa(dp1731
S'action'
p1732
S'delete'
p1733
sS'order'
p1734
F1524090731.852101
sS'objid'
p1735
g8
(g12
S'Y\x00\x00\x00\x00\x00\x00\x00'
p1736
tp1737
Rp1738
sa(dp1739
S'action'
p1740
S'delete'
p1741
sS'order'
p1742
F1524090731.865551
sS'objid'
p1743
g8
(g12
S'W\x00\x00\x00\x00\x00\x00\x00'
p1744
tp1745
Rp1746
sa(dp1747
S'action'
p1748
S'delete'
p1749
sS'order'
p1750
F1524090731.879006
sS'objid'
p1751
g8
(g12
S'V\x00\x00\x00\x00\x00\x00\x00'
p1752
tp1753
Rp1754
sa(dp1755
S'action'
p1756
S'delete'
p1757
sS'order'
p1758
F1524090731.892478
sS'objid'
p1759
g8
(g12
S'U\x00\x00\x00\x00\x00\x00\x00'
p1760
tp1761
Rp1762
sa(dp1763
S'action'
p1764
S'delete'
p1765
sS'order'
p1766
F1524090731.906037
sS'objid'
p1767
g8
(g12
S'T\x00\x00\x00\x00\x00\x00\x00'
p1768
tp1769
Rp1770
sa(dp1771
S'action'
p1772
S'delete'
p1773
sS'order'
p1774
F1524090731.919624
sS'objid'
p1775
g8
(g12
S'S\x00\x00\x00\x00\x00\x00\x00'
p1776
tp1777
Rp1778
sa(dp1779
S'action'
p1780
S'delete'
p1781
sS'order'
p1782
F1524090731.933361
sS'objid'
p1783
g8
(g12
S'R\x00\x00\x00\x00\x00\x00\x00'
p1784
tp1785
Rp1786
sa(dp1787
S'action'
p1788
S'delete'
p1789
sS'order'
p1790
F1524090731.947113
sS'objid'
p1791
g8
(g12
S'Q\x00\x00\x00\x00\x00\x00\x00'
p1792
tp1793
Rp1794
sa(dp1795
S'action'
p1796
S'delete'
p1797
sS'order'
p1798
F1524090731.960902
sS'objid'
p1799
g8
(g12
S'P\x00\x00\x00\x00\x00\x00\x00'
p1800
tp1801
Rp1802
sa(dp1803
S'action'
p1804
S'delete'
p1805
sS'order'
p1806
F1524090731.974764
sS'objid'
p1807
g8
(g12
S'O\x00\x00\x00\x00\x00\x00\x00'
p1808
tp1809
Rp1810
sa(dp1811
S'action'
p1812
S'delete'
p1813
sS'order'
p1814
F1524090731.98866
sS'objid'
p1815
g8
(g12
S'N\x00\x00\x00\x00\x00\x00\x00'
p1816
tp1817
Rp1818
sa(dp1819
S'action'
p1820
S'delete'
p1821
sS'order'
p1822
F1524090732.0026
sS'objid'
p1823
g8
(g12
S'M\x00\x00\x00\x00\x00\x00\x00'
p1824
tp1825
Rp1826
sa(dp1827
S'action'
p1828
S'delete'
p1829
sS'order'
p1830
F1524090732.01664
sS'objid'
p1831
g8
(g12
S'L\x00\x00\x00\x00\x00\x00\x00'
p1832
tp1833
Rp1834
sa(dp1835
S'action'
p1836
S'delete'
p1837
sS'order'
p1838
F1524090732.030711
sS'objid'
p1839
g8
(g12
S'K\x00\x00\x00\x00\x00\x00\x00'
p1840
tp1841
Rp1842
sa(dp1843
S'action'
p1844
S'delete'
p1845
sS'order'
p1846
F1524090732.044919
sS'objid'
p1847
g8
(g12
S'I\x00\x00\x00\x00\x00\x00\x00'
p1848
tp1849
Rp1850
sa(dp1851
S'action'
p1852
S'delete'
p1853
sS'order'
p1854
F1524090732.059133
sS'objid'
p1855
g8
(g12
S'H\x00\x00\x00\x00\x00\x00\x00'
p1856
tp1857
Rp1858
sa(dp1859
S'action'
p1860
S'delete'
p1861
sS'order'
p1862
F1524090732.073358
sS'objid'
p1863
g8
(g12
S'G\x00\x00\x00\x00\x00\x00\x00'
p1864
tp1865
Rp1866
sa(dp1867
S'action'
p1868
S'delete'
p1869
sS'order'
p1870
F1524090732.087646
sS'objid'
p1871
g8
(g12
S'E\x00\x00\x00\x00\x00\x00\x00'
p1872
tp1873
Rp1874
sa(dp1875
S'action'
p1876
S'delete'
p1877
sS'order'
p1878
F1524090732.102006
sS'objid'
p1879
g8
(g12
S'D\x00\x00\x00\x00\x00\x00\x00'
p1880
tp1881
Rp1882
sa(dp1883
S'action'
p1884
S'delete'
p1885
sS'order'
p1886
F1524090732.116428
sS'objid'
p1887
g8
(g12
S'C\x00\x00\x00\x00\x00\x00\x00'
p1888
tp1889
Rp1890
sa(dp1891
S'action'
p1892
S'delete'
p1893
sS'order'
p1894
F1524090732.130896
sS'objid'
p1895
g8
(g12
S'B\x00\x00\x00\x00\x00\x00\x00'
p1896
tp1897
Rp1898
sa(dp1899
S'action'
p1900
S'delete'
p1901
sS'order'
p1902
F1524090732.145487
sS'objid'
p1903
g8
(g12
S'A\x00\x00\x00\x00\x00\x00\x00'
p1904
tp1905
Rp1906
sa(dp1907
S'action'
p1908
S'delete'
p1909
sS'order'
p1910
F1524090732.160091
sS'objid'
p1911
g8
(g12
S'@\x00\x00\x00\x00\x00\x00\x00'
p1912
tp1913
Rp1914
sa(dp1915
S'action'
p1916
S'delete'
p1917
sS'order'
p1918
F1524090732.174804
sS'objid'
p1919
g8
(g12
S'>\x00\x00\x00\x00\x00\x00\x00'
p1920
tp1921
Rp1922
sa(dp1923
S'action'
p1924
S'delete'
p1925
sS'order'
p1926
F1524090732.189542
sS'objid'
p1927
g8
(g12
S'=\x00\x00\x00\x00\x00\x00\x00'
p1928
tp1929
Rp1930
sa(dp1931
S'action'
p1932
S'delete'
p1933
sS'order'
p1934
F1524090732.204418
sS'objid'
p1935
g8
(g12
S'<\x00\x00\x00\x00\x00\x00\x00'
p1936
tp1937
Rp1938
sa(dp1939
S'action'
p1940
S'delete'
p1941
sS'order'
p1942
F1524090732.219243
sS'objid'
p1943
g8
(g12
S';\x00\x00\x00\x00\x00\x00\x00'
p1944
tp1945
Rp1946
sa(dp1947
S'action'
p1948
S'delete'
p1949
sS'order'
p1950
F1524090732.234089
sS'objid'
p1951
g8
(g12
S':\x00\x00\x00\x00\x00\x00\x00'
p1952
tp1953
Rp1954
sa(dp1955
S'action'
p1956
S'delete'
p1957
sS'order'
p1958
F1524090732.249069
sS'objid'
p1959
g8
(g12
S'9\x00\x00\x00\x00\x00\x00\x00'
p1960
tp1961
Rp1962
sa(dp1963
S'action'
p1964
S'delete'
p1965
sS'order'
p1966
F1524090732.264014
sS'objid'
p1967
g8
(g12
S'8\x00\x00\x00\x00\x00\x00\x00'
p1968
tp1969
Rp1970
sa(dp1971
S'action'
p1972
S'delete'
p1973
sS'order'
p1974
F1524090732.279089
sS'objid'
p1975
g8
(g12
S'7\x00\x00\x00\x00\x00\x00\x00'
p1976
tp1977
Rp1978
sa(dp1979
S'action'
p1980
S'delete'
p1981
sS'order'
p1982
F1524090732.294309
sS'objid'
p1983
g8
(g12
S'6\x00\x00\x00\x00\x00\x00\x00'
p1984
tp1985
Rp1986
sa(dp1987
S'action'
p1988
S'delete'
p1989
sS'order'
p1990
F1524090732.309516
sS'objid'
p1991
g8
(g12
S'5\x00\x00\x00\x00\x00\x00\x00'
p1992
tp1993
Rp1994
sa(dp1995
S'action'
p1996
S'delete'
p1997
sS'order'
p1998
F1524090732.324744
sS'objid'
p1999
g8
(g12
S'4\x00\x00\x00\x00\x00\x00\x00'
p2000
tp2001
Rp2002
sa(dp2003
S'action'
p2004
S'delete'
p2005
sS'order'
p2006
F1524090732.340071
sS'objid'
p2007
g8
(g12
S'3\x00\x00\x00\x00\x00\x00\x00'
p2008
tp2009
Rp2010
sa(dp2011
S'action'
p2012
S'delete'
p2013
sS'order'
p2014
F1524090732.35537
sS'objid'
p2015
g8
(g12
S'2\x00\x00\x00\x00\x00\x00\x00'
p2016
tp2017
Rp2018
sa(dp2019
S'action'
p2020
S'delete'
p2021
sS'order'
p2022
F1524090732.370723
sS'objid'
p2023
g8
(g12
S'1\x00\x00\x00\x00\x00\x00\x00'
p2024
tp2025
Rp2026
sa(dp2027
S'action'
p2028
S'delete'
p2029
sS'order'
p2030
F1524090732.386167
sS'objid'
p2031
g8
(g12
S'0\x00\x00\x00\x00\x00\x00\x00'
p2032
tp2033
Rp2034
sa(dp2035
S'action'
p2036
S'delete'
p2037
sS'order'
p2038
F1524090732.401674
sS'objid'
p2039
g8
(g12
S'/\x00\x00\x00\x00\x00\x00\x00'
p2040
tp2041
Rp2042
sa(dp2043
S'action'
p2044
S'delete'
p2045
sS'order'
p2046
F1524090732.417211
sS'objid'
p2047
g8
(g12
S'.\x00\x00\x00\x00\x00\x00\x00'
p2048
tp2049
Rp2050
sa(dp2051
S'action'
p2052
S'delete'
p2053
sS'order'
p2054
F1524090732.432807
sS'objid'
p2055
g8
(g12
S'-\x00\x00\x00\x00\x00\x00\x00'
p2056
tp2057
Rp2058
sa(dp2059
S'action'
p2060
S'delete'
p2061
sS'order'
p2062
F1524090732.448475
sS'objid'
p2063
g8
(g12
S',\x00\x00\x00\x00\x00\x00\x00'
p2064
tp2065
Rp2066
sa(dp2067
S'action'
p2068
S'delete'
p2069
sS'order'
p2070
F1524090732.464233
sS'objid'
p2071
g8
(g12
S'+\x00\x00\x00\x00\x00\x00\x00'
p2072
tp2073
Rp2074
sa(dp2075
S'action'
p2076
S'delete'
p2077
sS'order'
p2078
F1524090732.480043
sS'objid'
p2079
g8
(g12
S'*\x00\x00\x00\x00\x00\x00\x00'
p2080
tp2081
Rp2082
sa(dp2083
S'action'
p2084
S'delete'
p2085
sS'order'
p2086
F1524090732.495909
sS'objid'
p2087
g8
(g12
S')\x00\x00\x00\x00\x00\x00\x00'
p2088
tp2089
Rp2090
sa(dp2091
S'action'
p2092
S'delete'
p2093
sS'order'
p2094
F1524090732.511822
sS'objid'
p2095
g8
(g12
S'(\x00\x00\x00\x00\x00\x00\x00'
p2096
tp2097
Rp2098
sa(dp2099
S'action'
p2100
S'delete'
p2101
sS'order'
p2102
F1524090732.527804
sS'objid'
p2103
g8
(g12
S"'\x00\x00\x00\x00\x00\x00\x00"
p2104
tp2105
Rp2106
sa(dp2107
S'action'
p2108
S'delete'
p2109
sS'order'
p2110
F1524090732.543836
sS'objid'
p2111
g8
(g12
S'&\x00\x00\x00\x00\x00\x00\x00'
p2112
tp2113
Rp2114
sa(dp2115
S'action'
p2116
S'delete'
p2117
sS'order'
p2118
F1524090732.560149
sS'objid'
p2119
g8
(g12
S'%\x00\x00\x00\x00\x00\x00\x00'
p2120
tp2121
Rp2122
sa(dp2123
S'action'
p2124
S'delete'
p2125
sS'order'
p2126
F1524090732.576273
sS'objid'
p2127
g8
(g12
S'$\x00\x00\x00\x00\x00\x00\x00'
p2128
tp2129
Rp2130
sa(dp2131
S'action'
p2132
S'delete'
p2133
sS'order'
p2134
F1524090732.592499
sS'objid'
p2135
g8
(g12
S'"\x00\x00\x00\x00\x00\x00\x00'
p2136
tp2137
Rp2138
sa(dp2139
S'action'
p2140
S'delete'
p2141
sS'order'
p2142
F1524090732.60874
sS'objid'
p2143
g8
(g12
S'!\x00\x00\x00\x00\x00\x00\x00'
p2144
tp2145
Rp2146
sa(dp2147
S'action'
p2148
S'delete'
p2149
sS'order'
p2150
F1524090732.625054
sS'objid'
p2151
g8
(g12
S' \x00\x00\x00\x00\x00\x00\x00'
p2152
tp2153
Rp2154
sa(dp2155
S'action'
p2156
S'delete'
p2157
sS'order'
p2158
F1524090732.641397
sS'objid'
p2159
g8
(g12
S'\x1f\x00\x00\x00\x00\x00\x00\x00'
p2160
tp2161
Rp2162
sa(dp2163
S'action'
p2164
S'delete'
p2165
sS'order'
p2166
F1524090732.657849
sS'objid'
p2167
g8
(g12
S'\x1e\x00\x00\x00\x00\x00\x00\x00'
p2168
tp2169
Rp2170
sa(dp2171
S'action'
p2172
S'delete'
p2173
sS'order'
p2174
F1524090732.674297
sS'objid'
p2175
g8
(g12
S'\x1d\x00\x00\x00\x00\x00\x00\x00'
p2176
tp2177
Rp2178
sa(dp2179
S'action'
p2180
S'delete'
p2181
sS'order'
p2182
F1524090732.690814
sS'objid'
p2183
g8
(g12
S'\x1c\x00\x00\x00\x00\x00\x00\x00'
p2184
tp2185
Rp2186
sa(dp2187
S'action'
p2188
S'delete'
p2189
sS'order'
p2190
F1524090732.707442
sS'objid'
p2191
g8
(g12
S'\x1a\x00\x00\x00\x00\x00\x00\x00'
p2192
tp2193
Rp2194
sa(dp2195
S'action'
p2196
S'delete'
p2197
sS'order'
p2198
F1524090732.724123
sS'objid'
p2199
g8
(g12
S'\x19\x00\x00\x00\x00\x00\x00\x00'
p2200
tp2201
Rp2202
sa(dp2203
S'action'
p2204
S'delete'
p2205
sS'order'
p2206
F1524090732.740792
sS'objid'
p2207
g8
(g12
S'\x17\x00\x00\x00\x00\x00\x00\x00'
p2208
tp2209
Rp2210
sa(dp2211
S'action'
p2212
S'delete'
p2213
sS'order'
p2214
F1524090732.757518
sS'objid'
p2215
g8
(g12
S'\x16\x00\x00\x00\x00\x00\x00\x00'
p2216
tp2217
Rp2218
sa(dp2219
S'action'
p2220
S'delete'
p2221
sS'order'
p2222
F1524090732.774499
sS'objid'
p2223
g8
(g12
S'\x15\x00\x00\x00\x00\x00\x00\x00'
p2224
tp2225
Rp2226
sa(dp2227
S'action'
p2228
S'delete'
p2229
sS'order'
p2230
F1524090740.676685
sS'objid'
p2231
g8
(g12
S'\x14\x00\x00\x00\x00\x00\x00\x00'
p2232
tp2233
Rp2234
sa(dp2235
S'action'
p2236
S'delete'
p2237
sS'order'
p2238
F1524090740.699033
sS'objid'
p2239
g8
(g12
S'\x13\x00\x00\x00\x00\x00\x00\x00'
p2240
tp2241
Rp2242
sa(dp2243
S'action'
p2244
S'delete'
p2245
sS'order'
p2246
F1524090740.717274
sS'objid'
p2247
g8
(g12
S'\x12\x00\x00\x00\x00\x00\x00\x00'
p2248
tp2249
Rp2250
sa(dp2251
S'action'
p2252
S'delete'
p2253
sS'order'
p2254
F1524090740.734554
sS'objid'
p2255
g8
(g12
S'\x11\x00\x00\x00\x00\x00\x00\x00'
p2256
tp2257
Rp2258
sa(dp2259
S'action'
p2260
S'delete'
p2261
sS'order'
p2262
F1524090740.751957
sS'objid'
p2263
g8
(g12
S'\x10\x00\x00\x00\x00\x00\x00\x00'
p2264
tp2265
Rp2266
sa(dp2267
S'action'
p2268
S'delete'
p2269
sS'order'
p2270
F1524090740.769427
sS'objid'
p2271
g8
(g12
S'\x0f\x00\x00\x00\x00\x00\x00\x00'
p2272
tp2273
Rp2274
sa(dp2275
S'action'
p2276
S'delete'
p2277
sS'order'
p2278
F1524090740.786986
sS'objid'
p2279
g8
(g12
S'\x0e\x00\x00\x00\x00\x00\x00\x00'
p2280
tp2281
Rp2282
sa(dp2283
S'action'
p2284
S'delete'
p2285
sS'order'
p2286
F1524090740.804493
sS'objid'
p2287
g8
(g12
S'\r\x00\x00\x00\x00\x00\x00\x00'
p2288
tp2289
Rp2290
sa(dp2291
S'action'
p2292
S'delete'
p2293
sS'order'
p2294
F1524090740.822097
sS'objid'
p2295
g8
(g12
S'\x0c\x00\x00\x00\x00\x00\x00\x00'
p2296
tp2297
Rp2298
sa(dp2299
S'action'
p2300
S'delete'
p2301
sS'order'
p2302
F1524090740.839682
sS'objid'
p2303
g8
(g12
S'\x0b\x00\x00\x00\x00\x00\x00\x00'
p2304
tp2305
Rp2306
sa(dp2307
S'action'
p2308
S'delete'
p2309
sS'order'
p2310
F1524090740.857319
sS'objid'
p2311
g8
(g12
S'\n\x00\x00\x00\x00\x00\x00\x00'
p2312
tp2313
Rp2314
sa(dp2315
S'action'
p2316
S'delete'
p2317
sS'order'
p2318
F1524090740.875082
sS'objid'
p2319
g8
(g12
S'\t\x00\x00\x00\x00\x00\x00\x00'
p2320
tp2321
Rp2322
sa(dp2323
S'action'
p2324
S'delete'
p2325
sS'order'
p2326
F1524090740.892918
sS'objid'
p2327
g8
(g12
S'\x08\x00\x00\x00\x00\x00\x00\x00'
p2328
tp2329
Rp2330
sa(dp2331
S'action'
p2332
S'delete'
p2333
sS'order'
p2334
F1524090740.910838
sS'objid'
p2335
g8
(g12
S'\x07\x00\x00\x00\x00\x00\x00\x00'
p2336
tp2337
Rp2338
sa(dp2339
S'action'
p2340
S'delete'
p2341
sS'order'
p2342
F1524090740.928747
sS'objid'
p2343
g8
(g12
S'\x06\x00\x00\x00\x00\x00\x00\x00'
p2344
tp2345
Rp2346
sa(dp2347
S'action'
p2348
S'delete'
p2349
sS'order'
p2350
F1524090740.946662
sS'objid'
p2351
g8
(g12
S'\x05\x00\x00\x00\x00\x00\x00\x00'
p2352
tp2353
Rp2354
sa(dp2355
S'action'
p2356
S'delete'
p2357
sS'order'
p2358
F1524090740.964753
sS'objid'
p2359
g8
(g12
S'\x04\x00\x00\x00\x00\x00\x00\x00'
p2360
tp2361
Rp2362
sa(dp2363
S'action'
p2364
S'delete'
p2365
sS'order'
p2366
F1524090740.982826
sS'objid'
p2367
g8
(g12
S'\x03\x00\x00\x00\x00\x00\x00\x00'
p2368
tp2369
Rp2370
sa(dp2371
S'action'
p2372
S'delete'
p2373
sS'order'
p2374
F1524090741.001025
sS'objid'
p2375
g8
(g12
S'\x02\x00\x00\x00\x00\x00\x00\x00'
p2376
tp2377
Rp2378
sa(dp2379
S'action'
p2380
S'delete'
p2381
sS'order'
p2382
F1524090741.019206
sS'objid'
p2383
g8
(g12
S'\x01\x00\x00\x00\x00\x00\x00\x00'
p2384
tp2385
Rp2386
sa.