(lp0
(dp1
S'action'
p2
S'join'
p3
sS'data_to_add'
p4
(lp5
sS'order'
p6
F1523896735.151091
sS'new_objid'
p7
cnumpy.core.multiarray
scalar
p8
(cnumpy
dtype
p9
(S'i8'
p10
I0
I1
tp11
Rp12
(I3
S'<'
p13
NNNI-1
I-1
I0
tp14
bS'\x1c\x00\x00\x00\x00\x00\x00\x00'
p15
tp16
Rp17
sS'objids'
p18
(lp19
g8
(g12
S'\x01\x00\x00\x00\x00\x00\x00\x00'
p20
tp21
Rp22
ag8
(g12
S'\x00\x00\x00\x00\x00\x00\x00\x00'
p23
tp24
Rp25
asa(dp26
S'action'
p27
S'join'
p28
sS'data_to_add'
p29
(lp30
sS'order'
p31
F1523896741.906887
sS'new_objid'
p32
g8
(g12
S'\x1d\x00\x00\x00\x00\x00\x00\x00'
p33
tp34
Rp35
sS'objids'
p36
(lp37
g8
(g12
S'\x05\x00\x00\x00\x00\x00\x00\x00'
p38
tp39
Rp40
ag8
(g12
S'\x1c\x00\x00\x00\x00\x00\x00\x00'
p41
tp42
Rp43
asa(dp44
S'action'
p45
S'join'
p46
sS'data_to_add'
p47
(lp48
sS'order'
p49
F1523896751.947386
sS'new_objid'
p50
g8
(g12
S'\x1e\x00\x00\x00\x00\x00\x00\x00'
p51
tp52
Rp53
sS'objids'
p54
(lp55
g8
(g12
S'\x11\x00\x00\x00\x00\x00\x00\x00'
p56
tp57
Rp58
ag8
(g12
S'\x1d\x00\x00\x00\x00\x00\x00\x00'
p59
tp60
Rp61
asa(dp62
S'action'
p63
S'delete'
p64
sS'order'
p65
F1523896758.398864
sS'objid'
p66
g8
(g12
S'\x10\x00\x00\x00\x00\x00\x00\x00'
p67
tp68
Rp69
sa(dp70
S'action'
p71
S'delete'
p72
sS'order'
p73
F1523896758.400797
sS'objid'
p74
g8
(g12
S'\x0f\x00\x00\x00\x00\x00\x00\x00'
p75
tp76
Rp77
sa(dp78
S'action'
p79
S'delete'
p80
sS'order'
p81
F1523896758.402576
sS'objid'
p82
g8
(g12
S'\x0e\x00\x00\x00\x00\x00\x00\x00'
p83
tp84
Rp85
sa(dp86
S'action'
p87
S'delete'
p88
sS'order'
p89
F1523896758.404425
sS'objid'
p90
g8
(g12
S'\r\x00\x00\x00\x00\x00\x00\x00'
p91
tp92
Rp93
sa(dp94
S'action'
p95
S'delete'
p96
sS'order'
p97
F1523896758.406336
sS'objid'
p98
g8
(g12
S'\x0c\x00\x00\x00\x00\x00\x00\x00'
p99
tp100
Rp101
sa(dp102
S'action'
p103
S'delete'
p104
sS'order'
p105
F1523896758.40801
sS'objid'
p106
g8
(g12
S'\x0b\x00\x00\x00\x00\x00\x00\x00'
p107
tp108
Rp109
sa(dp110
S'action'
p111
S'delete'
p112
sS'order'
p113
F1523896758.409442
sS'objid'
p114
g8
(g12
S'\n\x00\x00\x00\x00\x00\x00\x00'
p115
tp116
Rp117
sa(dp118
S'action'
p119
S'delete'
p120
sS'order'
p121
F1523896758.41114
sS'objid'
p122
g8
(g12
S'\t\x00\x00\x00\x00\x00\x00\x00'
p123
tp124
Rp125
sa(dp126
S'action'
p127
S'delete'
p128
sS'order'
p129
F1523896758.412697
sS'objid'
p130
g8
(g12
S'\x08\x00\x00\x00\x00\x00\x00\x00'
p131
tp132
Rp133
sa(dp134
S'action'
p135
S'delete'
p136
sS'order'
p137
F1523896758.414303
sS'objid'
p138
g8
(g12
S'\x07\x00\x00\x00\x00\x00\x00\x00'
p139
tp140
Rp141
sa(dp142
S'action'
p143
S'delete'
p144
sS'order'
p145
F1523896758.41598
sS'objid'
p146
g8
(g12
S'\x06\x00\x00\x00\x00\x00\x00\x00'
p147
tp148
Rp149
sa(dp150
S'action'
p151
S'delete'
p152
sS'order'
p153
F1523896758.417721
sS'objid'
p154
g8
(g12
S'\x04\x00\x00\x00\x00\x00\x00\x00'
p155
tp156
Rp157
sa(dp158
S'action'
p159
S'delete'
p160
sS'order'
p161
F1523896758.419513
sS'objid'
p162
g8
(g12
S'\x03\x00\x00\x00\x00\x00\x00\x00'
p163
tp164
Rp165
sa(dp166
S'action'
p167
S'delete'
p168
sS'order'
p169
F1523896758.421356
sS'objid'
p170
g8
(g12
S'\x02\x00\x00\x00\x00\x00\x00\x00'
p171
tp172
Rp173
sa.