(lp0
(dp1
S'action'
p2
S'join'
p3
sS'data_to_add'
p4
(lp5
sS'order'
p6
F1523909115.265559
sS'new_objid'
p7
cnumpy.core.multiarray
scalar
p8
(cnumpy
dtype
p9
(S'i8'
p10
I0
I1
tp11
Rp12
(I3
S'<'
p13
NNNI-1
I-1
I0
tp14
bS'\x98\x00\x00\x00\x00\x00\x00\x00'
p15
tp16
Rp17
sS'objids'
p18
(lp19
g8
(g12
S'm\x00\x00\x00\x00\x00\x00\x00'
p20
tp21
Rp22
ag8
(g12
S'\x00\x00\x00\x00\x00\x00\x00\x00'
p23
tp24
Rp25
asa(dp26
S'action'
p27
S'join'
p28
sS'data_to_add'
p29
(lp30
sS'order'
p31
F1523909120.613919
sS'new_objid'
p32
g8
(g12
S'\x99\x00\x00\x00\x00\x00\x00\x00'
p33
tp34
Rp35
sS'objids'
p36
(lp37
g8
(g12
S'\x8c\x00\x00\x00\x00\x00\x00\x00'
p38
tp39
Rp40
ag8
(g12
S'\x98\x00\x00\x00\x00\x00\x00\x00'
p41
tp42
Rp43
asa(dp44
S'action'
p45
S'delete'
p46
sS'order'
p47
F1523909130.641451
sS'objid'
p48
g8
(g12
S'\x8d\x00\x00\x00\x00\x00\x00\x00'
p49
tp50
Rp51
sa(dp52
S'action'
p53
S'delete'
p54
sS'order'
p55
F1523909130.642711
sS'objid'
p56
g8
(g12
S'\x8b\x00\x00\x00\x00\x00\x00\x00'
p57
tp58
Rp59
sa(dp60
S'action'
p61
S'delete'
p62
sS'order'
p63
F1523909130.643841
sS'objid'
p64
g8
(g12
S'\x8a\x00\x00\x00\x00\x00\x00\x00'
p65
tp66
Rp67
sa(dp68
S'action'
p69
S'delete'
p70
sS'order'
p71
F1523909130.644944
sS'objid'
p72
g8
(g12
S'\x89\x00\x00\x00\x00\x00\x00\x00'
p73
tp74
Rp75
sa(dp76
S'action'
p77
S'delete'
p78
sS'order'
p79
F1523909130.64609
sS'objid'
p80
g8
(g12
S'\x88\x00\x00\x00\x00\x00\x00\x00'
p81
tp82
Rp83
sa(dp84
S'action'
p85
S'delete'
p86
sS'order'
p87
F1523909130.647311
sS'objid'
p88
g8
(g12
S'\x87\x00\x00\x00\x00\x00\x00\x00'
p89
tp90
Rp91
sa(dp92
S'action'
p93
S'delete'
p94
sS'order'
p95
F1523909130.648591
sS'objid'
p96
g8
(g12
S'\x86\x00\x00\x00\x00\x00\x00\x00'
p97
tp98
Rp99
sa(dp100
S'action'
p101
S'delete'
p102
sS'order'
p103
F1523909130.649929
sS'objid'
p104
g8
(g12
S'\x85\x00\x00\x00\x00\x00\x00\x00'
p105
tp106
Rp107
sa(dp108
S'action'
p109
S'delete'
p110
sS'order'
p111
F1523909130.651336
sS'objid'
p112
g8
(g12
S'\x84\x00\x00\x00\x00\x00\x00\x00'
p113
tp114
Rp115
sa(dp116
S'action'
p117
S'delete'
p118
sS'order'
p119
F1523909130.652908
sS'objid'
p120
g8
(g12
S'\x83\x00\x00\x00\x00\x00\x00\x00'
p121
tp122
Rp123
sa(dp124
S'action'
p125
S'delete'
p126
sS'order'
p127
F1523909130.654422
sS'objid'
p128
g8
(g12
S'\x82\x00\x00\x00\x00\x00\x00\x00'
p129
tp130
Rp131
sa(dp132
S'action'
p133
S'delete'
p134
sS'order'
p135
F1523909130.656001
sS'objid'
p136
g8
(g12
S'\x81\x00\x00\x00\x00\x00\x00\x00'
p137
tp138
Rp139
sa(dp140
S'action'
p141
S'delete'
p142
sS'order'
p143
F1523909130.657635
sS'objid'
p144
g8
(g12
S'\x80\x00\x00\x00\x00\x00\x00\x00'
p145
tp146
Rp147
sa(dp148
S'action'
p149
S'delete'
p150
sS'order'
p151
F1523909130.659327
sS'objid'
p152
g8
(g12
S'\x7f\x00\x00\x00\x00\x00\x00\x00'
p153
tp154
Rp155
sa(dp156
S'action'
p157
S'delete'
p158
sS'order'
p159
F1523909130.661088
sS'objid'
p160
g8
(g12
S'~\x00\x00\x00\x00\x00\x00\x00'
p161
tp162
Rp163
sa(dp164
S'action'
p165
S'delete'
p166
sS'order'
p167
F1523909130.662886
sS'objid'
p168
g8
(g12
S'}\x00\x00\x00\x00\x00\x00\x00'
p169
tp170
Rp171
sa(dp172
S'action'
p173
S'delete'
p174
sS'order'
p175
F1523909130.66476
sS'objid'
p176
g8
(g12
S'|\x00\x00\x00\x00\x00\x00\x00'
p177
tp178
Rp179
sa(dp180
S'action'
p181
S'delete'
p182
sS'order'
p183
F1523909130.666681
sS'objid'
p184
g8
(g12
S'{\x00\x00\x00\x00\x00\x00\x00'
p185
tp186
Rp187
sa(dp188
S'action'
p189
S'delete'
p190
sS'order'
p191
F1523909130.668672
sS'objid'
p192
g8
(g12
S'z\x00\x00\x00\x00\x00\x00\x00'
p193
tp194
Rp195
sa(dp196
S'action'
p197
S'delete'
p198
sS'order'
p199
F1523909130.670759
sS'objid'
p200
g8
(g12
S'y\x00\x00\x00\x00\x00\x00\x00'
p201
tp202
Rp203
sa(dp204
S'action'
p205
S'delete'
p206
sS'order'
p207
F1523909130.672902
sS'objid'
p208
g8
(g12
S'x\x00\x00\x00\x00\x00\x00\x00'
p209
tp210
Rp211
sa(dp212
S'action'
p213
S'delete'
p214
sS'order'
p215
F1523909130.675053
sS'objid'
p216
g8
(g12
S'w\x00\x00\x00\x00\x00\x00\x00'
p217
tp218
Rp219
sa(dp220
S'action'
p221
S'delete'
p222
sS'order'
p223
F1523909130.677302
sS'objid'
p224
g8
(g12
S'v\x00\x00\x00\x00\x00\x00\x00'
p225
tp226
Rp227
sa(dp228
S'action'
p229
S'delete'
p230
sS'order'
p231
F1523909130.679591
sS'objid'
p232
g8
(g12
S'u\x00\x00\x00\x00\x00\x00\x00'
p233
tp234
Rp235
sa(dp236
S'action'
p237
S'delete'
p238
sS'order'
p239
F1523909130.681945
sS'objid'
p240
g8
(g12
S't\x00\x00\x00\x00\x00\x00\x00'
p241
tp242
Rp243
sa(dp244
S'action'
p245
S'delete'
p246
sS'order'
p247
F1523909130.684348
sS'objid'
p248
g8
(g12
S's\x00\x00\x00\x00\x00\x00\x00'
p249
tp250
Rp251
sa(dp252
S'action'
p253
S'delete'
p254
sS'order'
p255
F1523909130.686811
sS'objid'
p256
g8
(g12
S'r\x00\x00\x00\x00\x00\x00\x00'
p257
tp258
Rp259
sa(dp260
S'action'
p261
S'delete'
p262
sS'order'
p263
F1523909130.68935
sS'objid'
p264
g8
(g12
S'q\x00\x00\x00\x00\x00\x00\x00'
p265
tp266
Rp267
sa(dp268
S'action'
p269
S'delete'
p270
sS'order'
p271
F1523909130.691933
sS'objid'
p272
g8
(g12
S'p\x00\x00\x00\x00\x00\x00\x00'
p273
tp274
Rp275
sa(dp276
S'action'
p277
S'delete'
p278
sS'order'
p279
F1523909130.694567
sS'objid'
p280
g8
(g12
S'o\x00\x00\x00\x00\x00\x00\x00'
p281
tp282
Rp283
sa(dp284
S'action'
p285
S'delete'
p286
sS'order'
p287
F1523909130.697269
sS'objid'
p288
g8
(g12
S'n\x00\x00\x00\x00\x00\x00\x00'
p289
tp290
Rp291
sa(dp292
S'action'
p293
S'delete'
p294
sS'order'
p295
F1523909130.700019
sS'objid'
p296
g8
(g12
S'l\x00\x00\x00\x00\x00\x00\x00'
p297
tp298
Rp299
sa(dp300
S'action'
p301
S'delete'
p302
sS'order'
p303
F1523909130.702812
sS'objid'
p304
g8
(g12
S'k\x00\x00\x00\x00\x00\x00\x00'
p305
tp306
Rp307
sa(dp308
S'action'
p309
S'delete'
p310
sS'order'
p311
F1523909130.705699
sS'objid'
p312
g8
(g12
S'j\x00\x00\x00\x00\x00\x00\x00'
p313
tp314
Rp315
sa(dp316
S'action'
p317
S'delete'
p318
sS'order'
p319
F1523909130.708622
sS'objid'
p320
g8
(g12
S'i\x00\x00\x00\x00\x00\x00\x00'
p321
tp322
Rp323
sa(dp324
S'action'
p325
S'delete'
p326
sS'order'
p327
F1523909130.711597
sS'objid'
p328
g8
(g12
S'h\x00\x00\x00\x00\x00\x00\x00'
p329
tp330
Rp331
sa(dp332
S'action'
p333
S'delete'
p334
sS'order'
p335
F1523909130.714652
sS'objid'
p336
g8
(g12
S'g\x00\x00\x00\x00\x00\x00\x00'
p337
tp338
Rp339
sa(dp340
S'action'
p341
S'delete'
p342
sS'order'
p343
F1523909130.717771
sS'objid'
p344
g8
(g12
S'f\x00\x00\x00\x00\x00\x00\x00'
p345
tp346
Rp347
sa(dp348
S'action'
p349
S'delete'
p350
sS'order'
p351
F1523909130.72097
sS'objid'
p352
g8
(g12
S'e\x00\x00\x00\x00\x00\x00\x00'
p353
tp354
Rp355
sa(dp356
S'action'
p357
S'delete'
p358
sS'order'
p359
F1523909130.724223
sS'objid'
p360
g8
(g12
S'd\x00\x00\x00\x00\x00\x00\x00'
p361
tp362
Rp363
sa(dp364
S'action'
p365
S'delete'
p366
sS'order'
p367
F1523909130.727549
sS'objid'
p368
g8
(g12
S'c\x00\x00\x00\x00\x00\x00\x00'
p369
tp370
Rp371
sa(dp372
S'action'
p373
S'delete'
p374
sS'order'
p375
F1523909130.730915
sS'objid'
p376
g8
(g12
S'b\x00\x00\x00\x00\x00\x00\x00'
p377
tp378
Rp379
sa(dp380
S'action'
p381
S'delete'
p382
sS'order'
p383
F1523909130.734331
sS'objid'
p384
g8
(g12
S'a\x00\x00\x00\x00\x00\x00\x00'
p385
tp386
Rp387
sa(dp388
S'action'
p389
S'delete'
p390
sS'order'
p391
F1523909130.737814
sS'objid'
p392
g8
(g12
S'`\x00\x00\x00\x00\x00\x00\x00'
p393
tp394
Rp395
sa(dp396
S'action'
p397
S'delete'
p398
sS'order'
p399
F1523909130.741362
sS'objid'
p400
g8
(g12
S'_\x00\x00\x00\x00\x00\x00\x00'
p401
tp402
Rp403
sa(dp404
S'action'
p405
S'delete'
p406
sS'order'
p407
F1523909130.744973
sS'objid'
p408
g8
(g12
S'^\x00\x00\x00\x00\x00\x00\x00'
p409
tp410
Rp411
sa(dp412
S'action'
p413
S'delete'
p414
sS'order'
p415
F1523909130.74861
sS'objid'
p416
g8
(g12
S']\x00\x00\x00\x00\x00\x00\x00'
p417
tp418
Rp419
sa(dp420
S'action'
p421
S'delete'
p422
sS'order'
p423
F1523909130.752309
sS'objid'
p424
g8
(g12
S'\\\x00\x00\x00\x00\x00\x00\x00'
p425
tp426
Rp427
sa(dp428
S'action'
p429
S'delete'
p430
sS'order'
p431
F1523909130.756076
sS'objid'
p432
g8
(g12
S'[\x00\x00\x00\x00\x00\x00\x00'
p433
tp434
Rp435
sa(dp436
S'action'
p437
S'delete'
p438
sS'order'
p439
F1523909130.759898
sS'objid'
p440
g8
(g12
S'Z\x00\x00\x00\x00\x00\x00\x00'
p441
tp442
Rp443
sa(dp444
S'action'
p445
S'delete'
p446
sS'order'
p447
F1523909130.763779
sS'objid'
p448
g8
(g12
S'Y\x00\x00\x00\x00\x00\x00\x00'
p449
tp450
Rp451
sa(dp452
S'action'
p453
S'delete'
p454
sS'order'
p455
F1523909130.767725
sS'objid'
p456
g8
(g12
S'X\x00\x00\x00\x00\x00\x00\x00'
p457
tp458
Rp459
sa(dp460
S'action'
p461
S'delete'
p462
sS'order'
p463
F1523909130.771719
sS'objid'
p464
g8
(g12
S'W\x00\x00\x00\x00\x00\x00\x00'
p465
tp466
Rp467
sa(dp468
S'action'
p469
S'delete'
p470
sS'order'
p471
F1523909130.775759
sS'objid'
p472
g8
(g12
S'V\x00\x00\x00\x00\x00\x00\x00'
p473
tp474
Rp475
sa(dp476
S'action'
p477
S'delete'
p478
sS'order'
p479
F1523909130.779901
sS'objid'
p480
g8
(g12
S'U\x00\x00\x00\x00\x00\x00\x00'
p481
tp482
Rp483
sa(dp484
S'action'
p485
S'delete'
p486
sS'order'
p487
F1523909130.784068
sS'objid'
p488
g8
(g12
S'T\x00\x00\x00\x00\x00\x00\x00'
p489
tp490
Rp491
sa(dp492
S'action'
p493
S'delete'
p494
sS'order'
p495
F1523909130.788306
sS'objid'
p496
g8
(g12
S'S\x00\x00\x00\x00\x00\x00\x00'
p497
tp498
Rp499
sa(dp500
S'action'
p501
S'delete'
p502
sS'order'
p503
F1523909130.792594
sS'objid'
p504
g8
(g12
S'R\x00\x00\x00\x00\x00\x00\x00'
p505
tp506
Rp507
sa(dp508
S'action'
p509
S'delete'
p510
sS'order'
p511
F1523909130.796947
sS'objid'
p512
g8
(g12
S'Q\x00\x00\x00\x00\x00\x00\x00'
p513
tp514
Rp515
sa(dp516
S'action'
p517
S'delete'
p518
sS'order'
p519
F1523909130.80136
sS'objid'
p520
g8
(g12
S'P\x00\x00\x00\x00\x00\x00\x00'
p521
tp522
Rp523
sa(dp524
S'action'
p525
S'delete'
p526
sS'order'
p527
F1523909130.805831
sS'objid'
p528
g8
(g12
S'O\x00\x00\x00\x00\x00\x00\x00'
p529
tp530
Rp531
sa(dp532
S'action'
p533
S'delete'
p534
sS'order'
p535
F1523909130.810368
sS'objid'
p536
g8
(g12
S'N\x00\x00\x00\x00\x00\x00\x00'
p537
tp538
Rp539
sa(dp540
S'action'
p541
S'delete'
p542
sS'order'
p543
F1523909130.814942
sS'objid'
p544
g8
(g12
S'M\x00\x00\x00\x00\x00\x00\x00'
p545
tp546
Rp547
sa(dp548
S'action'
p549
S'delete'
p550
sS'order'
p551
F1523909143.254589
sS'objid'
p552
g8
(g12
S'L\x00\x00\x00\x00\x00\x00\x00'
p553
tp554
Rp555
sa(dp556
S'action'
p557
S'delete'
p558
sS'order'
p559
F1523909143.263261
sS'objid'
p560
g8
(g12
S'K\x00\x00\x00\x00\x00\x00\x00'
p561
tp562
Rp563
sa(dp564
S'action'
p565
S'delete'
p566
sS'order'
p567
F1523909143.269347
sS'objid'
p568
g8
(g12
S'J\x00\x00\x00\x00\x00\x00\x00'
p569
tp570
Rp571
sa(dp572
S'action'
p573
S'delete'
p574
sS'order'
p575
F1523909143.274137
sS'objid'
p576
g8
(g12
S'I\x00\x00\x00\x00\x00\x00\x00'
p577
tp578
Rp579
sa(dp580
S'action'
p581
S'delete'
p582
sS'order'
p583
F1523909143.278997
sS'objid'
p584
g8
(g12
S'H\x00\x00\x00\x00\x00\x00\x00'
p585
tp586
Rp587
sa(dp588
S'action'
p589
S'delete'
p590
sS'order'
p591
F1523909143.28393
sS'objid'
p592
g8
(g12
S'G\x00\x00\x00\x00\x00\x00\x00'
p593
tp594
Rp595
sa(dp596
S'action'
p597
S'delete'
p598
sS'order'
p599
F1523909143.288968
sS'objid'
p600
g8
(g12
S'F\x00\x00\x00\x00\x00\x00\x00'
p601
tp602
Rp603
sa(dp604
S'action'
p605
S'delete'
p606
sS'order'
p607
F1523909143.294003
sS'objid'
p608
g8
(g12
S'E\x00\x00\x00\x00\x00\x00\x00'
p609
tp610
Rp611
sa(dp612
S'action'
p613
S'delete'
p614
sS'order'
p615
F1523909143.299064
sS'objid'
p616
g8
(g12
S'D\x00\x00\x00\x00\x00\x00\x00'
p617
tp618
Rp619
sa(dp620
S'action'
p621
S'delete'
p622
sS'order'
p623
F1523909143.304207
sS'objid'
p624
g8
(g12
S'C\x00\x00\x00\x00\x00\x00\x00'
p625
tp626
Rp627
sa(dp628
S'action'
p629
S'delete'
p630
sS'order'
p631
F1523909143.309382
sS'objid'
p632
g8
(g12
S'B\x00\x00\x00\x00\x00\x00\x00'
p633
tp634
Rp635
sa(dp636
S'action'
p637
S'delete'
p638
sS'order'
p639
F1523909143.314632
sS'objid'
p640
g8
(g12
S'A\x00\x00\x00\x00\x00\x00\x00'
p641
tp642
Rp643
sa(dp644
S'action'
p645
S'delete'
p646
sS'order'
p647
F1523909143.319994
sS'objid'
p648
g8
(g12
S'@\x00\x00\x00\x00\x00\x00\x00'
p649
tp650
Rp651
sa(dp652
S'action'
p653
S'delete'
p654
sS'order'
p655
F1523909143.325424
sS'objid'
p656
g8
(g12
S'?\x00\x00\x00\x00\x00\x00\x00'
p657
tp658
Rp659
sa(dp660
S'action'
p661
S'delete'
p662
sS'order'
p663
F1523909143.330879
sS'objid'
p664
g8
(g12
S'>\x00\x00\x00\x00\x00\x00\x00'
p665
tp666
Rp667
sa(dp668
S'action'
p669
S'delete'
p670
sS'order'
p671
F1523909143.336413
sS'objid'
p672
g8
(g12
S'=\x00\x00\x00\x00\x00\x00\x00'
p673
tp674
Rp675
sa(dp676
S'action'
p677
S'delete'
p678
sS'order'
p679
F1523909143.341959
sS'objid'
p680
g8
(g12
S'<\x00\x00\x00\x00\x00\x00\x00'
p681
tp682
Rp683
sa(dp684
S'action'
p685
S'delete'
p686
sS'order'
p687
F1523909143.347559
sS'objid'
p688
g8
(g12
S';\x00\x00\x00\x00\x00\x00\x00'
p689
tp690
Rp691
sa(dp692
S'action'
p693
S'delete'
p694
sS'order'
p695
F1523909143.353238
sS'objid'
p696
g8
(g12
S':\x00\x00\x00\x00\x00\x00\x00'
p697
tp698
Rp699
sa(dp700
S'action'
p701
S'delete'
p702
sS'order'
p703
F1523909143.358945
sS'objid'
p704
g8
(g12
S'9\x00\x00\x00\x00\x00\x00\x00'
p705
tp706
Rp707
sa(dp708
S'action'
p709
S'delete'
p710
sS'order'
p711
F1523909143.364703
sS'objid'
p712
g8
(g12
S'8\x00\x00\x00\x00\x00\x00\x00'
p713
tp714
Rp715
sa(dp716
S'action'
p717
S'delete'
p718
sS'order'
p719
F1523909143.370496
sS'objid'
p720
g8
(g12
S'7\x00\x00\x00\x00\x00\x00\x00'
p721
tp722
Rp723
sa(dp724
S'action'
p725
S'delete'
p726
sS'order'
p727
F1523909143.376405
sS'objid'
p728
g8
(g12
S'6\x00\x00\x00\x00\x00\x00\x00'
p729
tp730
Rp731
sa(dp732
S'action'
p733
S'delete'
p734
sS'order'
p735
F1523909143.382351
sS'objid'
p736
g8
(g12
S'5\x00\x00\x00\x00\x00\x00\x00'
p737
tp738
Rp739
sa(dp740
S'action'
p741
S'delete'
p742
sS'order'
p743
F1523909143.38838
sS'objid'
p744
g8
(g12
S'4\x00\x00\x00\x00\x00\x00\x00'
p745
tp746
Rp747
sa(dp748
S'action'
p749
S'delete'
p750
sS'order'
p751
F1523909143.394423
sS'objid'
p752
g8
(g12
S'3\x00\x00\x00\x00\x00\x00\x00'
p753
tp754
Rp755
sa(dp756
S'action'
p757
S'delete'
p758
sS'order'
p759
F1523909143.400565
sS'objid'
p760
g8
(g12
S'2\x00\x00\x00\x00\x00\x00\x00'
p761
tp762
Rp763
sa(dp764
S'action'
p765
S'delete'
p766
sS'order'
p767
F1523909143.406729
sS'objid'
p768
g8
(g12
S'1\x00\x00\x00\x00\x00\x00\x00'
p769
tp770
Rp771
sa(dp772
S'action'
p773
S'delete'
p774
sS'order'
p775
F1523909143.412979
sS'objid'
p776
g8
(g12
S'0\x00\x00\x00\x00\x00\x00\x00'
p777
tp778
Rp779
sa(dp780
S'action'
p781
S'delete'
p782
sS'order'
p783
F1523909143.419292
sS'objid'
p784
g8
(g12
S'/\x00\x00\x00\x00\x00\x00\x00'
p785
tp786
Rp787
sa(dp788
S'action'
p789
S'delete'
p790
sS'order'
p791
F1523909143.425735
sS'objid'
p792
g8
(g12
S'.\x00\x00\x00\x00\x00\x00\x00'
p793
tp794
Rp795
sa(dp796
S'action'
p797
S'delete'
p798
sS'order'
p799
F1523909143.432202
sS'objid'
p800
g8
(g12
S'-\x00\x00\x00\x00\x00\x00\x00'
p801
tp802
Rp803
sa(dp804
S'action'
p805
S'delete'
p806
sS'order'
p807
F1523909143.438742
sS'objid'
p808
g8
(g12
S',\x00\x00\x00\x00\x00\x00\x00'
p809
tp810
Rp811
sa(dp812
S'action'
p813
S'delete'
p814
sS'order'
p815
F1523909143.445278
sS'objid'
p816
g8
(g12
S'+\x00\x00\x00\x00\x00\x00\x00'
p817
tp818
Rp819
sa(dp820
S'action'
p821
S'delete'
p822
sS'order'
p823
F1523909143.451895
sS'objid'
p824
g8
(g12
S'*\x00\x00\x00\x00\x00\x00\x00'
p825
tp826
Rp827
sa(dp828
S'action'
p829
S'delete'
p830
sS'order'
p831
F1523909143.458493
sS'objid'
p832
g8
(g12
S')\x00\x00\x00\x00\x00\x00\x00'
p833
tp834
Rp835
sa(dp836
S'action'
p837
S'delete'
p838
sS'order'
p839
F1523909143.465193
sS'objid'
p840
g8
(g12
S'(\x00\x00\x00\x00\x00\x00\x00'
p841
tp842
Rp843
sa(dp844
S'action'
p845
S'delete'
p846
sS'order'
p847
F1523909143.47196
sS'objid'
p848
g8
(g12
S"'\x00\x00\x00\x00\x00\x00\x00"
p849
tp850
Rp851
sa(dp852
S'action'
p853
S'delete'
p854
sS'order'
p855
F1523909143.478756
sS'objid'
p856
g8
(g12
S'&\x00\x00\x00\x00\x00\x00\x00'
p857
tp858
Rp859
sa(dp860
S'action'
p861
S'delete'
p862
sS'order'
p863
F1523909143.485646
sS'objid'
p864
g8
(g12
S'%\x00\x00\x00\x00\x00\x00\x00'
p865
tp866
Rp867
sa(dp868
S'action'
p869
S'delete'
p870
sS'order'
p871
F1523909143.492561
sS'objid'
p872
g8
(g12
S'$\x00\x00\x00\x00\x00\x00\x00'
p873
tp874
Rp875
sa(dp876
S'action'
p877
S'delete'
p878
sS'order'
p879
F1523909143.499536
sS'objid'
p880
g8
(g12
S'#\x00\x00\x00\x00\x00\x00\x00'
p881
tp882
Rp883
sa(dp884
S'action'
p885
S'delete'
p886
sS'order'
p887
F1523909143.506538
sS'objid'
p888
g8
(g12
S'"\x00\x00\x00\x00\x00\x00\x00'
p889
tp890
Rp891
sa(dp892
S'action'
p893
S'delete'
p894
sS'order'
p895
F1523909143.513628
sS'objid'
p896
g8
(g12
S'!\x00\x00\x00\x00\x00\x00\x00'
p897
tp898
Rp899
sa(dp900
S'action'
p901
S'delete'
p902
sS'order'
p903
F1523909143.520813
sS'objid'
p904
g8
(g12
S' \x00\x00\x00\x00\x00\x00\x00'
p905
tp906
Rp907
sa(dp908
S'action'
p909
S'delete'
p910
sS'order'
p911
F1523909143.528206
sS'objid'
p912
g8
(g12
S'\x1f\x00\x00\x00\x00\x00\x00\x00'
p913
tp914
Rp915
sa(dp916
S'action'
p917
S'delete'
p918
sS'order'
p919
F1523909143.535556
sS'objid'
p920
g8
(g12
S'\x1e\x00\x00\x00\x00\x00\x00\x00'
p921
tp922
Rp923
sa(dp924
S'action'
p925
S'delete'
p926
sS'order'
p927
F1523909143.542939
sS'objid'
p928
g8
(g12
S'\x1d\x00\x00\x00\x00\x00\x00\x00'
p929
tp930
Rp931
sa(dp932
S'action'
p933
S'delete'
p934
sS'order'
p935
F1523909143.550387
sS'objid'
p936
g8
(g12
S'\x1c\x00\x00\x00\x00\x00\x00\x00'
p937
tp938
Rp939
sa(dp940
S'action'
p941
S'delete'
p942
sS'order'
p943
F1523909143.557851
sS'objid'
p944
g8
(g12
S'\x1b\x00\x00\x00\x00\x00\x00\x00'
p945
tp946
Rp947
sa(dp948
S'action'
p949
S'delete'
p950
sS'order'
p951
F1523909143.565415
sS'objid'
p952
g8
(g12
S'\x1a\x00\x00\x00\x00\x00\x00\x00'
p953
tp954
Rp955
sa(dp956
S'action'
p957
S'delete'
p958
sS'order'
p959
F1523909143.572987
sS'objid'
p960
g8
(g12
S'\x19\x00\x00\x00\x00\x00\x00\x00'
p961
tp962
Rp963
sa(dp964
S'action'
p965
S'delete'
p966
sS'order'
p967
F1523909143.580619
sS'objid'
p968
g8
(g12
S'\x18\x00\x00\x00\x00\x00\x00\x00'
p969
tp970
Rp971
sa(dp972
S'action'
p973
S'delete'
p974
sS'order'
p975
F1523909143.588263
sS'objid'
p976
g8
(g12
S'\x17\x00\x00\x00\x00\x00\x00\x00'
p977
tp978
Rp979
sa(dp980
S'action'
p981
S'delete'
p982
sS'order'
p983
F1523909143.596
sS'objid'
p984
g8
(g12
S'\x16\x00\x00\x00\x00\x00\x00\x00'
p985
tp986
Rp987
sa(dp988
S'action'
p989
S'delete'
p990
sS'order'
p991
F1523909143.603832
sS'objid'
p992
g8
(g12
S'\x15\x00\x00\x00\x00\x00\x00\x00'
p993
tp994
Rp995
sa(dp996
S'action'
p997
S'delete'
p998
sS'order'
p999
F1523909143.611702
sS'objid'
p1000
g8
(g12
S'\x14\x00\x00\x00\x00\x00\x00\x00'
p1001
tp1002
Rp1003
sa(dp1004
S'action'
p1005
S'delete'
p1006
sS'order'
p1007
F1523909143.619607
sS'objid'
p1008
g8
(g12
S'\x13\x00\x00\x00\x00\x00\x00\x00'
p1009
tp1010
Rp1011
sa(dp1012
S'action'
p1013
S'delete'
p1014
sS'order'
p1015
F1523909143.627595
sS'objid'
p1016
g8
(g12
S'\x12\x00\x00\x00\x00\x00\x00\x00'
p1017
tp1018
Rp1019
sa(dp1020
S'action'
p1021
S'delete'
p1022
sS'order'
p1023
F1523909143.635638
sS'objid'
p1024
g8
(g12
S'\x11\x00\x00\x00\x00\x00\x00\x00'
p1025
tp1026
Rp1027
sa(dp1028
S'action'
p1029
S'delete'
p1030
sS'order'
p1031
F1523909143.64381
sS'objid'
p1032
g8
(g12
S'\x10\x00\x00\x00\x00\x00\x00\x00'
p1033
tp1034
Rp1035
sa(dp1036
S'action'
p1037
S'delete'
p1038
sS'order'
p1039
F1523909143.652
sS'objid'
p1040
g8
(g12
S'\x0f\x00\x00\x00\x00\x00\x00\x00'
p1041
tp1042
Rp1043
sa(dp1044
S'action'
p1045
S'delete'
p1046
sS'order'
p1047
F1523909143.660211
sS'objid'
p1048
g8
(g12
S'\x0e\x00\x00\x00\x00\x00\x00\x00'
p1049
tp1050
Rp1051
sa(dp1052
S'action'
p1053
S'delete'
p1054
sS'order'
p1055
F1523909143.668461
sS'objid'
p1056
g8
(g12
S'\r\x00\x00\x00\x00\x00\x00\x00'
p1057
tp1058
Rp1059
sa(dp1060
S'action'
p1061
S'delete'
p1062
sS'order'
p1063
F1523909143.67681
sS'objid'
p1064
g8
(g12
S'\x0c\x00\x00\x00\x00\x00\x00\x00'
p1065
tp1066
Rp1067
sa(dp1068
S'action'
p1069
S'delete'
p1070
sS'order'
p1071
F1523909143.685184
sS'objid'
p1072
g8
(g12
S'\x0b\x00\x00\x00\x00\x00\x00\x00'
p1073
tp1074
Rp1075
sa(dp1076
S'action'
p1077
S'delete'
p1078
sS'order'
p1079
F1523909143.693661
sS'objid'
p1080
g8
(g12
S'\n\x00\x00\x00\x00\x00\x00\x00'
p1081
tp1082
Rp1083
sa(dp1084
S'action'
p1085
S'delete'
p1086
sS'order'
p1087
F1523909143.702157
sS'objid'
p1088
g8
(g12
S'\t\x00\x00\x00\x00\x00\x00\x00'
p1089
tp1090
Rp1091
sa(dp1092
S'action'
p1093
S'delete'
p1094
sS'order'
p1095
F1523909143.710693
sS'objid'
p1096
g8
(g12
S'\x08\x00\x00\x00\x00\x00\x00\x00'
p1097
tp1098
Rp1099
sa(dp1100
S'action'
p1101
S'delete'
p1102
sS'order'
p1103
F1523909143.719248
sS'objid'
p1104
g8
(g12
S'\x07\x00\x00\x00\x00\x00\x00\x00'
p1105
tp1106
Rp1107
sa(dp1108
S'action'
p1109
S'delete'
p1110
sS'order'
p1111
F1523909143.727957
sS'objid'
p1112
g8
(g12
S'\x06\x00\x00\x00\x00\x00\x00\x00'
p1113
tp1114
Rp1115
sa(dp1116
S'action'
p1117
S'delete'
p1118
sS'order'
p1119
F1523909143.736725
sS'objid'
p1120
g8
(g12
S'\x05\x00\x00\x00\x00\x00\x00\x00'
p1121
tp1122
Rp1123
sa(dp1124
S'action'
p1125
S'delete'
p1126
sS'order'
p1127
F1523909143.745573
sS'objid'
p1128
g8
(g12
S'\x04\x00\x00\x00\x00\x00\x00\x00'
p1129
tp1130
Rp1131
sa(dp1132
S'action'
p1133
S'delete'
p1134
sS'order'
p1135
F1523909143.75446
sS'objid'
p1136
g8
(g12
S'\x03\x00\x00\x00\x00\x00\x00\x00'
p1137
tp1138
Rp1139
sa(dp1140
S'action'
p1141
S'delete'
p1142
sS'order'
p1143
F1523909143.763359
sS'objid'
p1144
g8
(g12
S'\x02\x00\x00\x00\x00\x00\x00\x00'
p1145
tp1146
Rp1147
sa(dp1148
S'action'
p1149
S'delete'
p1150
sS'order'
p1151
F1523909143.772297
sS'objid'
p1152
g8
(g12
S'\x01\x00\x00\x00\x00\x00\x00\x00'
p1153
tp1154
Rp1155
sa.