(lp0
(dp1
S'action'
p2
S'delete'
p3
sS'order'
p4
F1523908097.510123
sS'objid'
p5
cnumpy.core.multiarray
scalar
p6
(cnumpy
dtype
p7
(S'i8'
p8
I0
I1
tp9
Rp10
(I3
S'<'
p11
NNNI-1
I-1
I0
tp12
bS'\x01\x00\x00\x00\x00\x00\x00\x00'
p13
tp14
Rp15
sa.x00\x00'
p15
tp16
Rp17
sS'objids'
p18
(lp19
g8
(g12
S'\x00\x00\x00\x00\x00\x00\x00\x00'
p20
tp21
Rp22
ag8
(g12
S'\x01\x00\x00\x00\x00\x00\x00\x00'
p23
tp24
Rp25
asa.a.