(lp0
(dp1
S'action'
p2
S'join'
p3
sS'data_to_add'
p4
(lp5
sS'order'
p6
F1523920763.35246
sS'new_objid'
p7
cnumpy.core.multiarray
scalar
p8
(cnumpy
dtype
p9
(S'i8'
p10
I0
I1
tp11
Rp12
(I3
S'<'
p13
NNNI-1
I-1
I0
tp14
bS'i\x00\x00\x00\x00\x00\x00\x00'
p15
tp16
Rp17
sS'objids'
p18
(lp19
g8
(g12
S'\x00\x00\x00\x00\x00\x00\x00\x00'
p20
tp21
Rp22
ag8
(g12
S'\x01\x00\x00\x00\x00\x00\x00\x00'
p23
tp24
Rp25
asa(dp26
g2
g3
sg4
(lp27
sg6
F1523920773.314899
sg7
g8
(g12
S'j\x00\x00\x00\x00\x00\x00\x00'
p28
tp29
Rp30
sg18
(lp31
g8
(g12
S'\x0c\x00\x00\x00\x00\x00\x00\x00'
p32
tp33
Rp34
ag8
(g12
S'i\x00\x00\x00\x00\x00\x00\x00'
p35
tp36
Rp37
asa(dp38
S'action'
p39
S'join'
p40
sS'data_to_add'
p41
(lp42
sS'order'
p43
F1523920797.011745
sS'new_objid'
p44
g8
(g12
S'l\x00\x00\x00\x00\x00\x00\x00'
p45
tp46
Rp47
sS'objids'
p48
(lp49
g8
(g12
S'\x16\x00\x00\x00\x00\x00\x00\x00'
p50
tp51
Rp52
ag8
(g12
S'\x17\x00\x00\x00\x00\x00\x00\x00'
p53
tp54
Rp55
ag8
(g12
S'j\x00\x00\x00\x00\x00\x00\x00'
p56
tp57
Rp58
ag8
(g12
S'\x15\x00\x00\x00\x00\x00\x00\x00'
p59
tp60
Rp61
ag8
(g12
S'\x13\x00\x00\x00\x00\x00\x00\x00'
p62
tp63
Rp64
asa(dp65
S'action'
p66
S'join'
p67
sS'data_to_add'
p68
(lp69
sS'order'
p70
F1523920805.708053
sS'new_objid'
p71
g8
(g12
S'm\x00\x00\x00\x00\x00\x00\x00'
p72
tp73
Rp74
sS'objids'
p75
(lp76
g8
(g12
S'\x1d\x00\x00\x00\x00\x00\x00\x00'
p77
tp78
Rp79
ag8
(g12
S'l\x00\x00\x00\x00\x00\x00\x00'
p80
tp81
Rp82
asa(dp83
S'action'
p84
S'join'
p85
sS'data_to_add'
p86
(lp87
sS'order'
p88
F1523920817.596009
sS'new_objid'
p89
g8
(g12
S'n\x00\x00\x00\x00\x00\x00\x00'
p90
tp91
Rp92
sS'objids'
p93
(lp94
g8
(g12
S'm\x00\x00\x00\x00\x00\x00\x00'
p95
tp96
Rp97
ag8
(g12
S"'\x00\x00\x00\x00\x00\x00\x00"
p98
tp99
Rp100
ag8
(g12
S'$\x00\x00\x00\x00\x00\x00\x00'
p101
tp102
Rp103
asa(dp104
S'action'
p105
S'join'
p106
sS'data_to_add'
p107
(lp108
sS'order'
p109
F1523920828.572209
sS'new_objid'
p110
g8
(g12
S'o\x00\x00\x00\x00\x00\x00\x00'
p111
tp112
Rp113
sS'objids'
p114
(lp115
g8
(g12
S'+\x00\x00\x00\x00\x00\x00\x00'
p116
tp117
Rp118
ag8
(g12
S'n\x00\x00\x00\x00\x00\x00\x00'
p119
tp120
Rp121
asa(dp122
S'action'
p123
S'join'
p124
sS'data_to_add'
p125
(lp126
sS'order'
p127
F1523920841.308581
sS'new_objid'
p128
g8
(g12
S'p\x00\x00\x00\x00\x00\x00\x00'
p129
tp130
Rp131
sS'objids'
p132
(lp133
g8
(g12
S'o\x00\x00\x00\x00\x00\x00\x00'
p134
tp135
Rp136
ag8
(g12
S'0\x00\x00\x00\x00\x00\x00\x00'
p137
tp138
Rp139
ag8
(g12
S'/\x00\x00\x00\x00\x00\x00\x00'
p140
tp141
Rp142
asa(dp143
S'action'
p144
S'join'
p145
sS'data_to_add'
p146
(lp147
sS'order'
p148
F1523920848.572271
sS'new_objid'
p149
g8
(g12
S'q\x00\x00\x00\x00\x00\x00\x00'
p150
tp151
Rp152
sS'objids'
p153
(lp154
g8
(g12
S'7\x00\x00\x00\x00\x00\x00\x00'
p155
tp156
Rp157
ag8
(g12
S'p\x00\x00\x00\x00\x00\x00\x00'
p158
tp159
Rp160
asa(dp161
S'action'
p162
S'join'
p163
sS'data_to_add'
p164
(lp165
sS'order'
p166
F1523920857.412723
sS'new_objid'
p167
g8
(g12
S'r\x00\x00\x00\x00\x00\x00\x00'
p168
tp169
Rp170
sS'objids'
p171
(lp172
g8
(g12
S'q\x00\x00\x00\x00\x00\x00\x00'
p173
tp174
Rp175
ag8
(g12
S'>\x00\x00\x00\x00\x00\x00\x00'
p176
tp177
Rp178
asa(dp179
S'action'
p180
S'join'
p181
sS'data_to_add'
p182
(lp183
sS'order'
p184
F1523920868.732592
sS'new_objid'
p185
g8
(g12
S's\x00\x00\x00\x00\x00\x00\x00'
p186
tp187
Rp188
sS'objids'
p189
(lp190
g8
(g12
S'F\x00\x00\x00\x00\x00\x00\x00'
p191
tp192
Rp193
ag8
(g12
S'r\x00\x00\x00\x00\x00\x00\x00'
p194
tp195
Rp196
ag8
(g12
S'P\x00\x00\x00\x00\x00\x00\x00'
p197
tp198
Rp199
asa(dp200
S'action'
p201
S'join'
p202
sS'data_to_add'
p203
(lp204
sS'order'
p205
F1523920876.844633
sS'new_objid'
p206
g8
(g12
S't\x00\x00\x00\x00\x00\x00\x00'
p207
tp208
Rp209
sS'objids'
p210
(lp211
g8
(g12
S'Z\x00\x00\x00\x00\x00\x00\x00'
p212
tp213
Rp214
ag8
(g12
S's\x00\x00\x00\x00\x00\x00\x00'
p215
tp216
Rp217
asa(dp218
S'action'
p219
S'delete'
p220
sS'order'
p221
F1523920889.744133
sS'objid'
p222
g8
(g12
S']\x00\x00\x00\x00\x00\x00\x00'
p223
tp224
Rp225
sa(dp226
S'action'
p227
S'delete'
p228
sS'order'
p229
F1523920889.747315
sS'objid'
p230
g8
(g12
S'\\\x00\x00\x00\x00\x00\x00\x00'
p231
tp232
Rp233
sa(dp234
S'action'
p235
S'delete'
p236
sS'order'
p237
F1523920889.751311
sS'objid'
p238
g8
(g12
S'[\x00\x00\x00\x00\x00\x00\x00'
p239
tp240
Rp241
sa(dp242
S'action'
p243
S'delete'
p244
sS'order'
p245
F1523920889.753723
sS'objid'
p246
g8
(g12
S'Y\x00\x00\x00\x00\x00\x00\x00'
p247
tp248
Rp249
sa(dp250
S'action'
p251
S'delete'
p252
sS'order'
p253
F1523920889.75623
sS'objid'
p254
g8
(g12
S'X\x00\x00\x00\x00\x00\x00\x00'
p255
tp256
Rp257
sa(dp258
S'action'
p259
S'delete'
p260
sS'order'
p261
F1523920889.758744
sS'objid'
p262
g8
(g12
S'W\x00\x00\x00\x00\x00\x00\x00'
p263
tp264
Rp265
sa(dp266
S'action'
p267
S'delete'
p268
sS'order'
p269
F1523920889.76133
sS'objid'
p270
g8
(g12
S'V\x00\x00\x00\x00\x00\x00\x00'
p271
tp272
Rp273
sa(dp274
S'action'
p275
S'delete'
p276
sS'order'
p277
F1523920889.763998
sS'objid'
p278
g8
(g12
S'U\x00\x00\x00\x00\x00\x00\x00'
p279
tp280
Rp281
sa(dp282
S'action'
p283
S'delete'
p284
sS'order'
p285
F1523920889.766679
sS'objid'
p286
g8
(g12
S'T\x00\x00\x00\x00\x00\x00\x00'
p287
tp288
Rp289
sa(dp290
S'action'
p291
S'delete'
p292
sS'order'
p293
F1523920889.769428
sS'objid'
p294
g8
(g12
S'S\x00\x00\x00\x00\x00\x00\x00'
p295
tp296
Rp297
sa(dp298
S'action'
p299
S'delete'
p300
sS'order'
p301
F1523920889.772255
sS'objid'
p302
g8
(g12
S'R\x00\x00\x00\x00\x00\x00\x00'
p303
tp304
Rp305
sa(dp306
S'action'
p307
S'delete'
p308
sS'order'
p309
F1523920889.77512
sS'objid'
p310
g8
(g12
S'Q\x00\x00\x00\x00\x00\x00\x00'
p311
tp312
Rp313
sa(dp314
S'action'
p315
S'delete'
p316
sS'order'
p317
F1523920889.778039
sS'objid'
p318
g8
(g12
S'O\x00\x00\x00\x00\x00\x00\x00'
p319
tp320
Rp321
sa(dp322
S'action'
p323
S'delete'
p324
sS'order'
p325
F1523920889.781024
sS'objid'
p326
g8
(g12
S'N\x00\x00\x00\x00\x00\x00\x00'
p327
tp328
Rp329
sa(dp330
S'action'
p331
S'delete'
p332
sS'order'
p333
F1523920889.784044
sS'objid'
p334
g8
(g12
S'M\x00\x00\x00\x00\x00\x00\x00'
p335
tp336
Rp337
sa(dp338
S'action'
p339
S'delete'
p340
sS'order'
p341
F1523920889.78712
sS'objid'
p342
g8
(g12
S'L\x00\x00\x00\x00\x00\x00\x00'
p343
tp344
Rp345
sa(dp346
S'action'
p347
S'delete'
p348
sS'order'
p349
F1523920889.79027
sS'objid'
p350
g8
(g12
S'K\x00\x00\x00\x00\x00\x00\x00'
p351
tp352
Rp353
sa(dp354
S'action'
p355
S'delete'
p356
sS'order'
p357
F1523920889.793473
sS'objid'
p358
g8
(g12
S'J\x00\x00\x00\x00\x00\x00\x00'
p359
tp360
Rp361
sa(dp362
S'action'
p363
S'delete'
p364
sS'order'
p365
F1523920889.796743
sS'objid'
p366
g8
(g12
S'I\x00\x00\x00\x00\x00\x00\x00'
p367
tp368
Rp369
sa(dp370
S'action'
p371
S'delete'
p372
sS'order'
p373
F1523920889.800081
sS'objid'
p374
g8
(g12
S'H\x00\x00\x00\x00\x00\x00\x00'
p375
tp376
Rp377
sa(dp378
S'action'
p379
S'delete'
p380
sS'order'
p381
F1523920889.803489
sS'objid'
p382
g8
(g12
S'G\x00\x00\x00\x00\x00\x00\x00'
p383
tp384
Rp385
sa(dp386
S'action'
p387
S'delete'
p388
sS'order'
p389
F1523920889.806929
sS'objid'
p390
g8
(g12
S'E\x00\x00\x00\x00\x00\x00\x00'
p391
tp392
Rp393
sa(dp394
S'action'
p395
S'delete'
p396
sS'order'
p397
F1523920889.810426
sS'objid'
p398
g8
(g12
S'D\x00\x00\x00\x00\x00\x00\x00'
p399
tp400
Rp401
sa(dp402
S'action'
p403
S'delete'
p404
sS'order'
p405
F1523920889.814032
sS'objid'
p406
g8
(g12
S'C\x00\x00\x00\x00\x00\x00\x00'
p407
tp408
Rp409
sa(dp410
S'action'
p411
S'delete'
p412
sS'order'
p413
F1523920889.817702
sS'objid'
p414
g8
(g12
S'B\x00\x00\x00\x00\x00\x00\x00'
p415
tp416
Rp417
sa(dp418
S'action'
p419
S'delete'
p420
sS'order'
p421
F1523920889.821398
sS'objid'
p422
g8
(g12
S'A\x00\x00\x00\x00\x00\x00\x00'
p423
tp424
Rp425
sa(dp426
S'action'
p427
S'delete'
p428
sS'order'
p429
F1523920889.825139
sS'objid'
p430
g8
(g12
S'@\x00\x00\x00\x00\x00\x00\x00'
p431
tp432
Rp433
sa(dp434
S'action'
p435
S'delete'
p436
sS'order'
p437
F1523920889.82894
sS'objid'
p438
g8
(g12
S'?\x00\x00\x00\x00\x00\x00\x00'
p439
tp440
Rp441
sa(dp442
S'action'
p443
S'delete'
p444
sS'order'
p445
F1523920889.832794
sS'objid'
p446
g8
(g12
S'=\x00\x00\x00\x00\x00\x00\x00'
p447
tp448
Rp449
sa(dp450
S'action'
p451
S'delete'
p452
sS'order'
p453
F1523920889.836705
sS'objid'
p454
g8
(g12
S'<\x00\x00\x00\x00\x00\x00\x00'
p455
tp456
Rp457
sa(dp458
S'action'
p459
S'delete'
p460
sS'order'
p461
F1523920889.840655
sS'objid'
p462
g8
(g12
S';\x00\x00\x00\x00\x00\x00\x00'
p463
tp464
Rp465
sa(dp466
S'action'
p467
S'delete'
p468
sS'order'
p469
F1523920889.84468
sS'objid'
p470
g8
(g12
S':\x00\x00\x00\x00\x00\x00\x00'
p471
tp472
Rp473
sa(dp474
S'action'
p475
S'delete'
p476
sS'order'
p477
F1523920889.848756
sS'objid'
p478
g8
(g12
S'9\x00\x00\x00\x00\x00\x00\x00'
p479
tp480
Rp481
sa(dp482
S'action'
p483
S'delete'
p484
sS'order'
p485
F1523920889.852881
sS'objid'
p486
g8
(g12
S'8\x00\x00\x00\x00\x00\x00\x00'
p487
tp488
Rp489
sa(dp490
S'action'
p491
S'delete'
p492
sS'order'
p493
F1523920889.857069
sS'objid'
p494
g8
(g12
S'6\x00\x00\x00\x00\x00\x00\x00'
p495
tp496
Rp497
sa(dp498
S'action'
p499
S'delete'
p500
sS'order'
p501
F1523920889.86131
sS'objid'
p502
g8
(g12
S'5\x00\x00\x00\x00\x00\x00\x00'
p503
tp504
Rp505
sa(dp506
S'action'
p507
S'delete'
p508
sS'order'
p509
F1523920889.865601
sS'objid'
p510
g8
(g12
S'4\x00\x00\x00\x00\x00\x00\x00'
p511
tp512
Rp513
sa(dp514
S'action'
p515
S'delete'
p516
sS'order'
p517
F1523920889.869947
sS'objid'
p518
g8
(g12
S'3\x00\x00\x00\x00\x00\x00\x00'
p519
tp520
Rp521
sa(dp522
S'action'
p523
S'delete'
p524
sS'order'
p525
F1523920889.874365
sS'objid'
p526
g8
(g12
S'2\x00\x00\x00\x00\x00\x00\x00'
p527
tp528
Rp529
sa(dp530
S'action'
p531
S'delete'
p532
sS'order'
p533
F1523920889.878841
sS'objid'
p534
g8
(g12
S'1\x00\x00\x00\x00\x00\x00\x00'
p535
tp536
Rp537
sa(dp538
S'action'
p539
S'delete'
p540
sS'order'
p541
F1523920889.883375
sS'objid'
p542
g8
(g12
S'.\x00\x00\x00\x00\x00\x00\x00'
p543
tp544
Rp545
sa(dp546
S'action'
p547
S'delete'
p548
sS'order'
p549
F1523920889.887937
sS'objid'
p550
g8
(g12
S'-\x00\x00\x00\x00\x00\x00\x00'
p551
tp552
Rp553
sa(dp554
S'action'
p555
S'delete'
p556
sS'order'
p557
F1523920889.892565
sS'objid'
p558
g8
(g12
S',\x00\x00\x00\x00\x00\x00\x00'
p559
tp560
Rp561
sa(dp562
S'action'
p563
S'delete'
p564
sS'order'
p565
F1523920889.897259
sS'objid'
p566
g8
(g12
S'*\x00\x00\x00\x00\x00\x00\x00'
p567
tp568
Rp569
sa(dp570
S'action'
p571
S'delete'
p572
sS'order'
p573
F1523920889.902022
sS'objid'
p574
g8
(g12
S')\x00\x00\x00\x00\x00\x00\x00'
p575
tp576
Rp577
sa(dp578
S'action'
p579
S'delete'
p580
sS'order'
p581
F1523920889.906845
sS'objid'
p582
g8
(g12
S'(\x00\x00\x00\x00\x00\x00\x00'
p583
tp584
Rp585
sa(dp586
S'action'
p587
S'delete'
p588
sS'order'
p589
F1523920889.911722
sS'objid'
p590
g8
(g12
S'&\x00\x00\x00\x00\x00\x00\x00'
p591
tp592
Rp593
sa(dp594
S'action'
p595
S'delete'
p596
sS'order'
p597
F1523920889.916722
sS'objid'
p598
g8
(g12
S'%\x00\x00\x00\x00\x00\x00\x00'
p599
tp600
Rp601
sa(dp602
S'action'
p603
S'delete'
p604
sS'order'
p605
F1523920889.921779
sS'objid'
p606
g8
(g12
S'#\x00\x00\x00\x00\x00\x00\x00'
p607
tp608
Rp609
sa(dp610
S'action'
p611
S'delete'
p612
sS'order'
p613
F1523920889.926834
sS'objid'
p614
g8
(g12
S'"\x00\x00\x00\x00\x00\x00\x00'
p615
tp616
Rp617
sa(dp618
S'action'
p619
S'delete'
p620
sS'order'
p621
F1523920889.931957
sS'objid'
p622
g8
(g12
S'!\x00\x00\x00\x00\x00\x00\x00'
p623
tp624
Rp625
sa(dp626
S'action'
p627
S'delete'
p628
sS'order'
p629
F1523920889.937112
sS'objid'
p630
g8
(g12
S' \x00\x00\x00\x00\x00\x00\x00'
p631
tp632
Rp633
sa(dp634
S'action'
p635
S'delete'
p636
sS'order'
p637
F1523920889.942312
sS'objid'
p638
g8
(g12
S'\x1f\x00\x00\x00\x00\x00\x00\x00'
p639
tp640
Rp641
sa(dp642
S'action'
p643
S'delete'
p644
sS'order'
p645
F1523920889.947581
sS'objid'
p646
g8
(g12
S'\x1e\x00\x00\x00\x00\x00\x00\x00'
p647
tp648
Rp649
sa(dp650
S'action'
p651
S'delete'
p652
sS'order'
p653
F1523920889.952911
sS'objid'
p654
g8
(g12
S'\x1c\x00\x00\x00\x00\x00\x00\x00'
p655
tp656
Rp657
sa(dp658
S'action'
p659
S'delete'
p660
sS'order'
p661
F1523920889.958292
sS'objid'
p662
g8
(g12
S'\x1b\x00\x00\x00\x00\x00\x00\x00'
p663
tp664
Rp665
sa(dp666
S'action'
p667
S'delete'
p668
sS'order'
p669
F1523920889.963747
sS'objid'
p670
g8
(g12
S'\x1a\x00\x00\x00\x00\x00\x00\x00'
p671
tp672
Rp673
sa(dp674
S'action'
p675
S'delete'
p676
sS'order'
p677
F1523920889.969238
sS'objid'
p678
g8
(g12
S'\x19\x00\x00\x00\x00\x00\x00\x00'
p679
tp680
Rp681
sa(dp682
S'action'
p683
S'delete'
p684
sS'order'
p685
F1523920896.364992
sS'objid'
p686
g8
(g12
S'\x18\x00\x00\x00\x00\x00\x00\x00'
p687
tp688
Rp689
sa(dp690
S'action'
p691
S'delete'
p692
sS'order'
p693
F1523920896.371035
sS'objid'
p694
g8
(g12
S'\x14\x00\x00\x00\x00\x00\x00\x00'
p695
tp696
Rp697
sa(dp698
S'action'
p699
S'delete'
p700
sS'order'
p701
F1523920896.377514
sS'objid'
p702
g8
(g12
S'\x12\x00\x00\x00\x00\x00\x00\x00'
p703
tp704
Rp705
sa(dp706
S'action'
p707
S'delete'
p708
sS'order'
p709
F1523920896.383455
sS'objid'
p710
g8
(g12
S'\x11\x00\x00\x00\x00\x00\x00\x00'
p711
tp712
Rp713
sa(dp714
S'action'
p715
S'delete'
p716
sS'order'
p717
F1523920896.389298
sS'objid'
p718
g8
(g12
S'\x10\x00\x00\x00\x00\x00\x00\x00'
p719
tp720
Rp721
sa(dp722
S'action'
p723
S'delete'
p724
sS'order'
p725
F1523920896.395237
sS'objid'
p726
g8
(g12
S'\x0f\x00\x00\x00\x00\x00\x00\x00'
p727
tp728
Rp729
sa(dp730
S'action'
p731
S'delete'
p732
sS'order'
p733
F1523920896.401178
sS'objid'
p734
g8
(g12
S'\x0e\x00\x00\x00\x00\x00\x00\x00'
p735
tp736
Rp737
sa(dp738
S'action'
p739
S'delete'
p740
sS'order'
p741
F1523920896.407168
sS'objid'
p742
g8
(g12
S'\r\x00\x00\x00\x00\x00\x00\x00'
p743
tp744
Rp745
sa(dp746
S'action'
p747
S'delete'
p748
sS'order'
p749
F1523920896.413209
sS'objid'
p750
g8
(g12
S'\x0b\x00\x00\x00\x00\x00\x00\x00'
p751
tp752
Rp753
sa(dp754
S'action'
p755
S'delete'
p756
sS'order'
p757
F1523920896.419281
sS'objid'
p758
g8
(g12
S'\n\x00\x00\x00\x00\x00\x00\x00'
p759
tp760
Rp761
sa(dp762
S'action'
p763
S'delete'
p764
sS'order'
p765
F1523920896.425482
sS'objid'
p766
g8
(g12
S'\t\x00\x00\x00\x00\x00\x00\x00'
p767
tp768
Rp769
sa(dp770
S'action'
p771
S'delete'
p772
sS'order'
p773
F1523920896.431743
sS'objid'
p774
g8
(g12
S'\x08\x00\x00\x00\x00\x00\x00\x00'
p775
tp776
Rp777
sa(dp778
S'action'
p779
S'delete'
p780
sS'order'
p781
F1523920896.438018
sS'objid'
p782
g8
(g12
S'\x07\x00\x00\x00\x00\x00\x00\x00'
p783
tp784
Rp785
sa(dp786
S'action'
p787
S'delete'
p788
sS'order'
p789
F1523920896.444409
sS'objid'
p790
g8
(g12
S'\x06\x00\x00\x00\x00\x00\x00\x00'
p791
tp792
Rp793
sa(dp794
S'action'
p795
S'delete'
p796
sS'order'
p797
F1523920896.450763
sS'objid'
p798
g8
(g12
S'\x05\x00\x00\x00\x00\x00\x00\x00'
p799
tp800
Rp801
sa(dp802
S'action'
p803
S'delete'
p804
sS'order'
p805
F1523920896.457202
sS'objid'
p806
g8
(g12
S'\x04\x00\x00\x00\x00\x00\x00\x00'
p807
tp808
Rp809
sa(dp810
S'action'
p811
S'delete'
p812
sS'order'
p813
F1523920896.463695
sS'objid'
p814
g8
(g12
S'\x03\x00\x00\x00\x00\x00\x00\x00'
p815
tp816
Rp817
sa(dp818
S'action'
p819
S'delete'
p820
sS'order'
p821
F1523920896.470264
sS'objid'
p822
g8
(g12
S'\x02\x00\x00\x00\x00\x00\x00\x00'
p823
tp824
Rp825
sa.