(lp0
(dp1
S'cut_frame_global'
p2
I246
sS'cut_time_epoch'
p3
cnumpy.core.multiarray
scalar
p4
(cnumpy
dtype
p5
(S'f8'
p6
I0
I1
tp7
Rp8
(I3
S'<'
p9
NNNI-1
I-1
I0
tp10
bS'\xa2h\xb7\xdf\xa5\xb4\xd6A'
p11
tp12
Rp13
sS'cut_frame_trajectory'
p14
g4
(g5
(S'i8'
p15
I0
I1
tp16
Rp17
(I3
S'<'
p18
NNNI-1
I-1
I0
tp19
bS'\xe4\x00\x00\x00\x00\x00\x00\x00'
p20
tp21
Rp22
sS'objid'
p23
g4
(g17
S'\x01\x00\x00\x00\x00\x00\x00\x00'
p24
tp25
Rp26
sS'action'
p27
S'cut'
p28
sS'order'
p29
F1523928853.578903
sS'new_objid'
p30
g4
(g17
S'\x82\x00\x00\x00\x00\x00\x00\x00'
p31
tp32
Rp33
sa(dp34
S'action'
p35
S'join'
p36
sS'data_to_add'
p37
(lp38
sS'order'
p39
F1523928861.337237
sS'new_objid'
p40
g4
(g17
S'\x83\x00\x00\x00\x00\x00\x00\x00'
p41
tp42
Rp43
sS'objids'
p44
(lp45
g4
(g17
S'\x82\x00\x00\x00\x00\x00\x00\x00'
p46
tp47
Rp48
ag4
(g17
S'\x00\x00\x00\x00\x00\x00\x00\x00'
p49
tp50
Rp51
asa(dp52
S'action'
p53
S'join'
p54
sS'data_to_add'
p55
(lp56
sS'order'
p57
F1523928873.168498
sS'new_objid'
p58
g4
(g17
S'\x84\x00\x00\x00\x00\x00\x00\x00'
p59
tp60
Rp61
sS'objids'
p62
(lp63
g4
(g17
S'%\x00\x00\x00\x00\x00\x00\x00'
p64
tp65
Rp66
ag4
(g17
S'\x83\x00\x00\x00\x00\x00\x00\x00'
p67
tp68
Rp69
asa(dp70
S'action'
p71
S'join'
p72
sS'data_to_add'
p73
(lp74
sS'order'
p75
F1523928886.975438
sS'new_objid'
p76
g4
(g17
S'\x85\x00\x00\x00\x00\x00\x00\x00'
p77
tp78
Rp79
sS'objids'
p80
(lp81
g4
(g17
S'\x84\x00\x00\x00\x00\x00\x00\x00'
p82
tp83
Rp84
ag4
(g17
S'N\x00\x00\x00\x00\x00\x00\x00'
p85
tp86
Rp87
asa(dp88
S'action'
p89
S'join'
p90
sS'data_to_add'
p91
(lp92
sS'order'
p93
F1523928897.126215
sS'new_objid'
p94
g4
(g17
S'\x86\x00\x00\x00\x00\x00\x00\x00'
p95
tp96
Rp97
sS'objids'
p98
(lp99
g4
(g17
S'a\x00\x00\x00\x00\x00\x00\x00'
p100
tp101
Rp102
ag4
(g17
S'\\\x00\x00\x00\x00\x00\x00\x00'
p103
tp104
Rp105
ag4
(g17
S'\x85\x00\x00\x00\x00\x00\x00\x00'
p106
tp107
Rp108
ag4
(g17
S']\x00\x00\x00\x00\x00\x00\x00'
p109
tp110
Rp111
asa(dp112
S'action'
p113
S'join'
p114
sS'data_to_add'
p115
(lp116
sS'order'
p117
F1523928902.953131
sS'new_objid'
p118
g4
(g17
S'\x87\x00\x00\x00\x00\x00\x00\x00'
p119
tp120
Rp121
sS'objids'
p122
(lp123
g4
(g17
S'g\x00\x00\x00\x00\x00\x00\x00'
p124
tp125
Rp126
ag4
(g17
S'\x86\x00\x00\x00\x00\x00\x00\x00'
p127
tp128
Rp129
asa(dp130
S'action'
p131
S'delete'
p132
sS'order'
p133
F1523928919.969614
sS'objid'
p134
g4
(g17
S'v\x00\x00\x00\x00\x00\x00\x00'
p135
tp136
Rp137
sa(dp138
S'action'
p139
S'delete'
p140
sS'order'
p141
F1523928919.971899
sS'objid'
p142
g4
(g17
S'u\x00\x00\x00\x00\x00\x00\x00'
p143
tp144
Rp145
sa(dp146
S'action'
p147
S'delete'
p148
sS'order'
p149
F1523928919.973677
sS'objid'
p150
g4
(g17
S't\x00\x00\x00\x00\x00\x00\x00'
p151
tp152
Rp153
sa(dp154
S'action'
p155
S'delete'
p156
sS'order'
p157
F1523928919.975826
sS'objid'
p158
g4
(g17
S's\x00\x00\x00\x00\x00\x00\x00'
p159
tp160
Rp161
sa(dp162
S'action'
p163
S'delete'
p164
sS'order'
p165
F1523928919.978214
sS'objid'
p166
g4
(g17
S'r\x00\x00\x00\x00\x00\x00\x00'
p167
tp168
Rp169
sa(dp170
S'action'
p171
S'delete'
p172
sS'order'
p173
F1523928919.980769
sS'objid'
p174
g4
(g17
S'q\x00\x00\x00\x00\x00\x00\x00'
p175
tp176
Rp177
sa(dp178
S'action'
p179
S'delete'
p180
sS'order'
p181
F1523928919.985114
sS'objid'
p182
g4
(g17
S'p\x00\x00\x00\x00\x00\x00\x00'
p183
tp184
Rp185
sa(dp186
S'action'
p187
S'delete'
p188
sS'order'
p189
F1523928919.989196
sS'objid'
p190
g4
(g17
S'o\x00\x00\x00\x00\x00\x00\x00'
p191
tp192
Rp193
sa(dp194
S'action'
p195
S'delete'
p196
sS'order'
p197
F1523928919.992543
sS'objid'
p198
g4
(g17
S'n\x00\x00\x00\x00\x00\x00\x00'
p199
tp200
Rp201
sa(dp202
S'action'
p203
S'delete'
p204
sS'order'
p205
F1523928919.994689
sS'objid'
p206
g4
(g17
S'm\x00\x00\x00\x00\x00\x00\x00'
p207
tp208
Rp209
sa(dp210
S'action'
p211
S'delete'
p212
sS'order'
p213
F1523928919.996903
sS'objid'
p214
g4
(g17
S'l\x00\x00\x00\x00\x00\x00\x00'
p215
tp216
Rp217
sa(dp218
S'action'
p219
S'delete'
p220
sS'order'
p221
F1523928920.000223
sS'objid'
p222
g4
(g17
S'k\x00\x00\x00\x00\x00\x00\x00'
p223
tp224
Rp225
sa(dp226
S'action'
p227
S'delete'
p228
sS'order'
p229
F1523928920.005434
sS'objid'
p230
g4
(g17
S'j\x00\x00\x00\x00\x00\x00\x00'
p231
tp232
Rp233
sa(dp234
S'action'
p235
S'delete'
p236
sS'order'
p237
F1523928920.009425
sS'objid'
p238
g4
(g17
S'i\x00\x00\x00\x00\x00\x00\x00'
p239
tp240
Rp241
sa(dp242
S'action'
p243
S'delete'
p244
sS'order'
p245
F1523928920.011873
sS'objid'
p246
g4
(g17
S'h\x00\x00\x00\x00\x00\x00\x00'
p247
tp248
Rp249
sa(dp250
S'action'
p251
S'delete'
p252
sS'order'
p253
F1523928920.01436
sS'objid'
p254
g4
(g17
S'f\x00\x00\x00\x00\x00\x00\x00'
p255
tp256
Rp257
sa(dp258
S'action'
p259
S'delete'
p260
sS'order'
p261
F1523928920.016923
sS'objid'
p262
g4
(g17
S'e\x00\x00\x00\x00\x00\x00\x00'
p263
tp264
Rp265
sa(dp266
S'action'
p267
S'delete'
p268
sS'order'
p269
F1523928920.019531
sS'objid'
p270
g4
(g17
S'd\x00\x00\x00\x00\x00\x00\x00'
p271
tp272
Rp273
sa(dp274
S'action'
p275
S'delete'
p276
sS'order'
p277
F1523928920.022196
sS'objid'
p278
g4
(g17
S'c\x00\x00\x00\x00\x00\x00\x00'
p279
tp280
Rp281
sa(dp282
S'action'
p283
S'delete'
p284
sS'order'
p285
F1523928920.02493
sS'objid'
p286
g4
(g17
S'b\x00\x00\x00\x00\x00\x00\x00'
p287
tp288
Rp289
sa(dp290
S'action'
p291
S'delete'
p292
sS'order'
p293
F1523928920.02775
sS'objid'
p294
g4
(g17
S'`\x00\x00\x00\x00\x00\x00\x00'
p295
tp296
Rp297
sa(dp298
S'action'
p299
S'delete'
p300
sS'order'
p301
F1523928920.030596
sS'objid'
p302
g4
(g17
S'_\x00\x00\x00\x00\x00\x00\x00'
p303
tp304
Rp305
sa(dp306
S'action'
p307
S'delete'
p308
sS'order'
p309
F1523928920.033504
sS'objid'
p310
g4
(g17
S'^\x00\x00\x00\x00\x00\x00\x00'
p311
tp312
Rp313
sa(dp314
S'action'
p315
S'delete'
p316
sS'order'
p317
F1523928920.036472
sS'objid'
p318
g4
(g17
S'[\x00\x00\x00\x00\x00\x00\x00'
p319
tp320
Rp321
sa(dp322
S'action'
p323
S'delete'
p324
sS'order'
p325
F1523928920.039492
sS'objid'
p326
g4
(g17
S'Z\x00\x00\x00\x00\x00\x00\x00'
p327
tp328
Rp329
sa(dp330
S'action'
p331
S'delete'
p332
sS'order'
p333
F1523928920.042606
sS'objid'
p334
g4
(g17
S'Y\x00\x00\x00\x00\x00\x00\x00'
p335
tp336
Rp337
sa(dp338
S'action'
p339
S'delete'
p340
sS'order'
p341
F1523928920.045806
sS'objid'
p342
g4
(g17
S'X\x00\x00\x00\x00\x00\x00\x00'
p343
tp344
Rp345
sa(dp346
S'action'
p347
S'delete'
p348
sS'order'
p349
F1523928920.049009
sS'objid'
p350
g4
(g17
S'W\x00\x00\x00\x00\x00\x00\x00'
p351
tp352
Rp353
sa(dp354
S'action'
p355
S'delete'
p356
sS'order'
p357
F1523928920.052279
sS'objid'
p358
g4
(g17
S'V\x00\x00\x00\x00\x00\x00\x00'
p359
tp360
Rp361
sa(dp362
S'action'
p363
S'delete'
p364
sS'order'
p365
F1523928920.055605
sS'objid'
p366
g4
(g17
S'U\x00\x00\x00\x00\x00\x00\x00'
p367
tp368
Rp369
sa(dp370
S'action'
p371
S'delete'
p372
sS'order'
p373
F1523928920.058981
sS'objid'
p374
g4
(g17
S'T\x00\x00\x00\x00\x00\x00\x00'
p375
tp376
Rp377
sa(dp378
S'action'
p379
S'delete'
p380
sS'order'
p381
F1523928920.062417
sS'objid'
p382
g4
(g17
S'S\x00\x00\x00\x00\x00\x00\x00'
p383
tp384
Rp385
sa(dp386
S'action'
p387
S'delete'
p388
sS'order'
p389
F1523928920.065909
sS'objid'
p390
g4
(g17
S'R\x00\x00\x00\x00\x00\x00\x00'
p391
tp392
Rp393
sa(dp394
S'action'
p395
S'delete'
p396
sS'order'
p397
F1523928920.069458
sS'objid'
p398
g4
(g17
S'Q\x00\x00\x00\x00\x00\x00\x00'
p399
tp400
Rp401
sa(dp402
S'action'
p403
S'delete'
p404
sS'order'
p405
F1523928920.073081
sS'objid'
p406
g4
(g17
S'P\x00\x00\x00\x00\x00\x00\x00'
p407
tp408
Rp409
sa(dp410
S'action'
p411
S'delete'
p412
sS'order'
p413
F1523928920.076746
sS'objid'
p414
g4
(g17
S'O\x00\x00\x00\x00\x00\x00\x00'
p415
tp416
Rp417
sa(dp418
S'action'
p419
S'delete'
p420
sS'order'
p421
F1523928920.080474
sS'objid'
p422
g4
(g17
S'M\x00\x00\x00\x00\x00\x00\x00'
p423
tp424
Rp425
sa(dp426
S'action'
p427
S'delete'
p428
sS'order'
p429
F1523928920.084265
sS'objid'
p430
g4
(g17
S'L\x00\x00\x00\x00\x00\x00\x00'
p431
tp432
Rp433
sa(dp434
S'action'
p435
S'delete'
p436
sS'order'
p437
F1523928920.088107
sS'objid'
p438
g4
(g17
S'K\x00\x00\x00\x00\x00\x00\x00'
p439
tp440
Rp441
sa(dp442
S'action'
p443
S'delete'
p444
sS'order'
p445
F1523928920.09202
sS'objid'
p446
g4
(g17
S'J\x00\x00\x00\x00\x00\x00\x00'
p447
tp448
Rp449
sa(dp450
S'action'
p451
S'delete'
p452
sS'order'
p453
F1523928920.095984
sS'objid'
p454
g4
(g17
S'I\x00\x00\x00\x00\x00\x00\x00'
p455
tp456
Rp457
sa(dp458
S'action'
p459
S'delete'
p460
sS'order'
p461
F1523928920.100052
sS'objid'
p462
g4
(g17
S'H\x00\x00\x00\x00\x00\x00\x00'
p463
tp464
Rp465
sa(dp466
S'action'
p467
S'delete'
p468
sS'order'
p469
F1523928920.104521
sS'objid'
p470
g4
(g17
S'G\x00\x00\x00\x00\x00\x00\x00'
p471
tp472
Rp473
sa(dp474
S'action'
p475
S'delete'
p476
sS'order'
p477
F1523928920.108753
sS'objid'
p478
g4
(g17
S'F\x00\x00\x00\x00\x00\x00\x00'
p479
tp480
Rp481
sa(dp482
S'action'
p483
S'delete'
p484
sS'order'
p485
F1523928920.112991
sS'objid'
p486
g4
(g17
S'E\x00\x00\x00\x00\x00\x00\x00'
p487
tp488
Rp489
sa(dp490
S'action'
p491
S'delete'
p492
sS'order'
p493
F1523928920.117276
sS'objid'
p494
g4
(g17
S'D\x00\x00\x00\x00\x00\x00\x00'
p495
tp496
Rp497
sa(dp498
S'action'
p499
S'delete'
p500
sS'order'
p501
F1523928920.121629
sS'objid'
p502
g4
(g17
S'C\x00\x00\x00\x00\x00\x00\x00'
p503
tp504
Rp505
sa(dp506
S'action'
p507
S'delete'
p508
sS'order'
p509
F1523928920.126014
sS'objid'
p510
g4
(g17
S'B\x00\x00\x00\x00\x00\x00\x00'
p511
tp512
Rp513
sa(dp514
S'action'
p515
S'delete'
p516
sS'order'
p517
F1523928920.131725
sS'objid'
p518
g4
(g17
S'A\x00\x00\x00\x00\x00\x00\x00'
p519
tp520
Rp521
sa(dp522
S'action'
p523
S'delete'
p524
sS'order'
p525
F1523928920.139642
sS'objid'
p526
g4
(g17
S'@\x00\x00\x00\x00\x00\x00\x00'
p527
tp528
Rp529
sa(dp530
S'action'
p531
S'delete'
p532
sS'order'
p533
F1523928920.1477
sS'objid'
p534
g4
(g17
S'?\x00\x00\x00\x00\x00\x00\x00'
p535
tp536
Rp537
sa(dp538
S'action'
p539
S'delete'
p540
sS'order'
p541
F1523928920.153933
sS'objid'
p542
g4
(g17
S'>\x00\x00\x00\x00\x00\x00\x00'
p543
tp544
Rp545
sa(dp546
S'action'
p547
S'delete'
p548
sS'order'
p549
F1523928920.158625
sS'objid'
p550
g4
(g17
S'=\x00\x00\x00\x00\x00\x00\x00'
p551
tp552
Rp553
sa(dp554
S'action'
p555
S'delete'
p556
sS'order'
p557
F1523928920.163373
sS'objid'
p558
g4
(g17
S'<\x00\x00\x00\x00\x00\x00\x00'
p559
tp560
Rp561
sa(dp562
S'action'
p563
S'delete'
p564
sS'order'
p565
F1523928920.168193
sS'objid'
p566
g4
(g17
S';\x00\x00\x00\x00\x00\x00\x00'
p567
tp568
Rp569
sa(dp570
S'action'
p571
S'delete'
p572
sS'order'
p573
F1523928920.173016
sS'objid'
p574
g4
(g17
S':\x00\x00\x00\x00\x00\x00\x00'
p575
tp576
Rp577
sa(dp578
S'action'
p579
S'delete'
p580
sS'order'
p581
F1523928920.178006
sS'objid'
p582
g4
(g17
S'9\x00\x00\x00\x00\x00\x00\x00'
p583
tp584
Rp585
sa(dp586
S'action'
p587
S'delete'
p588
sS'order'
p589
F1523928920.182962
sS'objid'
p590
g4
(g17
S'8\x00\x00\x00\x00\x00\x00\x00'
p591
tp592
Rp593
sa(dp594
S'action'
p595
S'delete'
p596
sS'order'
p597
F1523928920.188041
sS'objid'
p598
g4
(g17
S'7\x00\x00\x00\x00\x00\x00\x00'
p599
tp600
Rp601
sa(dp602
S'action'
p603
S'delete'
p604
sS'order'
p605
F1523928920.19313
sS'objid'
p606
g4
(g17
S'6\x00\x00\x00\x00\x00\x00\x00'
p607
tp608
Rp609
sa(dp610
S'action'
p611
S'delete'
p612
sS'order'
p613
F1523928920.198277
sS'objid'
p614
g4
(g17
S'5\x00\x00\x00\x00\x00\x00\x00'
p615
tp616
Rp617
sa(dp618
S'action'
p619
S'delete'
p620
sS'order'
p621
F1523928920.203516
sS'objid'
p622
g4
(g17
S'4\x00\x00\x00\x00\x00\x00\x00'
p623
tp624
Rp625
sa(dp626
S'action'
p627
S'delete'
p628
sS'order'
p629
F1523928920.208776
sS'objid'
p630
g4
(g17
S'3\x00\x00\x00\x00\x00\x00\x00'
p631
tp632
Rp633
sa(dp634
S'action'
p635
S'delete'
p636
sS'order'
p637
F1523928920.214068
sS'objid'
p638
g4
(g17
S'2\x00\x00\x00\x00\x00\x00\x00'
p639
tp640
Rp641
sa(dp642
S'action'
p643
S'delete'
p644
sS'order'
p645
F1523928920.21941
sS'objid'
p646
g4
(g17
S'1\x00\x00\x00\x00\x00\x00\x00'
p647
tp648
Rp649
sa(dp650
S'action'
p651
S'delete'
p652
sS'order'
p653
F1523928920.22484
sS'objid'
p654
g4
(g17
S'0\x00\x00\x00\x00\x00\x00\x00'
p655
tp656
Rp657
sa(dp658
S'action'
p659
S'delete'
p660
sS'order'
p661
F1523928920.230328
sS'objid'
p662
g4
(g17
S'\x12\x00\x00\x00\x00\x00\x00\x00'
p663
tp664
Rp665
sa(dp666
S'action'
p667
S'delete'
p668
sS'order'
p669
F1523928930.169994
sS'objid'
p670
g4
(g17
S'/\x00\x00\x00\x00\x00\x00\x00'
p671
tp672
Rp673
sa(dp674
S'action'
p675
S'delete'
p676
sS'order'
p677
F1523928930.178518
sS'objid'
p678
g4
(g17
S'.\x00\x00\x00\x00\x00\x00\x00'
p679
tp680
Rp681
sa(dp682
S'action'
p683
S'delete'
p684
sS'order'
p685
F1523928930.184792
sS'objid'
p686
g4
(g17
S'-\x00\x00\x00\x00\x00\x00\x00'
p687
tp688
Rp689
sa(dp690
S'action'
p691
S'delete'
p692
sS'order'
p693
F1523928930.190523
sS'objid'
p694
g4
(g17
S',\x00\x00\x00\x00\x00\x00\x00'
p695
tp696
Rp697
sa(dp698
S'action'
p699
S'delete'
p700
sS'order'
p701
F1523928930.19641
sS'objid'
p702
g4
(g17
S'+\x00\x00\x00\x00\x00\x00\x00'
p703
tp704
Rp705
sa(dp706
S'action'
p707
S'delete'
p708
sS'order'
p709
F1523928930.202345
sS'objid'
p710
g4
(g17
S'*\x00\x00\x00\x00\x00\x00\x00'
p711
tp712
Rp713
sa(dp714
S'action'
p715
S'delete'
p716
sS'order'
p717
F1523928930.208217
sS'objid'
p718
g4
(g17
S')\x00\x00\x00\x00\x00\x00\x00'
p719
tp720
Rp721
sa(dp722
S'action'
p723
S'delete'
p724
sS'order'
p725
F1523928930.21431
sS'objid'
p726
g4
(g17
S'(\x00\x00\x00\x00\x00\x00\x00'
p727
tp728
Rp729
sa(dp730
S'action'
p731
S'delete'
p732
sS'order'
p733
F1523928930.221389
sS'objid'
p734
g4
(g17
S"'\x00\x00\x00\x00\x00\x00\x00"
p735
tp736
Rp737
sa(dp738
S'action'
p739
S'delete'
p740
sS'order'
p741
F1523928930.228157
sS'objid'
p742
g4
(g17
S'&\x00\x00\x00\x00\x00\x00\x00'
p743
tp744
Rp745
sa(dp746
S'action'
p747
S'delete'
p748
sS'order'
p749
F1523928930.234315
sS'objid'
p750
g4
(g17
S'$\x00\x00\x00\x00\x00\x00\x00'
p751
tp752
Rp753
sa(dp754
S'action'
p755
S'delete'
p756
sS'order'
p757
F1523928930.240501
sS'objid'
p758
g4
(g17
S'#\x00\x00\x00\x00\x00\x00\x00'
p759
tp760
Rp761
sa(dp762
S'action'
p763
S'delete'
p764
sS'order'
p765
F1523928930.246721
sS'objid'
p766
g4
(g17
S'"\x00\x00\x00\x00\x00\x00\x00'
p767
tp768
Rp769
sa(dp770
S'action'
p771
S'delete'
p772
sS'order'
p773
F1523928930.252991
sS'objid'
p774
g4
(g17
S'!\x00\x00\x00\x00\x00\x00\x00'
p775
tp776
Rp777
sa(dp778
S'action'
p779
S'delete'
p780
sS'order'
p781
F1523928930.259294
sS'objid'
p782
g4
(g17
S' \x00\x00\x00\x00\x00\x00\x00'
p783
tp784
Rp785
sa(dp786
S'action'
p787
S'delete'
p788
sS'order'
p789
F1523928930.265666
sS'objid'
p790
g4
(g17
S'\x1f\x00\x00\x00\x00\x00\x00\x00'
p791
tp792
Rp793
sa(dp794
S'action'
p795
S'delete'
p796
sS'order'
p797
F1523928930.272093
sS'objid'
p798
g4
(g17
S'\x1e\x00\x00\x00\x00\x00\x00\x00'
p799
tp800
Rp801
sa(dp802
S'action'
p803
S'delete'
p804
sS'order'
p805
F1523928930.278562
sS'objid'
p806
g4
(g17
S'\x1d\x00\x00\x00\x00\x00\x00\x00'
p807
tp808
Rp809
sa(dp810
S'action'
p811
S'delete'
p812
sS'order'
p813
F1523928930.285113
sS'objid'
p814
g4
(g17
S'\x1c\x00\x00\x00\x00\x00\x00\x00'
p815
tp816
Rp817
sa(dp818
S'action'
p819
S'delete'
p820
sS'order'
p821
F1523928930.291741
sS'objid'
p822
g4
(g17
S'\x1b\x00\x00\x00\x00\x00\x00\x00'
p823
tp824
Rp825
sa(dp826
S'action'
p827
S'delete'
p828
sS'order'
p829
F1523928930.298436
sS'objid'
p830
g4
(g17
S'\x1a\x00\x00\x00\x00\x00\x00\x00'
p831
tp832
Rp833
sa(dp834
S'action'
p835
S'delete'
p836
sS'order'
p837
F1523928930.305157
sS'objid'
p838
g4
(g17
S'\x19\x00\x00\x00\x00\x00\x00\x00'
p839
tp840
Rp841
sa(dp842
S'action'
p843
S'delete'
p844
sS'order'
p845
F1523928930.311935
sS'objid'
p846
g4
(g17
S'\x18\x00\x00\x00\x00\x00\x00\x00'
p847
tp848
Rp849
sa(dp850
S'action'
p851
S'delete'
p852
sS'order'
p853
F1523928930.319643
sS'objid'
p854
g4
(g17
S'\x17\x00\x00\x00\x00\x00\x00\x00'
p855
tp856
Rp857
sa(dp858
S'action'
p859
S'delete'
p860
sS'order'
p861
F1523928930.327429
sS'objid'
p862
g4
(g17
S'\x16\x00\x00\x00\x00\x00\x00\x00'
p863
tp864
Rp865
sa(dp866
S'action'
p867
S'delete'
p868
sS'order'
p869
F1523928930.334476
sS'objid'
p870
g4
(g17
S'\x15\x00\x00\x00\x00\x00\x00\x00'
p871
tp872
Rp873
sa(dp874
S'action'
p875
S'delete'
p876
sS'order'
p877
F1523928930.341528
sS'objid'
p878
g4
(g17
S'\x14\x00\x00\x00\x00\x00\x00\x00'
p879
tp880
Rp881
sa(dp882
S'action'
p883
S'delete'
p884
sS'order'
p885
F1523928930.348632
sS'objid'
p886
g4
(g17
S'\x13\x00\x00\x00\x00\x00\x00\x00'
p887
tp888
Rp889
sa(dp890
S'action'
p891
S'delete'
p892
sS'order'
p893
F1523928930.355757
sS'objid'
p894
g4
(g17
S'\x11\x00\x00\x00\x00\x00\x00\x00'
p895
tp896
Rp897
sa(dp898
S'action'
p899
S'delete'
p900
sS'order'
p901
F1523928930.362922
sS'objid'
p902
g4
(g17
S'\x10\x00\x00\x00\x00\x00\x00\x00'
p903
tp904
Rp905
sa(dp906
S'action'
p907
S'delete'
p908
sS'order'
p909
F1523928930.370168
sS'objid'
p910
g4
(g17
S'\x0f\x00\x00\x00\x00\x00\x00\x00'
p911
tp912
Rp913
sa(dp914
S'action'
p915
S'delete'
p916
sS'order'
p917
F1523928930.37747
sS'objid'
p918
g4
(g17
S'\x0e\x00\x00\x00\x00\x00\x00\x00'
p919
tp920
Rp921
sa(dp922
S'action'
p923
S'delete'
p924
sS'order'
p925
F1523928930.384831
sS'objid'
p926
g4
(g17
S'\r\x00\x00\x00\x00\x00\x00\x00'
p927
tp928
Rp929
sa(dp930
S'action'
p931
S'delete'
p932
sS'order'
p933
F1523928930.392254
sS'objid'
p934
g4
(g17
S'\x0c\x00\x00\x00\x00\x00\x00\x00'
p935
tp936
Rp937
sa(dp938
S'action'
p939
S'delete'
p940
sS'order'
p941
F1523928930.399732
sS'objid'
p942
g4
(g17
S'\x0b\x00\x00\x00\x00\x00\x00\x00'
p943
tp944
Rp945
sa(dp946
S'action'
p947
S'delete'
p948
sS'order'
p949
F1523928930.40726
sS'objid'
p950
g4
(g17
S'\n\x00\x00\x00\x00\x00\x00\x00'
p951
tp952
Rp953
sa(dp954
S'action'
p955
S'delete'
p956
sS'order'
p957
F1523928930.414896
sS'objid'
p958
g4
(g17
S'\t\x00\x00\x00\x00\x00\x00\x00'
p959
tp960
Rp961
sa(dp962
S'action'
p963
S'delete'
p964
sS'order'
p965
F1523928930.42365
sS'objid'
p966
g4
(g17
S'\x08\x00\x00\x00\x00\x00\x00\x00'
p967
tp968
Rp969
sa(dp970
S'action'
p971
S'delete'
p972
sS'order'
p973
F1523928930.432102
sS'objid'
p974
g4
(g17
S'\x07\x00\x00\x00\x00\x00\x00\x00'
p975
tp976
Rp977
sa(dp978
S'action'
p979
S'delete'
p980
sS'order'
p981
F1523928930.439944
sS'objid'
p982
g4
(g17
S'\x06\x00\x00\x00\x00\x00\x00\x00'
p983
tp984
Rp985
sa(dp986
S'action'
p987
S'delete'
p988
sS'order'
p989
F1523928930.447786
sS'objid'
p990
g4
(g17
S'\x05\x00\x00\x00\x00\x00\x00\x00'
p991
tp992
Rp993
sa(dp994
S'action'
p995
S'delete'
p996
sS'order'
p997
F1523928930.455683
sS'objid'
p998
g4
(g17
S'\x04\x00\x00\x00\x00\x00\x00\x00'
p999
tp1000
Rp1001
sa(dp1002
S'action'
p1003
S'delete'
p1004
sS'order'
p1005
F1523928930.463633
sS'objid'
p1006
g4
(g17
S'\x03\x00\x00\x00\x00\x00\x00\x00'
p1007
tp1008
Rp1009
sa(dp1010
S'action'
p1011
S'delete'
p1012
sS'order'
p1013
F1523928930.471666
sS'objid'
p1014
g4
(g17
S'\x02\x00\x00\x00\x00\x00\x00\x00'
p1015
tp1016
Rp1017
sa(dp1018
S'action'
p1019
S'delete'
p1020
sS'order'
p1021
F1523928930.479704
sS'objid'
p1022
g4
(g17
S'\x01\x00\x00\x00\x00\x00\x00\x00'
p1023
tp1024
Rp1025
sa.