(lp0
(dp1
S'action'
p2
S'join'
p3
sS'data_to_add'
p4
(lp5
sS'order'
p6
F1523908256.787392
sS'new_objid'
p7
cnumpy.core.multiarray
scalar
p8
(cnumpy
dtype
p9
(S'i8'
p10
I0
I1
tp11
Rp12
(I3
S'<'
p13
NNNI-1
I-1
I0
tp14
bS'\x0e\x00\x00\x00\x00\x00\x00\x00'
p15
tp16
Rp17
sS'objids'
p18
(lp19
g8
(g12
S'\x01\x00\x00\x00\x00\x00\x00\x00'
p20
tp21
Rp22
ag8
(g12
S'\x02\x00\x00\x00\x00\x00\x00\x00'
p23
tp24
Rp25
asa(dp26
g2
S'delete'
p27
sg6
F1523908266.394036
sS'objid'
p28
g8
(g12
S'\x03\x00\x00\x00\x00\x00\x00\x00'
p29
tp30
Rp31
sa(dp32
S'action'
p33
S'join'
p34
sS'data_to_add'
p35
(lp36
sS'order'
p37
F1523908270.7046
sS'new_objid'
p38
g8
(g12
S'\x0f\x00\x00\x00\x00\x00\x00\x00'
p39
tp40
Rp41
sS'objids'
p42
(lp43
sa(dp44
S'action'
p45
S'join'
p46
sS'data_to_add'
p47
(lp48
sS'order'
p49
F1523908275.081468
sS'new_objid'
p50
g8
(g12
S'\x10\x00\x00\x00\x00\x00\x00\x00'
p51
tp52
Rp53
sS'objids'
p54
(lp55
g8
(g12
S'\x00\x00\x00\x00\x00\x00\x00\x00'
p56
tp57
Rp58
ag8
(g12
S'\x0e\x00\x00\x00\x00\x00\x00\x00'
p59
tp60
Rp61
asa.