(lp0
(dp1
S'cut_frame_global'
p2
I117
sS'cut_time_epoch'
p3
cnumpy.core.multiarray
scalar
p4
(cnumpy
dtype
p5
(S'f8'
p6
I0
I1
tp7
Rp8
(I3
S'<'
p9
NNNI-1
I-1
I0
tp10
bS'<\xc1,I\x88\xb4\xd6A'
p11
tp12
Rp13
sS'cut_frame_trajectory'
p14
g4
(g5
(S'i8'
p15
I0
I1
tp16
Rp17
(I3
S'<'
p18
NNNI-1
I-1
I0
tp19
bS'\x01\x00\x00\x00\x00\x00\x00\x00'
p20
tp21
Rp22
sS'objid'
p23
g4
(g17
S'\x0c\x00\x00\x00\x00\x00\x00\x00'
p24
tp25
Rp26
sS'action'
p27
S'cut'
p28
sS'order'
p29
F1523916592.809144
sS'new_objid'
p30
g4
(g17
S't\x00\x00\x00\x00\x00\x00\x00'
p31
tp32
Rp33
sa(dp34
g27
S'join'
p35
sS'data_to_add'
p36
(lp37
sg29
F1523916598.262118
sg30
g4
(g17
S'u\x00\x00\x00\x00\x00\x00\x00'
p38
tp39
Rp40
sS'objids'
p41
(lp42
g4
(g17
S't\x00\x00\x00\x00\x00\x00\x00'
p43
tp44
Rp45
ag4
(g17
S'\x05\x00\x00\x00\x00\x00\x00\x00'
p46
tp47
Rp48
ag4
(g17
S'\x00\x00\x00\x00\x00\x00\x00\x00'
p49
tp50
Rp51
asa(dp52
S'cut_frame_global'
p53
I249
sS'cut_time_epoch'
p54
g4
(g8
S' \x8eyL\x88\xb4\xd6A'
p55
tp56
Rp57
sS'cut_frame_trajectory'
p58
g4
(g17
S'\x02\x00\x00\x00\x00\x00\x00\x00'
p59
tp60
Rp61
sS'objid'
p62
g4
(g17
S'\x15\x00\x00\x00\x00\x00\x00\x00'
p63
tp64
Rp65
sS'action'
p66
S'cut'
p67
sS'order'
p68
F1523916617.000397
sS'new_objid'
p69
g4
(g17
S'w\x00\x00\x00\x00\x00\x00\x00'
p70
tp71
Rp72
sa(dp73
S'action'
p74
S'join'
p75
sS'data_to_add'
p76
(lp77
sS'order'
p78
F1523916644.250063
sS'new_objid'
p79
g4
(g17
S'{\x00\x00\x00\x00\x00\x00\x00'
p80
tp81
Rp82
sS'objids'
p83
(lp84
g4
(g17
S'\x17\x00\x00\x00\x00\x00\x00\x00'
p85
tp86
Rp87
ag4
(g17
S'u\x00\x00\x00\x00\x00\x00\x00'
p88
tp89
Rp90
ag4
(g17
S'\x13\x00\x00\x00\x00\x00\x00\x00'
p91
tp92
Rp93
ag4
(g17
S'w\x00\x00\x00\x00\x00\x00\x00'
p94
tp95
Rp96
asa(dp97
S'cut_frame_global'
p98
I1042
sS'cut_time_epoch'
p99
g4
(g8
S'h\xc0L`\x88\xb4\xd6A'
p100
tp101
Rp102
sS'cut_frame_trajectory'
p103
g4
(g17
S'\x02\x00\x00\x00\x00\x00\x00\x00'
p104
tp105
Rp106
sS'objid'
p107
g4
(g17
S'B\x00\x00\x00\x00\x00\x00\x00'
p108
tp109
Rp110
sS'action'
p111
S'cut'
p112
sS'order'
p113
F1523916663.121211
sS'new_objid'
p114
g4
(g17
S'|\x00\x00\x00\x00\x00\x00\x00'
p115
tp116
Rp117
sa(dp118
S'action'
p119
S'join'
p120
sS'data_to_add'
p121
(lp122
sS'order'
p123
F1523916666.354188
sS'new_objid'
p124
g4
(g17
S'}\x00\x00\x00\x00\x00\x00\x00'
p125
tp126
Rp127
sS'objids'
p128
(lp129
g4
(g17
S'|\x00\x00\x00\x00\x00\x00\x00'
p130
tp131
Rp132
ag4
(g17
S'{\x00\x00\x00\x00\x00\x00\x00'
p133
tp134
Rp135
asa(dp136
S'cut_frame_global'
p137
I1162
sS'cut_time_epoch'
p138
g4
(g8
S'8\xc0Lc\x88\xb4\xd6A'
p139
tp140
Rp141
sS'cut_frame_trajectory'
p142
g4
(g17
S'\x01\x00\x00\x00\x00\x00\x00\x00'
p143
tp144
Rp145
sS'objid'
p146
g4
(g17
S'H\x00\x00\x00\x00\x00\x00\x00'
p147
tp148
Rp149
sS'action'
p150
S'cut'
p151
sS'order'
p152
F1523916675.426698
sS'new_objid'
p153
g4
(g17
S'~\x00\x00\x00\x00\x00\x00\x00'
p154
tp155
Rp156
sa(dp157
S'action'
p158
S'join'
p159
sS'data_to_add'
p160
(lp161
sS'order'
p162
F1523916679.272233
sS'new_objid'
p163
g4
(g17
S'\x7f\x00\x00\x00\x00\x00\x00\x00'
p164
tp165
Rp166
sS'objids'
p167
(lp168
g4
(g17
S'~\x00\x00\x00\x00\x00\x00\x00'
p169
tp170
Rp171
ag4
(g17
S'}\x00\x00\x00\x00\x00\x00\x00'
p172
tp173
Rp174
asa(dp175
S'action'
p176
S'join'
p177
sS'data_to_add'
p178
(lp179
sS'order'
p180
F1523916687.679977
sS'new_objid'
p181
g4
(g17
S'\x80\x00\x00\x00\x00\x00\x00\x00'
p182
tp183
Rp184
sS'objids'
p185
(lp186
g4
(g17
S'U\x00\x00\x00\x00\x00\x00\x00'
p187
tp188
Rp189
ag4
(g17
S'\x7f\x00\x00\x00\x00\x00\x00\x00'
p190
tp191
Rp192
asa(dp193
S'action'
p194
S'delete'
p195
sS'order'
p196
F1523916698.920592
sS'objid'
p197
g4
(g17
S'i\x00\x00\x00\x00\x00\x00\x00'
p198
tp199
Rp200
sa(dp201
S'action'
p202
S'delete'
p203
sS'order'
p204
F1523916698.924576
sS'objid'
p205
g4
(g17
S'h\x00\x00\x00\x00\x00\x00\x00'
p206
tp207
Rp208
sa(dp209
S'action'
p210
S'delete'
p211
sS'order'
p212
F1523916698.928812
sS'objid'
p213
g4
(g17
S'g\x00\x00\x00\x00\x00\x00\x00'
p214
tp215
Rp216
sa(dp217
S'action'
p218
S'delete'
p219
sS'order'
p220
F1523916698.93348
sS'objid'
p221
g4
(g17
S'f\x00\x00\x00\x00\x00\x00\x00'
p222
tp223
Rp224
sa(dp225
S'action'
p226
S'delete'
p227
sS'order'
p228
F1523916698.937906
sS'objid'
p229
g4
(g17
S'e\x00\x00\x00\x00\x00\x00\x00'
p230
tp231
Rp232
sa(dp233
S'action'
p234
S'delete'
p235
sS'order'
p236
F1523916698.940396
sS'objid'
p237
g4
(g17
S'd\x00\x00\x00\x00\x00\x00\x00'
p238
tp239
Rp240
sa(dp241
S'action'
p242
S'delete'
p243
sS'order'
p244
F1523916698.942907
sS'objid'
p245
g4
(g17
S'c\x00\x00\x00\x00\x00\x00\x00'
p246
tp247
Rp248
sa(dp249
S'action'
p250
S'delete'
p251
sS'order'
p252
F1523916698.945538
sS'objid'
p253
g4
(g17
S'b\x00\x00\x00\x00\x00\x00\x00'
p254
tp255
Rp256
sa(dp257
S'action'
p258
S'delete'
p259
sS'order'
p260
F1523916698.948245
sS'objid'
p261
g4
(g17
S'a\x00\x00\x00\x00\x00\x00\x00'
p262
tp263
Rp264
sa(dp265
S'action'
p266
S'delete'
p267
sS'order'
p268
F1523916698.950954
sS'objid'
p269
g4
(g17
S'`\x00\x00\x00\x00\x00\x00\x00'
p270
tp271
Rp272
sa(dp273
S'action'
p274
S'delete'
p275
sS'order'
p276
F1523916698.953718
sS'objid'
p277
g4
(g17
S'_\x00\x00\x00\x00\x00\x00\x00'
p278
tp279
Rp280
sa(dp281
S'action'
p282
S'delete'
p283
sS'order'
p284
F1523916698.957928
sS'objid'
p285
g4
(g17
S'^\x00\x00\x00\x00\x00\x00\x00'
p286
tp287
Rp288
sa(dp289
S'action'
p290
S'delete'
p291
sS'order'
p292
F1523916698.963977
sS'objid'
p293
g4
(g17
S']\x00\x00\x00\x00\x00\x00\x00'
p294
tp295
Rp296
sa(dp297
S'action'
p298
S'delete'
p299
sS'order'
p300
F1523916698.969899
sS'objid'
p301
g4
(g17
S'\\\x00\x00\x00\x00\x00\x00\x00'
p302
tp303
Rp304
sa(dp305
S'action'
p306
S'delete'
p307
sS'order'
p308
F1523916698.973461
sS'objid'
p309
g4
(g17
S'[\x00\x00\x00\x00\x00\x00\x00'
p310
tp311
Rp312
sa(dp313
S'action'
p314
S'delete'
p315
sS'order'
p316
F1523916698.976535
sS'objid'
p317
g4
(g17
S'Z\x00\x00\x00\x00\x00\x00\x00'
p318
tp319
Rp320
sa(dp321
S'action'
p322
S'delete'
p323
sS'order'
p324
F1523916698.979656
sS'objid'
p325
g4
(g17
S'Y\x00\x00\x00\x00\x00\x00\x00'
p326
tp327
Rp328
sa(dp329
S'action'
p330
S'delete'
p331
sS'order'
p332
F1523916698.982833
sS'objid'
p333
g4
(g17
S'X\x00\x00\x00\x00\x00\x00\x00'
p334
tp335
Rp336
sa(dp337
S'action'
p338
S'delete'
p339
sS'order'
p340
F1523916698.986075
sS'objid'
p341
g4
(g17
S'W\x00\x00\x00\x00\x00\x00\x00'
p342
tp343
Rp344
sa(dp345
S'action'
p346
S'delete'
p347
sS'order'
p348
F1523916698.989393
sS'objid'
p349
g4
(g17
S'V\x00\x00\x00\x00\x00\x00\x00'
p350
tp351
Rp352
sa(dp353
S'action'
p354
S'delete'
p355
sS'order'
p356
F1523916698.992774
sS'objid'
p357
g4
(g17
S'T\x00\x00\x00\x00\x00\x00\x00'
p358
tp359
Rp360
sa(dp361
S'action'
p362
S'delete'
p363
sS'order'
p364
F1523916698.996216
sS'objid'
p365
g4
(g17
S'S\x00\x00\x00\x00\x00\x00\x00'
p366
tp367
Rp368
sa(dp369
S'action'
p370
S'delete'
p371
sS'order'
p372
F1523916698.999727
sS'objid'
p373
g4
(g17
S'R\x00\x00\x00\x00\x00\x00\x00'
p374
tp375
Rp376
sa(dp377
S'action'
p378
S'delete'
p379
sS'order'
p380
F1523916699.003286
sS'objid'
p381
g4
(g17
S'Q\x00\x00\x00\x00\x00\x00\x00'
p382
tp383
Rp384
sa(dp385
S'action'
p386
S'delete'
p387
sS'order'
p388
F1523916699.006895
sS'objid'
p389
g4
(g17
S'P\x00\x00\x00\x00\x00\x00\x00'
p390
tp391
Rp392
sa(dp393
S'action'
p394
S'delete'
p395
sS'order'
p396
F1523916699.010574
sS'objid'
p397
g4
(g17
S'O\x00\x00\x00\x00\x00\x00\x00'
p398
tp399
Rp400
sa(dp401
S'action'
p402
S'delete'
p403
sS'order'
p404
F1523916699.014318
sS'objid'
p405
g4
(g17
S'N\x00\x00\x00\x00\x00\x00\x00'
p406
tp407
Rp408
sa(dp409
S'action'
p410
S'delete'
p411
sS'order'
p412
F1523916699.018156
sS'objid'
p413
g4
(g17
S'M\x00\x00\x00\x00\x00\x00\x00'
p414
tp415
Rp416
sa(dp417
S'action'
p418
S'delete'
p419
sS'order'
p420
F1523916699.021999
sS'objid'
p421
g4
(g17
S'L\x00\x00\x00\x00\x00\x00\x00'
p422
tp423
Rp424
sa(dp425
S'action'
p426
S'delete'
p427
sS'order'
p428
F1523916699.025904
sS'objid'
p429
g4
(g17
S'K\x00\x00\x00\x00\x00\x00\x00'
p430
tp431
Rp432
sa(dp433
S'action'
p434
S'delete'
p435
sS'order'
p436
F1523916699.029886
sS'objid'
p437
g4
(g17
S'J\x00\x00\x00\x00\x00\x00\x00'
p438
tp439
Rp440
sa(dp441
S'action'
p442
S'delete'
p443
sS'order'
p444
F1523916699.033923
sS'objid'
p445
g4
(g17
S'I\x00\x00\x00\x00\x00\x00\x00'
p446
tp447
Rp448
sa(dp449
S'action'
p450
S'delete'
p451
sS'order'
p452
F1523916699.03803
sS'objid'
p453
g4
(g17
S'H\x00\x00\x00\x00\x00\x00\x00'
p454
tp455
Rp456
sa(dp457
S'action'
p458
S'delete'
p459
sS'order'
p460
F1523916699.042241
sS'objid'
p461
g4
(g17
S'G\x00\x00\x00\x00\x00\x00\x00'
p462
tp463
Rp464
sa(dp465
S'action'
p466
S'delete'
p467
sS'order'
p468
F1523916699.046472
sS'objid'
p469
g4
(g17
S'F\x00\x00\x00\x00\x00\x00\x00'
p470
tp471
Rp472
sa(dp473
S'action'
p474
S'delete'
p475
sS'order'
p476
F1523916699.050771
sS'objid'
p477
g4
(g17
S'E\x00\x00\x00\x00\x00\x00\x00'
p478
tp479
Rp480
sa(dp481
S'action'
p482
S'delete'
p483
sS'order'
p484
F1523916699.055189
sS'objid'
p485
g4
(g17
S'D\x00\x00\x00\x00\x00\x00\x00'
p486
tp487
Rp488
sa(dp489
S'action'
p490
S'delete'
p491
sS'order'
p492
F1523916699.059636
sS'objid'
p493
g4
(g17
S'C\x00\x00\x00\x00\x00\x00\x00'
p494
tp495
Rp496
sa(dp497
S'action'
p498
S'delete'
p499
sS'order'
p500
F1523916699.064124
sS'objid'
p501
g4
(g17
S'B\x00\x00\x00\x00\x00\x00\x00'
p502
tp503
Rp504
sa(dp505
S'action'
p506
S'delete'
p507
sS'order'
p508
F1523916699.068675
sS'objid'
p509
g4
(g17
S'A\x00\x00\x00\x00\x00\x00\x00'
p510
tp511
Rp512
sa(dp513
S'action'
p514
S'delete'
p515
sS'order'
p516
F1523916699.073276
sS'objid'
p517
g4
(g17
S'@\x00\x00\x00\x00\x00\x00\x00'
p518
tp519
Rp520
sa(dp521
S'action'
p522
S'delete'
p523
sS'order'
p524
F1523916699.077919
sS'objid'
p525
g4
(g17
S'?\x00\x00\x00\x00\x00\x00\x00'
p526
tp527
Rp528
sa(dp529
S'action'
p530
S'delete'
p531
sS'order'
p532
F1523916699.082619
sS'objid'
p533
g4
(g17
S'>\x00\x00\x00\x00\x00\x00\x00'
p534
tp535
Rp536
sa(dp537
S'action'
p538
S'delete'
p539
sS'order'
p540
F1523916699.087418
sS'objid'
p541
g4
(g17
S'=\x00\x00\x00\x00\x00\x00\x00'
p542
tp543
Rp544
sa(dp545
S'action'
p546
S'delete'
p547
sS'order'
p548
F1523916699.092257
sS'objid'
p549
g4
(g17
S'<\x00\x00\x00\x00\x00\x00\x00'
p550
tp551
Rp552
sa(dp553
S'action'
p554
S'delete'
p555
sS'order'
p556
F1523916699.09715
sS'objid'
p557
g4
(g17
S';\x00\x00\x00\x00\x00\x00\x00'
p558
tp559
Rp560
sa(dp561
S'action'
p562
S'delete'
p563
sS'order'
p564
F1523916699.102109
sS'objid'
p565
g4
(g17
S':\x00\x00\x00\x00\x00\x00\x00'
p566
tp567
Rp568
sa(dp569
S'action'
p570
S'delete'
p571
sS'order'
p572
F1523916699.107116
sS'objid'
p573
g4
(g17
S'9\x00\x00\x00\x00\x00\x00\x00'
p574
tp575
Rp576
sa(dp577
S'action'
p578
S'delete'
p579
sS'order'
p580
F1523916699.112198
sS'objid'
p581
g4
(g17
S'8\x00\x00\x00\x00\x00\x00\x00'
p582
tp583
Rp584
sa(dp585
S'action'
p586
S'delete'
p587
sS'order'
p588
F1523916699.117353
sS'objid'
p589
g4
(g17
S'7\x00\x00\x00\x00\x00\x00\x00'
p590
tp591
Rp592
sa(dp593
S'action'
p594
S'delete'
p595
sS'order'
p596
F1523916699.122523
sS'objid'
p597
g4
(g17
S'6\x00\x00\x00\x00\x00\x00\x00'
p598
tp599
Rp600
sa(dp601
S'action'
p602
S'delete'
p603
sS'order'
p604
F1523916699.127799
sS'objid'
p605
g4
(g17
S'5\x00\x00\x00\x00\x00\x00\x00'
p606
tp607
Rp608
sa(dp609
S'action'
p610
S'delete'
p611
sS'order'
p612
F1523916699.133092
sS'objid'
p613
g4
(g17
S'4\x00\x00\x00\x00\x00\x00\x00'
p614
tp615
Rp616
sa(dp617
S'action'
p618
S'delete'
p619
sS'order'
p620
F1523916699.138474
sS'objid'
p621
g4
(g17
S'3\x00\x00\x00\x00\x00\x00\x00'
p622
tp623
Rp624
sa(dp625
S'action'
p626
S'delete'
p627
sS'order'
p628
F1523916699.143931
sS'objid'
p629
g4
(g17
S'2\x00\x00\x00\x00\x00\x00\x00'
p630
tp631
Rp632
sa(dp633
S'action'
p634
S'delete'
p635
sS'order'
p636
F1523916699.14943
sS'objid'
p637
g4
(g17
S'1\x00\x00\x00\x00\x00\x00\x00'
p638
tp639
Rp640
sa(dp641
S'action'
p642
S'delete'
p643
sS'order'
p644
F1523916705.560374
sS'objid'
p645
g4
(g17
S'0\x00\x00\x00\x00\x00\x00\x00'
p646
tp647
Rp648
sa(dp649
S'action'
p650
S'delete'
p651
sS'order'
p652
F1523916705.568096
sS'objid'
p653
g4
(g17
S'/\x00\x00\x00\x00\x00\x00\x00'
p654
tp655
Rp656
sa(dp657
S'action'
p658
S'delete'
p659
sS'order'
p660
F1523916705.574039
sS'objid'
p661
g4
(g17
S'.\x00\x00\x00\x00\x00\x00\x00'
p662
tp663
Rp664
sa(dp665
S'action'
p666
S'delete'
p667
sS'order'
p668
F1523916705.5798
sS'objid'
p669
g4
(g17
S'-\x00\x00\x00\x00\x00\x00\x00'
p670
tp671
Rp672
sa(dp673
S'action'
p674
S'delete'
p675
sS'order'
p676
F1523916705.585849
sS'objid'
p677
g4
(g17
S',\x00\x00\x00\x00\x00\x00\x00'
p678
tp679
Rp680
sa(dp681
S'action'
p682
S'delete'
p683
sS'order'
p684
F1523916705.59199
sS'objid'
p685
g4
(g17
S'+\x00\x00\x00\x00\x00\x00\x00'
p686
tp687
Rp688
sa(dp689
S'action'
p690
S'delete'
p691
sS'order'
p692
F1523916705.597941
sS'objid'
p693
g4
(g17
S'*\x00\x00\x00\x00\x00\x00\x00'
p694
tp695
Rp696
sa(dp697
S'action'
p698
S'delete'
p699
sS'order'
p700
F1523916705.604268
sS'objid'
p701
g4
(g17
S')\x00\x00\x00\x00\x00\x00\x00'
p702
tp703
Rp704
sa(dp705
S'action'
p706
S'delete'
p707
sS'order'
p708
F1523916705.610425
sS'objid'
p709
g4
(g17
S'(\x00\x00\x00\x00\x00\x00\x00'
p710
tp711
Rp712
sa(dp713
S'action'
p714
S'delete'
p715
sS'order'
p716
F1523916705.616507
sS'objid'
p717
g4
(g17
S"'\x00\x00\x00\x00\x00\x00\x00"
p718
tp719
Rp720
sa(dp721
S'action'
p722
S'delete'
p723
sS'order'
p724
F1523916705.622659
sS'objid'
p725
g4
(g17
S'&\x00\x00\x00\x00\x00\x00\x00'
p726
tp727
Rp728
sa(dp729
S'action'
p730
S'delete'
p731
sS'order'
p732
F1523916705.628878
sS'objid'
p733
g4
(g17
S'%\x00\x00\x00\x00\x00\x00\x00'
p734
tp735
Rp736
sa(dp737
S'action'
p738
S'delete'
p739
sS'order'
p740
F1523916705.635138
sS'objid'
p741
g4
(g17
S'$\x00\x00\x00\x00\x00\x00\x00'
p742
tp743
Rp744
sa(dp745
S'action'
p746
S'delete'
p747
sS'order'
p748
F1523916705.6415
sS'objid'
p749
g4
(g17
S'#\x00\x00\x00\x00\x00\x00\x00'
p750
tp751
Rp752
sa(dp753
S'action'
p754
S'delete'
p755
sS'order'
p756
F1523916705.647916
sS'objid'
p757
g4
(g17
S'"\x00\x00\x00\x00\x00\x00\x00'
p758
tp759
Rp760
sa(dp761
S'action'
p762
S'delete'
p763
sS'order'
p764
F1523916705.654598
sS'objid'
p765
g4
(g17
S'!\x00\x00\x00\x00\x00\x00\x00'
p766
tp767
Rp768
sa(dp769
S'action'
p770
S'delete'
p771
sS'order'
p772
F1523916705.66137
sS'objid'
p773
g4
(g17
S' \x00\x00\x00\x00\x00\x00\x00'
p774
tp775
Rp776
sa(dp777
S'action'
p778
S'delete'
p779
sS'order'
p780
F1523916705.667941
sS'objid'
p781
g4
(g17
S'\x1f\x00\x00\x00\x00\x00\x00\x00'
p782
tp783
Rp784
sa(dp785
S'action'
p786
S'delete'
p787
sS'order'
p788
F1523916705.674558
sS'objid'
p789
g4
(g17
S'\x1e\x00\x00\x00\x00\x00\x00\x00'
p790
tp791
Rp792
sa(dp793
S'action'
p794
S'delete'
p795
sS'order'
p796
F1523916705.681269
sS'objid'
p797
g4
(g17
S'\x1d\x00\x00\x00\x00\x00\x00\x00'
p798
tp799
Rp800
sa(dp801
S'action'
p802
S'delete'
p803
sS'order'
p804
F1523916705.688014
sS'objid'
p805
g4
(g17
S'\x1c\x00\x00\x00\x00\x00\x00\x00'
p806
tp807
Rp808
sa(dp809
S'action'
p810
S'delete'
p811
sS'order'
p812
F1523916705.694811
sS'objid'
p813
g4
(g17
S'\x1b\x00\x00\x00\x00\x00\x00\x00'
p814
tp815
Rp816
sa(dp817
S'action'
p818
S'delete'
p819
sS'order'
p820
F1523916705.701712
sS'objid'
p821
g4
(g17
S'\x1a\x00\x00\x00\x00\x00\x00\x00'
p822
tp823
Rp824
sa(dp825
S'action'
p826
S'delete'
p827
sS'order'
p828
F1523916705.708669
sS'objid'
p829
g4
(g17
S'\x19\x00\x00\x00\x00\x00\x00\x00'
p830
tp831
Rp832
sa(dp833
S'action'
p834
S'delete'
p835
sS'order'
p836
F1523916705.715637
sS'objid'
p837
g4
(g17
S'\x18\x00\x00\x00\x00\x00\x00\x00'
p838
tp839
Rp840
sa(dp841
S'action'
p842
S'delete'
p843
sS'order'
p844
F1523916705.722702
sS'objid'
p845
g4
(g17
S'\x16\x00\x00\x00\x00\x00\x00\x00'
p846
tp847
Rp848
sa(dp849
S'action'
p850
S'delete'
p851
sS'order'
p852
F1523916705.729801
sS'objid'
p853
g4
(g17
S'\x15\x00\x00\x00\x00\x00\x00\x00'
p854
tp855
Rp856
sa(dp857
S'action'
p858
S'delete'
p859
sS'order'
p860
F1523916705.736958
sS'objid'
p861
g4
(g17
S'\x14\x00\x00\x00\x00\x00\x00\x00'
p862
tp863
Rp864
sa(dp865
S'action'
p866
S'delete'
p867
sS'order'
p868
F1523916705.74419
sS'objid'
p869
g4
(g17
S'\x12\x00\x00\x00\x00\x00\x00\x00'
p870
tp871
Rp872
sa(dp873
S'action'
p874
S'delete'
p875
sS'order'
p876
F1523916705.751521
sS'objid'
p877
g4
(g17
S'\x11\x00\x00\x00\x00\x00\x00\x00'
p878
tp879
Rp880
sa(dp881
S'action'
p882
S'delete'
p883
sS'order'
p884
F1523916705.759464
sS'objid'
p885
g4
(g17
S'\x10\x00\x00\x00\x00\x00\x00\x00'
p886
tp887
Rp888
sa(dp889
S'action'
p890
S'delete'
p891
sS'order'
p892
F1523916705.766889
sS'objid'
p893
g4
(g17
S'\x0f\x00\x00\x00\x00\x00\x00\x00'
p894
tp895
Rp896
sa(dp897
S'action'
p898
S'delete'
p899
sS'order'
p900
F1523916705.77436
sS'objid'
p901
g4
(g17
S'\x0e\x00\x00\x00\x00\x00\x00\x00'
p902
tp903
Rp904
sa(dp905
S'action'
p906
S'delete'
p907
sS'order'
p908
F1523916705.781919
sS'objid'
p909
g4
(g17
S'\r\x00\x00\x00\x00\x00\x00\x00'
p910
tp911
Rp912
sa(dp913
S'action'
p914
S'delete'
p915
sS'order'
p916
F1523916705.789499
sS'objid'
p917
g4
(g17
S'\x0c\x00\x00\x00\x00\x00\x00\x00'
p918
tp919
Rp920
sa(dp921
S'action'
p922
S'delete'
p923
sS'order'
p924
F1523916705.797154
sS'objid'
p925
g4
(g17
S'\x0b\x00\x00\x00\x00\x00\x00\x00'
p926
tp927
Rp928
sa(dp929
S'action'
p930
S'delete'
p931
sS'order'
p932
F1523916705.804855
sS'objid'
p933
g4
(g17
S'\n\x00\x00\x00\x00\x00\x00\x00'
p934
tp935
Rp936
sa(dp937
S'action'
p938
S'delete'
p939
sS'order'
p940
F1523916705.812608
sS'objid'
p941
g4
(g17
S'\t\x00\x00\x00\x00\x00\x00\x00'
p942
tp943
Rp944
sa(dp945
S'action'
p946
S'delete'
p947
sS'order'
p948
F1523916705.82041
sS'objid'
p949
g4
(g17
S'\x08\x00\x00\x00\x00\x00\x00\x00'
p950
tp951
Rp952
sa(dp953
S'action'
p954
S'delete'
p955
sS'order'
p956
F1523916705.828306
sS'objid'
p957
g4
(g17
S'\x07\x00\x00\x00\x00\x00\x00\x00'
p958
tp959
Rp960
sa(dp961
S'action'
p962
S'delete'
p963
sS'order'
p964
F1523916705.836243
sS'objid'
p965
g4
(g17
S'\x06\x00\x00\x00\x00\x00\x00\x00'
p966
tp967
Rp968
sa(dp969
S'action'
p970
S'delete'
p971
sS'order'
p972
F1523916705.844262
sS'objid'
p973
g4
(g17
S'\x04\x00\x00\x00\x00\x00\x00\x00'
p974
tp975
Rp976
sa(dp977
S'action'
p978
S'delete'
p979
sS'order'
p980
F1523916705.852392
sS'objid'
p981
g4
(g17
S'\x03\x00\x00\x00\x00\x00\x00\x00'
p982
tp983
Rp984
sa(dp985
S'action'
p986
S'delete'
p987
sS'order'
p988
F1523916705.861123
sS'objid'
p989
g4
(g17
S'\x02\x00\x00\x00\x00\x00\x00\x00'
p990
tp991
Rp992
sa(dp993
S'action'
p994
S'delete'
p995
sS'order'
p996
F1523916705.869318
sS'objid'
p997
g4
(g17
S'\x01\x00\x00\x00\x00\x00\x00\x00'
p998
tp999
Rp1000
sa.