(lp0
(dp1
S'action'
p2
S'join'
p3
sS'data_to_add'
p4
(lp5
sS'order'
p6
F1523658234.157373
sS'new_objid'
p7
cnumpy.core.multiarray
scalar
p8
(cnumpy
dtype
p9
(S'i8'
p10
I0
I1
tp11
Rp12
(I3
S'<'
p13
NNNI-1
I-1
I0
tp14
bS"'\x00\x00\x00\x00\x00\x00\x00"
p15
tp16
Rp17
sS'objids'
p18
(lp19
g8
(g12
S'\x01\x00\x00\x00\x00\x00\x00\x00'
p20
tp21
Rp22
ag8
(g12
S'\x00\x00\x00\x00\x00\x00\x00\x00'
p23
tp24
Rp25
asa(dp26
S'action'
p27
S'join'
p28
sS'data_to_add'
p29
(lp30
sS'order'
p31
F1523658245.949518
sS'new_objid'
p32
g8
(g12
S'(\x00\x00\x00\x00\x00\x00\x00'
p33
tp34
Rp35
sS'objids'
p36
(lp37
g8
(g12
S'\x15\x00\x00\x00\x00\x00\x00\x00'
p38
tp39
Rp40
ag8
(g12
S"'\x00\x00\x00\x00\x00\x00\x00"
p41
tp42
Rp43
asa(dp44
S'action'
p45
S'join'
p46
sS'data_to_add'
p47
(lp48
sS'order'
p49
F1523658252.429695
sS'new_objid'
p50
g8
(g12
S')\x00\x00\x00\x00\x00\x00\x00'
p51
tp52
Rp53
sS'objids'
p54
(lp55
g8
(g12
S'(\x00\x00\x00\x00\x00\x00\x00'
p56
tp57
Rp58
ag8
(g12
S'\x18\x00\x00\x00\x00\x00\x00\x00'
p59
tp60
Rp61
asa(dp62
S'action'
p63
S'join'
p64
sS'data_to_add'
p65
(lp66
sS'order'
p67
F1523658258.453924
sS'new_objid'
p68
g8
(g12
S'*\x00\x00\x00\x00\x00\x00\x00'
p69
tp70
Rp71
sS'objids'
p72
(lp73
g8
(g12
S'\x1a\x00\x00\x00\x00\x00\x00\x00'
p74
tp75
Rp76
ag8
(g12
S'\x1b\x00\x00\x00\x00\x00\x00\x00'
p77
tp78
Rp79
ag8
(g12
S')\x00\x00\x00\x00\x00\x00\x00'
p80
tp81
Rp82
asa(dp83
S'action'
p84
S'delete'
p85
sS'order'
p86
F1523658267.01507
sS'objid'
p87
g8
(g12
S'\x19\x00\x00\x00\x00\x00\x00\x00'
p88
tp89
Rp90
sa(dp91
S'action'
p92
S'delete'
p93
sS'order'
p94
F1523658267.017626
sS'objid'
p95
g8
(g12
S'\x17\x00\x00\x00\x00\x00\x00\x00'
p96
tp97
Rp98
sa(dp99
S'action'
p100
S'delete'
p101
sS'order'
p102
F1523658267.020035
sS'objid'
p103
g8
(g12
S'\x16\x00\x00\x00\x00\x00\x00\x00'
p104
tp105
Rp106
sa(dp107
S'action'
p108
S'delete'
p109
sS'order'
p110
F1523658267.022524
sS'objid'
p111
g8
(g12
S'\x14\x00\x00\x00\x00\x00\x00\x00'
p112
tp113
Rp114
sa(dp115
S'action'
p116
S'delete'
p117
sS'order'
p118
F1523658267.0255
sS'objid'
p119
g8
(g12
S'\x13\x00\x00\x00\x00\x00\x00\x00'
p120
tp121
Rp122
sa(dp123
S'action'
p124
S'delete'
p125
sS'order'
p126
F1523658267.028202
sS'objid'
p127
g8
(g12
S'\x12\x00\x00\x00\x00\x00\x00\x00'
p128
tp129
Rp130
sa(dp131
S'action'
p132
S'delete'
p133
sS'order'
p134
F1523658267.031018
sS'objid'
p135
g8
(g12
S'\x11\x00\x00\x00\x00\x00\x00\x00'
p136
tp137
Rp138
sa(dp139
S'action'
p140
S'delete'
p141
sS'order'
p142
F1523658267.033958
sS'objid'
p143
g8
(g12
S'\x10\x00\x00\x00\x00\x00\x00\x00'
p144
tp145
Rp146
sa(dp147
S'action'
p148
S'delete'
p149
sS'order'
p150
F1523658267.036998
sS'objid'
p151
g8
(g12
S'\x0f\x00\x00\x00\x00\x00\x00\x00'
p152
tp153
Rp154
sa(dp155
S'action'
p156
S'delete'
p157
sS'order'
p158
F1523658267.040132
sS'objid'
p159
g8
(g12
S'\x0e\x00\x00\x00\x00\x00\x00\x00'
p160
tp161
Rp162
sa(dp163
S'action'
p164
S'delete'
p165
sS'order'
p166
F1523658267.043386
sS'objid'
p167
g8
(g12
S'\r\x00\x00\x00\x00\x00\x00\x00'
p168
tp169
Rp170
sa(dp171
S'action'
p172
S'delete'
p173
sS'order'
p174
F1523658267.046761
sS'objid'
p175
g8
(g12
S'\x0c\x00\x00\x00\x00\x00\x00\x00'
p176
tp177
Rp178
sa(dp179
S'action'
p180
S'delete'
p181
sS'order'
p182
F1523658267.050245
sS'objid'
p183
g8
(g12
S'\x0b\x00\x00\x00\x00\x00\x00\x00'
p184
tp185
Rp186
sa(dp187
S'action'
p188
S'delete'
p189
sS'order'
p190
F1523658267.053842
sS'objid'
p191
g8
(g12
S'\n\x00\x00\x00\x00\x00\x00\x00'
p192
tp193
Rp194
sa(dp195
S'action'
p196
S'delete'
p197
sS'order'
p198
F1523658267.057559
sS'objid'
p199
g8
(g12
S'\t\x00\x00\x00\x00\x00\x00\x00'
p200
tp201
Rp202
sa(dp203
S'action'
p204
S'delete'
p205
sS'order'
p206
F1523658267.0614
sS'objid'
p207
g8
(g12
S'\x08\x00\x00\x00\x00\x00\x00\x00'
p208
tp209
Rp210
sa(dp211
S'action'
p212
S'delete'
p213
sS'order'
p214
F1523658267.065342
sS'objid'
p215
g8
(g12
S'\x07\x00\x00\x00\x00\x00\x00\x00'
p216
tp217
Rp218
sa(dp219
S'action'
p220
S'delete'
p221
sS'order'
p222
F1523658267.069392
sS'objid'
p223
g8
(g12
S'\x06\x00\x00\x00\x00\x00\x00\x00'
p224
tp225
Rp226
sa(dp227
S'action'
p228
S'delete'
p229
sS'order'
p230
F1523658267.07357
sS'objid'
p231
g8
(g12
S'\x05\x00\x00\x00\x00\x00\x00\x00'
p232
tp233
Rp234
sa(dp235
S'action'
p236
S'delete'
p237
sS'order'
p238
F1523658267.077873
sS'objid'
p239
g8
(g12
S'\x04\x00\x00\x00\x00\x00\x00\x00'
p240
tp241
Rp242
sa(dp243
S'action'
p244
S'delete'
p245
sS'order'
p246
F1523658267.082298
sS'objid'
p247
g8
(g12
S'\x03\x00\x00\x00\x00\x00\x00\x00'
p248
tp249
Rp250
sa(dp251
S'action'
p252
S'delete'
p253
sS'order'
p254
F1523658267.087428
sS'objid'
p255
g8
(g12
S'\x02\x00\x00\x00\x00\x00\x00\x00'
p256
tp257
Rp258
sa.