(lp0
(dp1
S'cut_frame_global'
p2
I156
sS'cut_time_epoch'
p3
cnumpy.core.multiarray
scalar
p4
(cnumpy
dtype
p5
(S'f8'
p6
I0
I1
tp7
Rp8
(I3
S'<'
p9
NNNI-1
I-1
I0
tp10
bS'G=\x90\xf9\xdd\xb5\xd6A'
p11
tp12
Rp13
sS'cut_frame_trajectory'
p14
g4
(g5
(S'i8'
p15
I0
I1
tp16
Rp17
(I3
S'<'
p18
NNNI-1
I-1
I0
tp19
bS'\x01\x00\x00\x00\x00\x00\x00\x00'
p20
tp21
Rp22
sS'objid'
p23
g4
(g17
S'!\x00\x00\x00\x00\x00\x00\x00'
p24
tp25
Rp26
sS'action'
p27
S'cut'
p28
sS'order'
p29
F1524073243.69356
sS'new_objid'
p30
g4
(g17
S"'\x01\x00\x00\x00\x00\x00\x00"
p31
tp32
Rp33
sa(dp34
g2
I161
sg3
g4
(g8
S'\xed=\xb0\xf9\xdd\xb5\xd6A'
p35
tp36
Rp37
sg14
g4
(g17
S'\x05\x00\x00\x00\x00\x00\x00\x00'
p38
tp39
Rp40
sg23
g4
(g17
S"'\x01\x00\x00\x00\x00\x00\x00"
p41
tp42
Rp43
sg27
g28
sg29
F1524073248.981343
sg30
g4
(g17
S'(\x01\x00\x00\x00\x00\x00\x00'
p44
tp45
Rp46
sa(dp47
g27
S'join'
p48
sS'data_to_add'
p49
(lp50
sg29
F1524073261.446232
sg30
g4
(g17
S')\x01\x00\x00\x00\x00\x00\x00'
p51
tp52
Rp53
sS'objids'
p54
(lp55
g4
(g17
S'\x00\x00\x00\x00\x00\x00\x00\x00'
p56
tp57
Rp58
ag4
(g17
S'(\x01\x00\x00\x00\x00\x00\x00'
p59
tp60
Rp61
asa(dp62
g2
I414
sg3
g4
(g8
S'{p\x03\x00\xde\xb5\xd6A'
p63
tp64
Rp65
sg14
g4
(g17
S'\x03\x00\x00\x00\x00\x00\x00\x00'
p66
tp67
Rp68
sg23
g4
(g17
S'R\x00\x00\x00\x00\x00\x00\x00'
p69
tp70
Rp71
sg27
g28
sg29
F1524073296.790427
sg30
g4
(g17
S'*\x01\x00\x00\x00\x00\x00\x00'
p72
tp73
Rp74
sa(dp75
g27
g48
sg49
(lp76
sg29
F1524073305.462312
sg30
g4
(g17
S'+\x01\x00\x00\x00\x00\x00\x00'
p77
tp78
Rp79
sg54
(lp80
g4
(g17
S'*\x01\x00\x00\x00\x00\x00\x00'
p81
tp82
Rp83
ag4
(g17
S')\x01\x00\x00\x00\x00\x00\x00'
p84
tp85
Rp86
asa(dp87
g27
g48
sg49
(lp88
sg29
F1524073355.036605
sg30
g4
(g17
S',\x01\x00\x00\x00\x00\x00\x00'
p89
tp90
Rp91
sg54
(lp92
g4
(g17
S'\xf5\x00\x00\x00\x00\x00\x00\x00'
p93
tp94
Rp95
ag4
(g17
S'+\x01\x00\x00\x00\x00\x00\x00'
p96
tp97
Rp98
asa(dp99
g27
g48
sg49
(lp100
sg29
F1524073418.117914
sg30
g4
(g17
S'-\x01\x00\x00\x00\x00\x00\x00'
p101
tp102
Rp103
sg54
(lp104
g4
(g17
S'\xff\x00\x00\x00\x00\x00\x00\x00'
p105
tp106
Rp107
ag4
(g17
S',\x01\x00\x00\x00\x00\x00\x00'
p108
tp109
Rp110
ag4
(g17
S'\xfd\x00\x00\x00\x00\x00\x00\x00'
p111
tp112
Rp113
ag4
(g17
S'\xfb\x00\x00\x00\x00\x00\x00\x00'
p114
tp115
Rp116
asa(dp117
g2
I1474
sg3
g4
(g8
S'\x81p\x83\x1a\xde\xb5\xd6A'
p118
tp119
Rp120
sg14
g4
(g17
S'\x1c\x00\x00\x00\x00\x00\x00\x00'
p121
tp122
Rp123
sg23
g4
(g17
S'\x11\x01\x00\x00\x00\x00\x00\x00'
p124
tp125
Rp126
sg27
g28
sg29
F1524073478.273538
sg30
g4
(g17
S'.\x01\x00\x00\x00\x00\x00\x00'
p127
tp128
Rp129
sa(dp130
g27
g48
sg49
(lp131
sg29
F1524073483.615187
sg30
g4
(g17
S'/\x01\x00\x00\x00\x00\x00\x00'
p132
tp133
Rp134
sg54
(lp135
g4
(g17
S'.\x01\x00\x00\x00\x00\x00\x00'
p136
tp137
Rp138
ag4
(g17
S'-\x01\x00\x00\x00\x00\x00\x00'
p139
tp140
Rp141
asa(dp142
g2
I1506
sg3
g4
(g8
S'M=P\x1b\xde\xb5\xd6A'
p143
tp144
Rp145
sg14
g4
(g17
S'\xe1\x05\x00\x00\x00\x00\x00\x00'
p146
tp147
Rp148
sg23
g4
(g17
S'/\x01\x00\x00\x00\x00\x00\x00'
p149
tp150
Rp151
sg27
g28
sg29
F1524073503.650886
sg30
g4
(g17
S'0\x01\x00\x00\x00\x00\x00\x00'
p152
tp153
Rp154
sa(dp155
S'cut_frame_global'
p156
I1628
sS'cut_time_epoch'
p157
g4
(g8
S'\x16\n]\x1e\xde\xb5\xd6A'
p158
tp159
Rp160
sS'cut_frame_trajectory'
p161
g4
(g17
S'z\x00\x00\x00\x00\x00\x00\x00'
p162
tp163
Rp164
sS'objid'
p165
g4
(g17
S'0\x01\x00\x00\x00\x00\x00\x00'
p166
tp167
Rp168
sS'action'
p169
S'cut'
p170
sS'order'
p171
F1524073513.074063
sS'new_objid'
p172
g4
(g17
S'2\x01\x00\x00\x00\x00\x00\x00'
p173
tp174
Rp175
sa(dp176
S'cut_frame_global'
p177
I1628
sS'cut_time_epoch'
p178
g4
(g8
S'\x16\n]\x1e\xde\xb5\xd6A'
p179
tp180
Rp181
sS'cut_frame_trajectory'
p182
g4
(g17
S'\x00\x00\x00\x00\x00\x00\x00\x00'
p183
tp184
Rp185
sS'objid'
p186
g4
(g17
S'2\x01\x00\x00\x00\x00\x00\x00'
p187
tp188
Rp189
sS'action'
p190
S'cut'
p191
sS'order'
p192
F1524073513.969962
sS'new_objid'
p193
g4
(g17
S'3\x01\x00\x00\x00\x00\x00\x00'
p194
tp195
Rp196
sa(dp197
S'action'
p198
S'join'
p199
sS'data_to_add'
p200
(lp201
sS'order'
p202
F1524073523.639899
sS'new_objid'
p203
g4
(g17
S'4\x01\x00\x00\x00\x00\x00\x00'
p204
tp205
Rp206
sS'objids'
p207
(lp208
g4
(g17
S'0\x01\x00\x00\x00\x00\x00\x00'
p209
tp210
Rp211
ag4
(g17
S'\x17\x01\x00\x00\x00\x00\x00\x00'
p212
tp213
Rp214
asa(dp215
S'cut_frame_global'
p216
I1719
sS'cut_time_epoch'
p217
g4
(g8
S'\xeep\xa3 \xde\xb5\xd6A'
p218
tp219
Rp220
sS'cut_frame_trajectory'
p221
g4
(g17
S'\xd5\x00\x00\x00\x00\x00\x00\x00'
p222
tp223
Rp224
sS'objid'
p225
g4
(g17
S'4\x01\x00\x00\x00\x00\x00\x00'
p226
tp227
Rp228
sS'action'
p229
S'cut'
p230
sS'order'
p231
F1524073541.67391
sS'new_objid'
p232
g4
(g17
S'5\x01\x00\x00\x00\x00\x00\x00'
p233
tp234
Rp235
sa(dp236
S'action'
p237
S'join'
p238
sS'data_to_add'
p239
(lp240
sS'order'
p241
F1524073548.368203
sS'new_objid'
p242
g4
(g17
S'6\x01\x00\x00\x00\x00\x00\x00'
p243
tp244
Rp245
sS'objids'
p246
(lp247
g4
(g17
S'4\x01\x00\x00\x00\x00\x00\x00'
p248
tp249
Rp250
ag4
(g17
S'\x18\x01\x00\x00\x00\x00\x00\x00'
p251
tp252
Rp253
asa(dp254
S'cut_frame_global'
p255
I1743
sS'cut_time_epoch'
p256
g4
(g8
S'\xd3\n=!\xde\xb5\xd6A'
p257
tp258
Rp259
sS'cut_frame_trajectory'
p260
g4
(g17
S'\xed\x00\x00\x00\x00\x00\x00\x00'
p261
tp262
Rp263
sS'objid'
p264
g4
(g17
S'6\x01\x00\x00\x00\x00\x00\x00'
p265
tp266
Rp267
sS'action'
p268
S'cut'
p269
sS'order'
p270
F1524073562.259294
sS'new_objid'
p271
g4
(g17
S'7\x01\x00\x00\x00\x00\x00\x00'
p272
tp273
Rp274
sa(dp275
S'cut_frame_global'
p276
I1744
sS'cut_time_epoch'
p277
g4
(g8
S'bpC!\xde\xb5\xd6A'
p278
tp279
Rp280
sS'cut_frame_trajectory'
p281
g4
(g17
S'\x18\x00\x00\x00\x00\x00\x00\x00'
p282
tp283
Rp284
sS'objid'
p285
g4
(g17
S'\x19\x01\x00\x00\x00\x00\x00\x00'
p286
tp287
Rp288
sS'action'
p289
S'cut'
p290
sS'order'
p291
F1524073566.218835
sS'new_objid'
p292
g4
(g17
S'8\x01\x00\x00\x00\x00\x00\x00'
p293
tp294
Rp295
sa(dp296
S'cut_frame_global'
p297
I1744
sS'cut_time_epoch'
p298
g4
(g8
S'bpC!\xde\xb5\xd6A'
p299
tp300
Rp301
sS'cut_frame_trajectory'
p302
g4
(g17
S'\x00\x00\x00\x00\x00\x00\x00\x00'
p303
tp304
Rp305
sS'objid'
p306
g4
(g17
S'8\x01\x00\x00\x00\x00\x00\x00'
p307
tp308
Rp309
sS'action'
p310
S'cut'
p311
sS'order'
p312
F1524073567.25895
sS'new_objid'
p313
g4
(g17
S'9\x01\x00\x00\x00\x00\x00\x00'
p314
tp315
Rp316
sa(dp317
S'action'
p318
S'join'
p319
sS'data_to_add'
p320
(lp321
sS'order'
p322
F1524073572.745316
sS'new_objid'
p323
g4
(g17
S':\x01\x00\x00\x00\x00\x00\x00'
p324
tp325
Rp326
sS'objids'
p327
(lp328
g4
(g17
S'9\x01\x00\x00\x00\x00\x00\x00'
p329
tp330
Rp331
ag4
(g17
S'6\x01\x00\x00\x00\x00\x00\x00'
p332
tp333
Rp334
asa(dp335
S'cut_frame_global'
p336
I1786
sS'cut_time_epoch'
p337
g4
(g8
S'G=P"\xde\xb5\xd6A'
p338
tp339
Rp340
sS'cut_frame_trajectory'
p341
g4
(g17
S'C\x02\x00\x00\x00\x00\x00\x00'
p342
tp343
Rp344
sS'objid'
p345
g4
(g17
S'\n\x01\x00\x00\x00\x00\x00\x00'
p346
tp347
Rp348
sS'action'
p349
S'cut'
p350
sS'order'
p351
F1524073599.40394
sS'new_objid'
p352
g4
(g17
S';\x01\x00\x00\x00\x00\x00\x00'
p353
tp354
Rp355
sa(dp356
S'action'
p357
S'join'
p358
sS'data_to_add'
p359
(lp360
sS'order'
p361
F1524073605.453114
sS'new_objid'
p362
g4
(g17
S'<\x01\x00\x00\x00\x00\x00\x00'
p363
tp364
Rp365
sS'objids'
p366
(lp367
g4
(g17
S':\x01\x00\x00\x00\x00\x00\x00'
p368
tp369
Rp370
ag4
(g17
S';\x01\x00\x00\x00\x00\x00\x00'
p371
tp372
Rp373
asa(dp374
S'action'
p375
S'delete'
p376
sS'order'
p377
F1524073613.505622
sS'objid'
p378
g4
(g17
S'7\x01\x00\x00\x00\x00\x00\x00'
p379
tp380
Rp381
sa(dp382
S'action'
p383
S'delete'
p384
sS'order'
p385
F1524073613.51354
sS'objid'
p386
g4
(g17
S'5\x01\x00\x00\x00\x00\x00\x00'
p387
tp388
Rp389
sa(dp390
S'action'
p391
S'delete'
p392
sS'order'
p393
F1524073613.520628
sS'objid'
p394
g4
(g17
S'3\x01\x00\x00\x00\x00\x00\x00'
p395
tp396
Rp397
sa(dp398
S'action'
p399
S'delete'
p400
sS'order'
p401
F1524073613.527715
sS'objid'
p402
g4
(g17
S'\x1c\x01\x00\x00\x00\x00\x00\x00'
p403
tp404
Rp405
sa(dp406
S'action'
p407
S'delete'
p408
sS'order'
p409
F1524073613.535068
sS'objid'
p410
g4
(g17
S'\x1b\x01\x00\x00\x00\x00\x00\x00'
p411
tp412
Rp413
sa(dp414
S'action'
p415
S'delete'
p416
sS'order'
p417
F1524073613.54231
sS'objid'
p418
g4
(g17
S'\x1a\x01\x00\x00\x00\x00\x00\x00'
p419
tp420
Rp421
sa(dp422
S'action'
p423
S'delete'
p424
sS'order'
p425
F1524073613.549679
sS'objid'
p426
g4
(g17
S'\x19\x01\x00\x00\x00\x00\x00\x00'
p427
tp428
Rp429
sa(dp430
S'action'
p431
S'delete'
p432
sS'order'
p433
F1524073613.557127
sS'objid'
p434
g4
(g17
S'\x13\x01\x00\x00\x00\x00\x00\x00'
p435
tp436
Rp437
sa(dp438
S'action'
p439
S'delete'
p440
sS'order'
p441
F1524073613.564609
sS'objid'
p442
g4
(g17
S'\n\x01\x00\x00\x00\x00\x00\x00'
p443
tp444
Rp445
sa(dp446
S'action'
p447
S'delete'
p448
sS'order'
p449
F1524073613.572218
sS'objid'
p450
g4
(g17
S'7\x00\x00\x00\x00\x00\x00\x00'
p451
tp452
Rp453
sa(dp454
S'action'
p455
S'join'
p456
sS'data_to_add'
p457
(lp458
sS'order'
p459
F1524073637.777997
sS'new_objid'
p460
g4
(g17
S'=\x01\x00\x00\x00\x00\x00\x00'
p461
tp462
Rp463
sS'objids'
p464
(lp465
g4
(g17
S'<\x01\x00\x00\x00\x00\x00\x00'
p466
tp467
Rp468
ag4
(g17
S'/\x01\x00\x00\x00\x00\x00\x00'
p469
tp470
Rp471
asa(dp472
S'action'
p473
S'delete'
p474
sS'order'
p475
F1524073651.218265
sS'objid'
p476
g4
(g17
S'\x16\x01\x00\x00\x00\x00\x00\x00'
p477
tp478
Rp479
sa(dp480
S'action'
p481
S'delete'
p482
sS'order'
p483
F1524073651.227349
sS'objid'
p484
g4
(g17
S'\x15\x01\x00\x00\x00\x00\x00\x00'
p485
tp486
Rp487
sa(dp488
S'action'
p489
S'delete'
p490
sS'order'
p491
F1524073651.236363
sS'objid'
p492
g4
(g17
S'\x14\x01\x00\x00\x00\x00\x00\x00'
p493
tp494
Rp495
sa(dp496
S'action'
p497
S'delete'
p498
sS'order'
p499
F1524073651.245595
sS'objid'
p500
g4
(g17
S'\x12\x01\x00\x00\x00\x00\x00\x00'
p501
tp502
Rp503
sa(dp504
S'action'
p505
S'delete'
p506
sS'order'
p507
F1524073651.254859
sS'objid'
p508
g4
(g17
S'\x11\x01\x00\x00\x00\x00\x00\x00'
p509
tp510
Rp511
sa(dp512
S'action'
p513
S'delete'
p514
sS'order'
p515
F1524073651.264313
sS'objid'
p516
g4
(g17
S'\x10\x01\x00\x00\x00\x00\x00\x00'
p517
tp518
Rp519
sa(dp520
S'action'
p521
S'delete'
p522
sS'order'
p523
F1524073651.273634
sS'objid'
p524
g4
(g17
S'\x0f\x01\x00\x00\x00\x00\x00\x00'
p525
tp526
Rp527
sa(dp528
S'action'
p529
S'delete'
p530
sS'order'
p531
F1524073651.283041
sS'objid'
p532
g4
(g17
S'\x0e\x01\x00\x00\x00\x00\x00\x00'
p533
tp534
Rp535
sa(dp536
S'action'
p537
S'delete'
p538
sS'order'
p539
F1524073651.294138
sS'objid'
p540
g4
(g17
S'\r\x01\x00\x00\x00\x00\x00\x00'
p541
tp542
Rp543
sa(dp544
S'action'
p545
S'delete'
p546
sS'order'
p547
F1524073651.304774
sS'objid'
p548
g4
(g17
S'\x0c\x01\x00\x00\x00\x00\x00\x00'
p549
tp550
Rp551
sa(dp552
S'action'
p553
S'delete'
p554
sS'order'
p555
F1524073651.314602
sS'objid'
p556
g4
(g17
S'\x0b\x01\x00\x00\x00\x00\x00\x00'
p557
tp558
Rp559
sa(dp560
S'action'
p561
S'delete'
p562
sS'order'
p563
F1524073651.324461
sS'objid'
p564
g4
(g17
S'\t\x01\x00\x00\x00\x00\x00\x00'
p565
tp566
Rp567
sa(dp568
S'action'
p569
S'delete'
p570
sS'order'
p571
F1524073651.334427
sS'objid'
p572
g4
(g17
S'\x08\x01\x00\x00\x00\x00\x00\x00'
p573
tp574
Rp575
sa(dp576
S'action'
p577
S'delete'
p578
sS'order'
p579
F1524073651.344551
sS'objid'
p580
g4
(g17
S'\x07\x01\x00\x00\x00\x00\x00\x00'
p581
tp582
Rp583
sa(dp584
S'action'
p585
S'delete'
p586
sS'order'
p587
F1524073651.354766
sS'objid'
p588
g4
(g17
S'\x06\x01\x00\x00\x00\x00\x00\x00'
p589
tp590
Rp591
sa(dp592
S'action'
p593
S'delete'
p594
sS'order'
p595
F1524073651.365104
sS'objid'
p596
g4
(g17
S'\x05\x01\x00\x00\x00\x00\x00\x00'
p597
tp598
Rp599
sa(dp600
S'action'
p601
S'delete'
p602
sS'order'
p603
F1524073651.375526
sS'objid'
p604
g4
(g17
S'\x04\x01\x00\x00\x00\x00\x00\x00'
p605
tp606
Rp607
sa(dp608
S'action'
p609
S'delete'
p610
sS'order'
p611
F1524073651.386063
sS'objid'
p612
g4
(g17
S'\x03\x01\x00\x00\x00\x00\x00\x00'
p613
tp614
Rp615
sa(dp616
S'action'
p617
S'delete'
p618
sS'order'
p619
F1524073651.398547
sS'objid'
p620
g4
(g17
S'\x02\x01\x00\x00\x00\x00\x00\x00'
p621
tp622
Rp623
sa(dp624
S'action'
p625
S'delete'
p626
sS'order'
p627
F1524073651.409413
sS'objid'
p628
g4
(g17
S'\x01\x01\x00\x00\x00\x00\x00\x00'
p629
tp630
Rp631
sa(dp632
S'action'
p633
S'delete'
p634
sS'order'
p635
F1524073651.420322
sS'objid'
p636
g4
(g17
S'\x00\x01\x00\x00\x00\x00\x00\x00'
p637
tp638
Rp639
sa(dp640
S'action'
p641
S'delete'
p642
sS'order'
p643
F1524073651.431346
sS'objid'
p644
g4
(g17
S'\xfe\x00\x00\x00\x00\x00\x00\x00'
p645
tp646
Rp647
sa(dp648
S'action'
p649
S'delete'
p650
sS'order'
p651
F1524073651.442476
sS'objid'
p652
g4
(g17
S'\xfc\x00\x00\x00\x00\x00\x00\x00'
p653
tp654
Rp655
sa(dp656
S'action'
p657
S'delete'
p658
sS'order'
p659
F1524073651.453709
sS'objid'
p660
g4
(g17
S'\xfa\x00\x00\x00\x00\x00\x00\x00'
p661
tp662
Rp663
sa(dp664
S'action'
p665
S'delete'
p666
sS'order'
p667
F1524073651.46513
sS'objid'
p668
g4
(g17
S'\xf9\x00\x00\x00\x00\x00\x00\x00'
p669
tp670
Rp671
sa(dp672
S'action'
p673
S'delete'
p674
sS'order'
p675
F1524073651.476605
sS'objid'
p676
g4
(g17
S'\xf8\x00\x00\x00\x00\x00\x00\x00'
p677
tp678
Rp679
sa(dp680
S'action'
p681
S'delete'
p682
sS'order'
p683
F1524073651.488764
sS'objid'
p684
g4
(g17
S'\xf7\x00\x00\x00\x00\x00\x00\x00'
p685
tp686
Rp687
sa(dp688
S'action'
p689
S'delete'
p690
sS'order'
p691
F1524073651.501216
sS'objid'
p692
g4
(g17
S'\xf6\x00\x00\x00\x00\x00\x00\x00'
p693
tp694
Rp695
sa(dp696
S'action'
p697
S'delete'
p698
sS'order'
p699
F1524073651.513082
sS'objid'
p700
g4
(g17
S'\xf4\x00\x00\x00\x00\x00\x00\x00'
p701
tp702
Rp703
sa(dp704
S'action'
p705
S'delete'
p706
sS'order'
p707
F1524073651.525131
sS'objid'
p708
g4
(g17
S'\xf3\x00\x00\x00\x00\x00\x00\x00'
p709
tp710
Rp711
sa(dp712
S'action'
p713
S'delete'
p714
sS'order'
p715
F1524073651.537192
sS'objid'
p716
g4
(g17
S'\xf2\x00\x00\x00\x00\x00\x00\x00'
p717
tp718
Rp719
sa(dp720
S'action'
p721
S'delete'
p722
sS'order'
p723
F1524073651.549344
sS'objid'
p724
g4
(g17
S'\xf1\x00\x00\x00\x00\x00\x00\x00'
p725
tp726
Rp727
sa(dp728
S'action'
p729
S'delete'
p730
sS'order'
p731
F1524073651.561647
sS'objid'
p732
g4
(g17
S'\xf0\x00\x00\x00\x00\x00\x00\x00'
p733
tp734
Rp735
sa(dp736
S'action'
p737
S'delete'
p738
sS'order'
p739
F1524073651.574063
sS'objid'
p740
g4
(g17
S'\xef\x00\x00\x00\x00\x00\x00\x00'
p741
tp742
Rp743
sa(dp744
S'action'
p745
S'delete'
p746
sS'order'
p747
F1524073651.586549
sS'objid'
p748
g4
(g17
S'\xee\x00\x00\x00\x00\x00\x00\x00'
p749
tp750
Rp751
sa(dp752
S'action'
p753
S'delete'
p754
sS'order'
p755
F1524073651.600139
sS'objid'
p756
g4
(g17
S'\xed\x00\x00\x00\x00\x00\x00\x00'
p757
tp758
Rp759
sa(dp760
S'action'
p761
S'delete'
p762
sS'order'
p763
F1524073651.613274
sS'objid'
p764
g4
(g17
S'\xec\x00\x00\x00\x00\x00\x00\x00'
p765
tp766
Rp767
sa(dp768
S'action'
p769
S'delete'
p770
sS'order'
p771
F1524073651.626167
sS'objid'
p772
g4
(g17
S'\xeb\x00\x00\x00\x00\x00\x00\x00'
p773
tp774
Rp775
sa(dp776
S'action'
p777
S'delete'
p778
sS'order'
p779
F1524073651.63913
sS'objid'
p780
g4
(g17
S'\xea\x00\x00\x00\x00\x00\x00\x00'
p781
tp782
Rp783
sa(dp784
S'action'
p785
S'delete'
p786
sS'order'
p787
F1524073651.652223
sS'objid'
p788
g4
(g17
S'\xe9\x00\x00\x00\x00\x00\x00\x00'
p789
tp790
Rp791
sa(dp792
S'action'
p793
S'delete'
p794
sS'order'
p795
F1524073651.665434
sS'objid'
p796
g4
(g17
S'\xe8\x00\x00\x00\x00\x00\x00\x00'
p797
tp798
Rp799
sa(dp800
S'action'
p801
S'delete'
p802
sS'order'
p803
F1524073651.678736
sS'objid'
p804
g4
(g17
S'\xe7\x00\x00\x00\x00\x00\x00\x00'
p805
tp806
Rp807
sa(dp808
S'action'
p809
S'delete'
p810
sS'order'
p811
F1524073651.693666
sS'objid'
p812
g4
(g17
S'\xe6\x00\x00\x00\x00\x00\x00\x00'
p813
tp814
Rp815
sa(dp816
S'action'
p817
S'delete'
p818
sS'order'
p819
F1524073651.707881
sS'objid'
p820
g4
(g17
S'\xe4\x00\x00\x00\x00\x00\x00\x00'
p821
tp822
Rp823
sa(dp824
S'action'
p825
S'delete'
p826
sS'order'
p827
F1524073717.757932
sS'objid'
p828
g4
(g17
S'\xe5\x00\x00\x00\x00\x00\x00\x00'
p829
tp830
Rp831
sa(dp832
S'action'
p833
S'delete'
p834
sS'order'
p835
F1524073717.766409
sS'objid'
p836
g4
(g17
S'\xe3\x00\x00\x00\x00\x00\x00\x00'
p837
tp838
Rp839
sa(dp840
S'action'
p841
S'delete'
p842
sS'order'
p843
F1524073717.780868
sS'objid'
p844
g4
(g17
S'\xe2\x00\x00\x00\x00\x00\x00\x00'
p845
tp846
Rp847
sa(dp848
S'action'
p849
S'delete'
p850
sS'order'
p851
F1524073717.791749
sS'objid'
p852
g4
(g17
S'\xe1\x00\x00\x00\x00\x00\x00\x00'
p853
tp854
Rp855
sa(dp856
S'action'
p857
S'delete'
p858
sS'order'
p859
F1524073717.80612
sS'objid'
p860
g4
(g17
S'\xe0\x00\x00\x00\x00\x00\x00\x00'
p861
tp862
Rp863
sa(dp864
S'action'
p865
S'delete'
p866
sS'order'
p867
F1524073717.820522
sS'objid'
p868
g4
(g17
S'\xdf\x00\x00\x00\x00\x00\x00\x00'
p869
tp870
Rp871
sa(dp872
S'action'
p873
S'delete'
p874
sS'order'
p875
F1524073717.834942
sS'objid'
p876
g4
(g17
S'\xde\x00\x00\x00\x00\x00\x00\x00'
p877
tp878
Rp879
sa(dp880
S'action'
p881
S'delete'
p882
sS'order'
p883
F1524073717.849467
sS'objid'
p884
g4
(g17
S'\xdd\x00\x00\x00\x00\x00\x00\x00'
p885
tp886
Rp887
sa(dp888
S'action'
p889
S'delete'
p890
sS'order'
p891
F1524073717.86414
sS'objid'
p892
g4
(g17
S'\xdc\x00\x00\x00\x00\x00\x00\x00'
p893
tp894
Rp895
sa(dp896
S'action'
p897
S'delete'
p898
sS'order'
p899
F1524073717.878925
sS'objid'
p900
g4
(g17
S'\xdb\x00\x00\x00\x00\x00\x00\x00'
p901
tp902
Rp903
sa(dp904
S'action'
p905
S'delete'
p906
sS'order'
p907
F1524073717.893644
sS'objid'
p908
g4
(g17
S'\xda\x00\x00\x00\x00\x00\x00\x00'
p909
tp910
Rp911
sa(dp912
S'action'
p913
S'delete'
p914
sS'order'
p915
F1524073717.904736
sS'objid'
p916
g4
(g17
S'\xd9\x00\x00\x00\x00\x00\x00\x00'
p917
tp918
Rp919
sa(dp920
S'action'
p921
S'delete'
p922
sS'order'
p923
F1524073717.917129
sS'objid'
p924
g4
(g17
S'\xd8\x00\x00\x00\x00\x00\x00\x00'
p925
tp926
Rp927
sa(dp928
S'action'
p929
S'delete'
p930
sS'order'
p931
F1524073717.924962
sS'objid'
p932
g4
(g17
S'\xd7\x00\x00\x00\x00\x00\x00\x00'
p933
tp934
Rp935
sa(dp936
S'action'
p937
S'delete'
p938
sS'order'
p939
F1524073717.93275
sS'objid'
p940
g4
(g17
S'\xd6\x00\x00\x00\x00\x00\x00\x00'
p941
tp942
Rp943
sa(dp944
S'action'
p945
S'delete'
p946
sS'order'
p947
F1524073717.940535
sS'objid'
p948
g4
(g17
S'\xd5\x00\x00\x00\x00\x00\x00\x00'
p949
tp950
Rp951
sa(dp952
S'action'
p953
S'delete'
p954
sS'order'
p955
F1524073717.948391
sS'objid'
p956
g4
(g17
S'\xd4\x00\x00\x00\x00\x00\x00\x00'
p957
tp958
Rp959
sa(dp960
S'action'
p961
S'delete'
p962
sS'order'
p963
F1524073717.956617
sS'objid'
p964
g4
(g17
S'\xd3\x00\x00\x00\x00\x00\x00\x00'
p965
tp966
Rp967
sa(dp968
S'action'
p969
S'delete'
p970
sS'order'
p971
F1524073717.964594
sS'objid'
p972
g4
(g17
S'\xd2\x00\x00\x00\x00\x00\x00\x00'
p973
tp974
Rp975
sa(dp976
S'action'
p977
S'delete'
p978
sS'order'
p979
F1524073717.972661
sS'objid'
p980
g4
(g17
S'\xd1\x00\x00\x00\x00\x00\x00\x00'
p981
tp982
Rp983
sa(dp984
S'action'
p985
S'delete'
p986
sS'order'
p987
F1524073717.980744
sS'objid'
p988
g4
(g17
S'\xd0\x00\x00\x00\x00\x00\x00\x00'
p989
tp990
Rp991
sa(dp992
S'action'
p993
S'delete'
p994
sS'order'
p995
F1524073717.991209
sS'objid'
p996
g4
(g17
S'\xcf\x00\x00\x00\x00\x00\x00\x00'
p997
tp998
Rp999
sa(dp1000
S'action'
p1001
S'delete'
p1002
sS'order'
p1003
F1524073718.003177
sS'objid'
p1004
g4
(g17
S'\xce\x00\x00\x00\x00\x00\x00\x00'
p1005
tp1006
Rp1007
sa(dp1008
S'action'
p1009
S'delete'
p1010
sS'order'
p1011
F1524073718.013222
sS'objid'
p1012
g4
(g17
S'\xcd\x00\x00\x00\x00\x00\x00\x00'
p1013
tp1014
Rp1015
sa(dp1016
S'action'
p1017
S'delete'
p1018
sS'order'
p1019
F1524073718.021615
sS'objid'
p1020
g4
(g17
S'\xcc\x00\x00\x00\x00\x00\x00\x00'
p1021
tp1022
Rp1023
sa(dp1024
S'action'
p1025
S'delete'
p1026
sS'order'
p1027
F1524073718.029995
sS'objid'
p1028
g4
(g17
S'\xcb\x00\x00\x00\x00\x00\x00\x00'
p1029
tp1030
Rp1031
sa(dp1032
S'action'
p1033
S'delete'
p1034
sS'order'
p1035
F1524073718.038438
sS'objid'
p1036
g4
(g17
S'\xca\x00\x00\x00\x00\x00\x00\x00'
p1037
tp1038
Rp1039
sa(dp1040
S'action'
p1041
S'delete'
p1042
sS'order'
p1043
F1524073718.046935
sS'objid'
p1044
g4
(g17
S'\xc9\x00\x00\x00\x00\x00\x00\x00'
p1045
tp1046
Rp1047
sa(dp1048
S'action'
p1049
S'delete'
p1050
sS'order'
p1051
F1524073718.055705
sS'objid'
p1052
g4
(g17
S'\xc8\x00\x00\x00\x00\x00\x00\x00'
p1053
tp1054
Rp1055
sa(dp1056
S'action'
p1057
S'delete'
p1058
sS'order'
p1059
F1524073718.064277
sS'objid'
p1060
g4
(g17
S'\xc7\x00\x00\x00\x00\x00\x00\x00'
p1061
tp1062
Rp1063
sa(dp1064
S'action'
p1065
S'delete'
p1066
sS'order'
p1067
F1524073718.072938
sS'objid'
p1068
g4
(g17
S'\xc6\x00\x00\x00\x00\x00\x00\x00'
p1069
tp1070
Rp1071
sa(dp1072
S'action'
p1073
S'delete'
p1074
sS'order'
p1075
F1524073718.081626
sS'objid'
p1076
g4
(g17
S'\xc5\x00\x00\x00\x00\x00\x00\x00'
p1077
tp1078
Rp1079
sa(dp1080
S'action'
p1081
S'delete'
p1082
sS'order'
p1083
F1524073718.093263
sS'objid'
p1084
g4
(g17
S'\xc4\x00\x00\x00\x00\x00\x00\x00'
p1085
tp1086
Rp1087
sa(dp1088
S'action'
p1089
S'delete'
p1090
sS'order'
p1091
F1524073718.106294
sS'objid'
p1092
g4
(g17
S'\xc3\x00\x00\x00\x00\x00\x00\x00'
p1093
tp1094
Rp1095
sa(dp1096
S'action'
p1097
S'delete'
p1098
sS'order'
p1099
F1524073718.119117
sS'objid'
p1100
g4
(g17
S'\xc2\x00\x00\x00\x00\x00\x00\x00'
p1101
tp1102
Rp1103
sa(dp1104
S'action'
p1105
S'delete'
p1106
sS'order'
p1107
F1524073718.128078
sS'objid'
p1108
g4
(g17
S'\xc1\x00\x00\x00\x00\x00\x00\x00'
p1109
tp1110
Rp1111
sa(dp1112
S'action'
p1113
S'delete'
p1114
sS'order'
p1115
F1524073718.1371
sS'objid'
p1116
g4
(g17
S'\xc0\x00\x00\x00\x00\x00\x00\x00'
p1117
tp1118
Rp1119
sa(dp1120
S'action'
p1121
S'delete'
p1122
sS'order'
p1123
F1524073718.146149
sS'objid'
p1124
g4
(g17
S'\xbf\x00\x00\x00\x00\x00\x00\x00'
p1125
tp1126
Rp1127
sa(dp1128
S'action'
p1129
S'delete'
p1130
sS'order'
p1131
F1524073718.155688
sS'objid'
p1132
g4
(g17
S'\xbe\x00\x00\x00\x00\x00\x00\x00'
p1133
tp1134
Rp1135
sa(dp1136
S'action'
p1137
S'delete'
p1138
sS'order'
p1139
F1524073718.164861
sS'objid'
p1140
g4
(g17
S'\xbd\x00\x00\x00\x00\x00\x00\x00'
p1141
tp1142
Rp1143
sa(dp1144
S'action'
p1145
S'delete'
p1146
sS'order'
p1147
F1524073718.174126
sS'objid'
p1148
g4
(g17
S'\xbc\x00\x00\x00\x00\x00\x00\x00'
p1149
tp1150
Rp1151
sa(dp1152
S'action'
p1153
S'delete'
p1154
sS'order'
p1155
F1524073718.183432
sS'objid'
p1156
g4
(g17
S'\xbb\x00\x00\x00\x00\x00\x00\x00'
p1157
tp1158
Rp1159
sa(dp1160
S'action'
p1161
S'delete'
p1162
sS'order'
p1163
F1524073718.198396
sS'objid'
p1164
g4
(g17
S'\xba\x00\x00\x00\x00\x00\x00\x00'
p1165
tp1166
Rp1167
sa(dp1168
S'action'
p1169
S'delete'
p1170
sS'order'
p1171
F1524073718.217243
sS'objid'
p1172
g4
(g17
S'\xb9\x00\x00\x00\x00\x00\x00\x00'
p1173
tp1174
Rp1175
sa(dp1176
S'action'
p1177
S'delete'
p1178
sS'order'
p1179
F1524073718.236117
sS'objid'
p1180
g4
(g17
S'\xb8\x00\x00\x00\x00\x00\x00\x00'
p1181
tp1182
Rp1183
sa(dp1184
S'action'
p1185
S'delete'
p1186
sS'order'
p1187
F1524073718.255126
sS'objid'
p1188
g4
(g17
S'\xb7\x00\x00\x00\x00\x00\x00\x00'
p1189
tp1190
Rp1191
sa(dp1192
S'action'
p1193
S'delete'
p1194
sS'order'
p1195
F1524073718.274248
sS'objid'
p1196
g4
(g17
S'\xb6\x00\x00\x00\x00\x00\x00\x00'
p1197
tp1198
Rp1199
sa(dp1200
S'action'
p1201
S'delete'
p1202
sS'order'
p1203
F1524073733.699447
sS'objid'
p1204
g4
(g17
S'\xb5\x00\x00\x00\x00\x00\x00\x00'
p1205
tp1206
Rp1207
sa(dp1208
S'action'
p1209
S'delete'
p1210
sS'order'
p1211
F1524073733.71339
sS'objid'
p1212
g4
(g17
S'\xb4\x00\x00\x00\x00\x00\x00\x00'
p1213
tp1214
Rp1215
sa(dp1216
S'action'
p1217
S'delete'
p1218
sS'order'
p1219
F1524073733.731128
sS'objid'
p1220
g4
(g17
S'\xb3\x00\x00\x00\x00\x00\x00\x00'
p1221
tp1222
Rp1223
sa(dp1224
S'action'
p1225
S'delete'
p1226
sS'order'
p1227
F1524073733.748837
sS'objid'
p1228
g4
(g17
S'\xb2\x00\x00\x00\x00\x00\x00\x00'
p1229
tp1230
Rp1231
sa(dp1232
S'action'
p1233
S'delete'
p1234
sS'order'
p1235
F1524073733.766563
sS'objid'
p1236
g4
(g17
S'\xb1\x00\x00\x00\x00\x00\x00\x00'
p1237
tp1238
Rp1239
sa(dp1240
S'action'
p1241
S'delete'
p1242
sS'order'
p1243
F1524073733.784271
sS'objid'
p1244
g4
(g17
S'\xb0\x00\x00\x00\x00\x00\x00\x00'
p1245
tp1246
Rp1247
sa(dp1248
S'action'
p1249
S'delete'
p1250
sS'order'
p1251
F1524073733.802815
sS'objid'
p1252
g4
(g17
S'\xaf\x00\x00\x00\x00\x00\x00\x00'
p1253
tp1254
Rp1255
sa(dp1256
S'action'
p1257
S'delete'
p1258
sS'order'
p1259
F1524073733.820765
sS'objid'
p1260
g4
(g17
S'\xae\x00\x00\x00\x00\x00\x00\x00'
p1261
tp1262
Rp1263
sa(dp1264
S'action'
p1265
S'delete'
p1266
sS'order'
p1267
F1524073733.838779
sS'objid'
p1268
g4
(g17
S'\xad\x00\x00\x00\x00\x00\x00\x00'
p1269
tp1270
Rp1271
sa(dp1272
S'action'
p1273
S'delete'
p1274
sS'order'
p1275
F1524073733.856894
sS'objid'
p1276
g4
(g17
S'\xac\x00\x00\x00\x00\x00\x00\x00'
p1277
tp1278
Rp1279
sa(dp1280
S'action'
p1281
S'delete'
p1282
sS'order'
p1283
F1524073733.875059
sS'objid'
p1284
g4
(g17
S'\xab\x00\x00\x00\x00\x00\x00\x00'
p1285
tp1286
Rp1287
sa(dp1288
S'action'
p1289
S'delete'
p1290
sS'order'
p1291
F1524073733.894324
sS'objid'
p1292
g4
(g17
S'\xaa\x00\x00\x00\x00\x00\x00\x00'
p1293
tp1294
Rp1295
sa(dp1296
S'action'
p1297
S'delete'
p1298
sS'order'
p1299
F1524073733.912944
sS'objid'
p1300
g4
(g17
S'\xa9\x00\x00\x00\x00\x00\x00\x00'
p1301
tp1302
Rp1303
sa(dp1304
S'action'
p1305
S'delete'
p1306
sS'order'
p1307
F1524073733.931588
sS'objid'
p1308
g4
(g17
S'\xa8\x00\x00\x00\x00\x00\x00\x00'
p1309
tp1310
Rp1311
sa(dp1312
S'action'
p1313
S'delete'
p1314
sS'order'
p1315
F1524073733.950245
sS'objid'
p1316
g4
(g17
S'\xa7\x00\x00\x00\x00\x00\x00\x00'
p1317
tp1318
Rp1319
sa(dp1320
S'action'
p1321
S'delete'
p1322
sS'order'
p1323
F1524073733.968984
sS'objid'
p1324
g4
(g17
S'\xa6\x00\x00\x00\x00\x00\x00\x00'
p1325
tp1326
Rp1327
sa(dp1328
S'action'
p1329
S'delete'
p1330
sS'order'
p1331
F1524073733.988255
sS'objid'
p1332
g4
(g17
S'\xa5\x00\x00\x00\x00\x00\x00\x00'
p1333
tp1334
Rp1335
sa(dp1336
S'action'
p1337
S'delete'
p1338
sS'order'
p1339
F1524073734.007917
sS'objid'
p1340
g4
(g17
S'\xa4\x00\x00\x00\x00\x00\x00\x00'
p1341
tp1342
Rp1343
sa(dp1344
S'action'
p1345
S'delete'
p1346
sS'order'
p1347
F1524073734.027025
sS'objid'
p1348
g4
(g17
S'\xa3\x00\x00\x00\x00\x00\x00\x00'
p1349
tp1350
Rp1351
sa(dp1352
S'action'
p1353
S'delete'
p1354
sS'order'
p1355
F1524073734.046159
sS'objid'
p1356
g4
(g17
S'\xa2\x00\x00\x00\x00\x00\x00\x00'
p1357
tp1358
Rp1359
sa(dp1360
S'action'
p1361
S'delete'
p1362
sS'order'
p1363
F1524073734.065473
sS'objid'
p1364
g4
(g17
S'\xa1\x00\x00\x00\x00\x00\x00\x00'
p1365
tp1366
Rp1367
sa(dp1368
S'action'
p1369
S'delete'
p1370
sS'order'
p1371
F1524073734.084875
sS'objid'
p1372
g4
(g17
S'\xa0\x00\x00\x00\x00\x00\x00\x00'
p1373
tp1374
Rp1375
sa(dp1376
S'action'
p1377
S'delete'
p1378
sS'order'
p1379
F1524073734.105028
sS'objid'
p1380
g4
(g17
S'\x9f\x00\x00\x00\x00\x00\x00\x00'
p1381
tp1382
Rp1383
sa(dp1384
S'action'
p1385
S'delete'
p1386
sS'order'
p1387
F1524073734.124761
sS'objid'
p1388
g4
(g17
S'\x9e\x00\x00\x00\x00\x00\x00\x00'
p1389
tp1390
Rp1391
sa(dp1392
S'action'
p1393
S'delete'
p1394
sS'order'
p1395
F1524073734.144665
sS'objid'
p1396
g4
(g17
S'\x9d\x00\x00\x00\x00\x00\x00\x00'
p1397
tp1398
Rp1399
sa(dp1400
S'action'
p1401
S'delete'
p1402
sS'order'
p1403
F1524073734.164992
sS'objid'
p1404
g4
(g17
S'\x9c\x00\x00\x00\x00\x00\x00\x00'
p1405
tp1406
Rp1407
sa(dp1408
S'action'
p1409
S'delete'
p1410
sS'order'
p1411
F1524073734.185373
sS'objid'
p1412
g4
(g17
S'\x9b\x00\x00\x00\x00\x00\x00\x00'
p1413
tp1414
Rp1415
sa(dp1416
S'action'
p1417
S'delete'
p1418
sS'order'
p1419
F1524073734.206108
sS'objid'
p1420
g4
(g17
S'\x9a\x00\x00\x00\x00\x00\x00\x00'
p1421
tp1422
Rp1423
sa(dp1424
S'action'
p1425
S'delete'
p1426
sS'order'
p1427
F1524073734.226354
sS'objid'
p1428
g4
(g17
S'\x99\x00\x00\x00\x00\x00\x00\x00'
p1429
tp1430
Rp1431
sa(dp1432
S'action'
p1433
S'delete'
p1434
sS'order'
p1435
F1524073734.246638
sS'objid'
p1436
g4
(g17
S'\x98\x00\x00\x00\x00\x00\x00\x00'
p1437
tp1438
Rp1439
sa(dp1440
S'action'
p1441
S'delete'
p1442
sS'order'
p1443
F1524073734.266994
sS'objid'
p1444
g4
(g17
S'\x97\x00\x00\x00\x00\x00\x00\x00'
p1445
tp1446
Rp1447
sa(dp1448
S'action'
p1449
S'delete'
p1450
sS'order'
p1451
F1524073734.287483
sS'objid'
p1452
g4
(g17
S'\x96\x00\x00\x00\x00\x00\x00\x00'
p1453
tp1454
Rp1455
sa(dp1456
S'action'
p1457
S'delete'
p1458
sS'order'
p1459
F1524073734.308625
sS'objid'
p1460
g4
(g17
S'\x95\x00\x00\x00\x00\x00\x00\x00'
p1461
tp1462
Rp1463
sa(dp1464
S'action'
p1465
S'delete'
p1466
sS'order'
p1467
F1524073734.329354
sS'objid'
p1468
g4
(g17
S'\x94\x00\x00\x00\x00\x00\x00\x00'
p1469
tp1470
Rp1471
sa(dp1472
S'action'
p1473
S'delete'
p1474
sS'order'
p1475
F1524073734.347425
sS'objid'
p1476
g4
(g17
S'\x93\x00\x00\x00\x00\x00\x00\x00'
p1477
tp1478
Rp1479
sa(dp1480
S'action'
p1481
S'delete'
p1482
sS'order'
p1483
F1524073734.360409
sS'objid'
p1484
g4
(g17
S'\x92\x00\x00\x00\x00\x00\x00\x00'
p1485
tp1486
Rp1487
sa(dp1488
S'action'
p1489
S'delete'
p1490
sS'order'
p1491
F1524073734.374782
sS'objid'
p1492
g4
(g17
S'\x91\x00\x00\x00\x00\x00\x00\x00'
p1493
tp1494
Rp1495
sa(dp1496
S'action'
p1497
S'delete'
p1498
sS'order'
p1499
F1524073734.386811
sS'objid'
p1500
g4
(g17
S'\x90\x00\x00\x00\x00\x00\x00\x00'
p1501
tp1502
Rp1503
sa(dp1504
S'action'
p1505
S'delete'
p1506
sS'order'
p1507
F1524073734.404401
sS'objid'
p1508
g4
(g17
S'\x8f\x00\x00\x00\x00\x00\x00\x00'
p1509
tp1510
Rp1511
sa(dp1512
S'action'
p1513
S'delete'
p1514
sS'order'
p1515
F1524073734.421101
sS'objid'
p1516
g4
(g17
S'\x8e\x00\x00\x00\x00\x00\x00\x00'
p1517
tp1518
Rp1519
sa(dp1520
S'action'
p1521
S'delete'
p1522
sS'order'
p1523
F1524073734.445125
sS'objid'
p1524
g4
(g17
S'\x8d\x00\x00\x00\x00\x00\x00\x00'
p1525
tp1526
Rp1527
sa(dp1528
S'action'
p1529
S'delete'
p1530
sS'order'
p1531
F1524073734.469211
sS'objid'
p1532
g4
(g17
S'\x8c\x00\x00\x00\x00\x00\x00\x00'
p1533
tp1534
Rp1535
sa(dp1536
S'action'
p1537
S'delete'
p1538
sS'order'
p1539
F1524073734.49387
sS'objid'
p1540
g4
(g17
S'\x8b\x00\x00\x00\x00\x00\x00\x00'
p1541
tp1542
Rp1543
sa(dp1544
S'action'
p1545
S'delete'
p1546
sS'order'
p1547
F1524073734.51847
sS'objid'
p1548
g4
(g17
S'\x8a\x00\x00\x00\x00\x00\x00\x00'
p1549
tp1550
Rp1551
sa(dp1552
S'action'
p1553
S'delete'
p1554
sS'order'
p1555
F1524073734.542912
sS'objid'
p1556
g4
(g17
S'\x89\x00\x00\x00\x00\x00\x00\x00'
p1557
tp1558
Rp1559
sa(dp1560
S'action'
p1561
S'delete'
p1562
sS'order'
p1563
F1524073734.56749
sS'objid'
p1564
g4
(g17
S'\x87\x00\x00\x00\x00\x00\x00\x00'
p1565
tp1566
Rp1567
sa(dp1568
S'action'
p1569
S'delete'
p1570
sS'order'
p1571
F1524073756.812308
sS'objid'
p1572
g4
(g17
S'\x88\x00\x00\x00\x00\x00\x00\x00'
p1573
tp1574
Rp1575
sa(dp1576
S'action'
p1577
S'delete'
p1578
sS'order'
p1579
F1524073756.840104
sS'objid'
p1580
g4
(g17
S'\x86\x00\x00\x00\x00\x00\x00\x00'
p1581
tp1582
Rp1583
sa(dp1584
S'action'
p1585
S'delete'
p1586
sS'order'
p1587
F1524073756.865223
sS'objid'
p1588
g4
(g17
S'\x85\x00\x00\x00\x00\x00\x00\x00'
p1589
tp1590
Rp1591
sa(dp1592
S'action'
p1593
S'delete'
p1594
sS'order'
p1595
F1524073756.890763
sS'objid'
p1596
g4
(g17
S'\x84\x00\x00\x00\x00\x00\x00\x00'
p1597
tp1598
Rp1599
sa(dp1600
S'action'
p1601
S'delete'
p1602
sS'order'
p1603
F1524073756.916605
sS'objid'
p1604
g4
(g17
S'\x83\x00\x00\x00\x00\x00\x00\x00'
p1605
tp1606
Rp1607
sa(dp1608
S'action'
p1609
S'delete'
p1610
sS'order'
p1611
F1524073756.941764
sS'objid'
p1612
g4
(g17
S'\x82\x00\x00\x00\x00\x00\x00\x00'
p1613
tp1614
Rp1615
sa(dp1616
S'action'
p1617
S'delete'
p1618
sS'order'
p1619
F1524073756.967003
sS'objid'
p1620
g4
(g17
S'\x81\x00\x00\x00\x00\x00\x00\x00'
p1621
tp1622
Rp1623
sa(dp1624
S'action'
p1625
S'delete'
p1626
sS'order'
p1627
F1524073756.995751
sS'objid'
p1628
g4
(g17
S'\x80\x00\x00\x00\x00\x00\x00\x00'
p1629
tp1630
Rp1631
sa(dp1632
S'action'
p1633
S'delete'
p1634
sS'order'
p1635
F1524073757.021841
sS'objid'
p1636
g4
(g17
S'\x7f\x00\x00\x00\x00\x00\x00\x00'
p1637
tp1638
Rp1639
sa(dp1640
S'action'
p1641
S'delete'
p1642
sS'order'
p1643
F1524073757.047304
sS'objid'
p1644
g4
(g17
S'~\x00\x00\x00\x00\x00\x00\x00'
p1645
tp1646
Rp1647
sa(dp1648
S'action'
p1649
S'delete'
p1650
sS'order'
p1651
F1524073757.072872
sS'objid'
p1652
g4
(g17
S'}\x00\x00\x00\x00\x00\x00\x00'
p1653
tp1654
Rp1655
sa(dp1656
S'action'
p1657
S'delete'
p1658
sS'order'
p1659
F1524073757.099572
sS'objid'
p1660
g4
(g17
S'|\x00\x00\x00\x00\x00\x00\x00'
p1661
tp1662
Rp1663
sa(dp1664
S'action'
p1665
S'delete'
p1666
sS'order'
p1667
F1524073757.125487
sS'objid'
p1668
g4
(g17
S'{\x00\x00\x00\x00\x00\x00\x00'
p1669
tp1670
Rp1671
sa(dp1672
S'action'
p1673
S'delete'
p1674
sS'order'
p1675
F1524073757.151437
sS'objid'
p1676
g4
(g17
S'z\x00\x00\x00\x00\x00\x00\x00'
p1677
tp1678
Rp1679
sa(dp1680
S'action'
p1681
S'delete'
p1682
sS'order'
p1683
F1524073757.177466
sS'objid'
p1684
g4
(g17
S'y\x00\x00\x00\x00\x00\x00\x00'
p1685
tp1686
Rp1687
sa(dp1688
S'action'
p1689
S'delete'
p1690
sS'order'
p1691
F1524073757.204627
sS'objid'
p1692
g4
(g17
S'x\x00\x00\x00\x00\x00\x00\x00'
p1693
tp1694
Rp1695
sa(dp1696
S'action'
p1697
S'delete'
p1698
sS'order'
p1699
F1524073757.23093
sS'objid'
p1700
g4
(g17
S'w\x00\x00\x00\x00\x00\x00\x00'
p1701
tp1702
Rp1703
sa(dp1704
S'action'
p1705
S'delete'
p1706
sS'order'
p1707
F1524073757.257273
sS'objid'
p1708
g4
(g17
S'v\x00\x00\x00\x00\x00\x00\x00'
p1709
tp1710
Rp1711
sa(dp1712
S'action'
p1713
S'delete'
p1714
sS'order'
p1715
F1524073757.283769
sS'objid'
p1716
g4
(g17
S'u\x00\x00\x00\x00\x00\x00\x00'
p1717
tp1718
Rp1719
sa(dp1720
S'action'
p1721
S'delete'
p1722
sS'order'
p1723
F1524073757.311486
sS'objid'
p1724
g4
(g17
S't\x00\x00\x00\x00\x00\x00\x00'
p1725
tp1726
Rp1727
sa(dp1728
S'action'
p1729
S'delete'
p1730
sS'order'
p1731
F1524073757.338254
sS'objid'
p1732
g4
(g17
S's\x00\x00\x00\x00\x00\x00\x00'
p1733
tp1734
Rp1735
sa(dp1736
S'action'
p1737
S'delete'
p1738
sS'order'
p1739
F1524073757.36511
sS'objid'
p1740
g4
(g17
S'r\x00\x00\x00\x00\x00\x00\x00'
p1741
tp1742
Rp1743
sa(dp1744
S'action'
p1745
S'delete'
p1746
sS'order'
p1747
F1524073757.392998
sS'objid'
p1748
g4
(g17
S'q\x00\x00\x00\x00\x00\x00\x00'
p1749
tp1750
Rp1751
sa(dp1752
S'action'
p1753
S'delete'
p1754
sS'order'
p1755
F1524073757.420353
sS'objid'
p1756
g4
(g17
S'p\x00\x00\x00\x00\x00\x00\x00'
p1757
tp1758
Rp1759
sa(dp1760
S'action'
p1761
S'delete'
p1762
sS'order'
p1763
F1524073757.447594
sS'objid'
p1764
g4
(g17
S'o\x00\x00\x00\x00\x00\x00\x00'
p1765
tp1766
Rp1767
sa(dp1768
S'action'
p1769
S'delete'
p1770
sS'order'
p1771
F1524073757.474851
sS'objid'
p1772
g4
(g17
S'n\x00\x00\x00\x00\x00\x00\x00'
p1773
tp1774
Rp1775
sa(dp1776
S'action'
p1777
S'delete'
p1778
sS'order'
p1779
F1524073757.499032
sS'objid'
p1780
g4
(g17
S'm\x00\x00\x00\x00\x00\x00\x00'
p1781
tp1782
Rp1783
sa(dp1784
S'action'
p1785
S'delete'
p1786
sS'order'
p1787
F1524073757.520589
sS'objid'
p1788
g4
(g17
S'l\x00\x00\x00\x00\x00\x00\x00'
p1789
tp1790
Rp1791
sa(dp1792
S'action'
p1793
S'delete'
p1794
sS'order'
p1795
F1524073757.534555
sS'objid'
p1796
g4
(g17
S'k\x00\x00\x00\x00\x00\x00\x00'
p1797
tp1798
Rp1799
sa(dp1800
S'action'
p1801
S'delete'
p1802
sS'order'
p1803
F1524073757.548514
sS'objid'
p1804
g4
(g17
S'j\x00\x00\x00\x00\x00\x00\x00'
p1805
tp1806
Rp1807
sa(dp1808
S'action'
p1809
S'delete'
p1810
sS'order'
p1811
F1524073757.562532
sS'objid'
p1812
g4
(g17
S'i\x00\x00\x00\x00\x00\x00\x00'
p1813
tp1814
Rp1815
sa(dp1816
S'action'
p1817
S'delete'
p1818
sS'order'
p1819
F1524073757.576661
sS'objid'
p1820
g4
(g17
S'h\x00\x00\x00\x00\x00\x00\x00'
p1821
tp1822
Rp1823
sa(dp1824
S'action'
p1825
S'delete'
p1826
sS'order'
p1827
F1524073757.592988
sS'objid'
p1828
g4
(g17
S'g\x00\x00\x00\x00\x00\x00\x00'
p1829
tp1830
Rp1831
sa(dp1832
S'action'
p1833
S'delete'
p1834
sS'order'
p1835
F1524073757.614852
sS'objid'
p1836
g4
(g17
S'f\x00\x00\x00\x00\x00\x00\x00'
p1837
tp1838
Rp1839
sa(dp1840
S'action'
p1841
S'delete'
p1842
sS'order'
p1843
F1524073757.629334
sS'objid'
p1844
g4
(g17
S'e\x00\x00\x00\x00\x00\x00\x00'
p1845
tp1846
Rp1847
sa(dp1848
S'action'
p1849
S'delete'
p1850
sS'order'
p1851
F1524073757.643611
sS'objid'
p1852
g4
(g17
S'd\x00\x00\x00\x00\x00\x00\x00'
p1853
tp1854
Rp1855
sa(dp1856
S'action'
p1857
S'delete'
p1858
sS'order'
p1859
F1524073757.65799
sS'objid'
p1860
g4
(g17
S'c\x00\x00\x00\x00\x00\x00\x00'
p1861
tp1862
Rp1863
sa(dp1864
S'action'
p1865
S'delete'
p1866
sS'order'
p1867
F1524073757.67261
sS'objid'
p1868
g4
(g17
S'b\x00\x00\x00\x00\x00\x00\x00'
p1869
tp1870
Rp1871
sa(dp1872
S'action'
p1873
S'delete'
p1874
sS'order'
p1875
F1524073757.688045
sS'objid'
p1876
g4
(g17
S'a\x00\x00\x00\x00\x00\x00\x00'
p1877
tp1878
Rp1879
sa(dp1880
S'action'
p1881
S'delete'
p1882
sS'order'
p1883
F1524073757.712595
sS'objid'
p1884
g4
(g17
S'`\x00\x00\x00\x00\x00\x00\x00'
p1885
tp1886
Rp1887
sa(dp1888
S'action'
p1889
S'delete'
p1890
sS'order'
p1891
F1524073757.727733
sS'objid'
p1892
g4
(g17
S'_\x00\x00\x00\x00\x00\x00\x00'
p1893
tp1894
Rp1895
sa(dp1896
S'action'
p1897
S'delete'
p1898
sS'order'
p1899
F1524073757.742661
sS'objid'
p1900
g4
(g17
S'^\x00\x00\x00\x00\x00\x00\x00'
p1901
tp1902
Rp1903
sa(dp1904
S'action'
p1905
S'delete'
p1906
sS'order'
p1907
F1524073757.757602
sS'objid'
p1908
g4
(g17
S']\x00\x00\x00\x00\x00\x00\x00'
p1909
tp1910
Rp1911
sa(dp1912
S'action'
p1913
S'delete'
p1914
sS'order'
p1915
F1524073757.772569
sS'objid'
p1916
g4
(g17
S'\\\x00\x00\x00\x00\x00\x00\x00'
p1917
tp1918
Rp1919
sa(dp1920
S'action'
p1921
S'delete'
p1922
sS'order'
p1923
F1524073757.788518
sS'objid'
p1924
g4
(g17
S'[\x00\x00\x00\x00\x00\x00\x00'
p1925
tp1926
Rp1927
sa(dp1928
S'action'
p1929
S'delete'
p1930
sS'order'
p1931
F1524073757.813151
sS'objid'
p1932
g4
(g17
S'Z\x00\x00\x00\x00\x00\x00\x00'
p1933
tp1934
Rp1935
sa(dp1936
S'action'
p1937
S'delete'
p1938
sS'order'
p1939
F1524073757.828693
sS'objid'
p1940
g4
(g17
S'Y\x00\x00\x00\x00\x00\x00\x00'
p1941
tp1942
Rp1943
sa(dp1944
S'action'
p1945
S'delete'
p1946
sS'order'
p1947
F1524073757.843882
sS'objid'
p1948
g4
(g17
S'X\x00\x00\x00\x00\x00\x00\x00'
p1949
tp1950
Rp1951
sa(dp1952
S'action'
p1953
S'delete'
p1954
sS'order'
p1955
F1524073757.859145
sS'objid'
p1956
g4
(g17
S'W\x00\x00\x00\x00\x00\x00\x00'
p1957
tp1958
Rp1959
sa(dp1960
S'action'
p1961
S'delete'
p1962
sS'order'
p1963
F1524073757.874244
sS'objid'
p1964
g4
(g17
S'V\x00\x00\x00\x00\x00\x00\x00'
p1965
tp1966
Rp1967
sa(dp1968
S'action'
p1969
S'delete'
p1970
sS'order'
p1971
F1524073757.891252
sS'objid'
p1972
g4
(g17
S'U\x00\x00\x00\x00\x00\x00\x00'
p1973
tp1974
Rp1975
sa(dp1976
S'action'
p1977
S'delete'
p1978
sS'order'
p1979
F1524073757.914961
sS'objid'
p1980
g4
(g17
S'T\x00\x00\x00\x00\x00\x00\x00'
p1981
tp1982
Rp1983
sa(dp1984
S'action'
p1985
S'delete'
p1986
sS'order'
p1987
F1524073757.930769
sS'objid'
p1988
g4
(g17
S'S\x00\x00\x00\x00\x00\x00\x00'
p1989
tp1990
Rp1991
sa(dp1992
S'action'
p1993
S'delete'
p1994
sS'order'
p1995
F1524073757.94655
sS'objid'
p1996
g4
(g17
S'R\x00\x00\x00\x00\x00\x00\x00'
p1997
tp1998
Rp1999
sa(dp2000
S'action'
p2001
S'delete'
p2002
sS'order'
p2003
F1524073757.962338
sS'objid'
p2004
g4
(g17
S'Q\x00\x00\x00\x00\x00\x00\x00'
p2005
tp2006
Rp2007
sa(dp2008
S'action'
p2009
S'delete'
p2010
sS'order'
p2011
F1524073757.978099
sS'objid'
p2012
g4
(g17
S'P\x00\x00\x00\x00\x00\x00\x00'
p2013
tp2014
Rp2015
sa(dp2016
S'action'
p2017
S'delete'
p2018
sS'order'
p2019
F1524073757.996719
sS'objid'
p2020
g4
(g17
S'O\x00\x00\x00\x00\x00\x00\x00'
p2021
tp2022
Rp2023
sa(dp2024
S'action'
p2025
S'delete'
p2026
sS'order'
p2027
F1524073758.020358
sS'objid'
p2028
g4
(g17
S'N\x00\x00\x00\x00\x00\x00\x00'
p2029
tp2030
Rp2031
sa(dp2032
S'action'
p2033
S'delete'
p2034
sS'order'
p2035
F1524073758.036049
sS'objid'
p2036
g4
(g17
S'M\x00\x00\x00\x00\x00\x00\x00'
p2037
tp2038
Rp2039
sa(dp2040
S'action'
p2041
S'delete'
p2042
sS'order'
p2043
F1524073758.051758
sS'objid'
p2044
g4
(g17
S'L\x00\x00\x00\x00\x00\x00\x00'
p2045
tp2046
Rp2047
sa(dp2048
S'action'
p2049
S'delete'
p2050
sS'order'
p2051
F1524073758.067499
sS'objid'
p2052
g4
(g17
S'K\x00\x00\x00\x00\x00\x00\x00'
p2053
tp2054
Rp2055
sa(dp2056
S'action'
p2057
S'delete'
p2058
sS'order'
p2059
F1524073758.083692
sS'objid'
p2060
g4
(g17
S'J\x00\x00\x00\x00\x00\x00\x00'
p2061
tp2062
Rp2063
sa(dp2064
S'action'
p2065
S'delete'
p2066
sS'order'
p2067
F1524073758.107408
sS'objid'
p2068
g4
(g17
S'I\x00\x00\x00\x00\x00\x00\x00'
p2069
tp2070
Rp2071
sa(dp2072
S'action'
p2073
S'delete'
p2074
sS'order'
p2075
F1524073758.126225
sS'objid'
p2076
g4
(g17
S'H\x00\x00\x00\x00\x00\x00\x00'
p2077
tp2078
Rp2079
sa(dp2080
S'action'
p2081
S'delete'
p2082
sS'order'
p2083
F1524073758.142289
sS'objid'
p2084
g4
(g17
S'G\x00\x00\x00\x00\x00\x00\x00'
p2085
tp2086
Rp2087
sa(dp2088
S'action'
p2089
S'delete'
p2090
sS'order'
p2091
F1524073758.158277
sS'objid'
p2092
g4
(g17
S'F\x00\x00\x00\x00\x00\x00\x00'
p2093
tp2094
Rp2095
sa(dp2096
S'action'
p2097
S'delete'
p2098
sS'order'
p2099
F1524073758.174431
sS'objid'
p2100
g4
(g17
S'E\x00\x00\x00\x00\x00\x00\x00'
p2101
tp2102
Rp2103
sa(dp2104
S'action'
p2105
S'delete'
p2106
sS'order'
p2107
F1524073758.193246
sS'objid'
p2108
g4
(g17
S'D\x00\x00\x00\x00\x00\x00\x00'
p2109
tp2110
Rp2111
sa(dp2112
S'action'
p2113
S'delete'
p2114
sS'order'
p2115
F1524073758.216984
sS'objid'
p2116
g4
(g17
S'C\x00\x00\x00\x00\x00\x00\x00'
p2117
tp2118
Rp2119
sa(dp2120
S'action'
p2121
S'delete'
p2122
sS'order'
p2123
F1524073758.233283
sS'objid'
p2124
g4
(g17
S'B\x00\x00\x00\x00\x00\x00\x00'
p2125
tp2126
Rp2127
sa(dp2128
S'action'
p2129
S'delete'
p2130
sS'order'
p2131
F1524073758.249607
sS'objid'
p2132
g4
(g17
S'A\x00\x00\x00\x00\x00\x00\x00'
p2133
tp2134
Rp2135
sa(dp2136
S'action'
p2137
S'delete'
p2138
sS'order'
p2139
F1524073758.265918
sS'objid'
p2140
g4
(g17
S'@\x00\x00\x00\x00\x00\x00\x00'
p2141
tp2142
Rp2143
sa(dp2144
S'action'
p2145
S'delete'
p2146
sS'order'
p2147
F1524073758.28238
sS'objid'
p2148
g4
(g17
S'?\x00\x00\x00\x00\x00\x00\x00'
p2149
tp2150
Rp2151
sa(dp2152
S'action'
p2153
S'delete'
p2154
sS'order'
p2155
F1524073758.304774
sS'objid'
p2156
g4
(g17
S'>\x00\x00\x00\x00\x00\x00\x00'
p2157
tp2158
Rp2159
sa(dp2160
S'action'
p2161
S'delete'
p2162
sS'order'
p2163
F1524073758.325799
sS'objid'
p2164
g4
(g17
S'=\x00\x00\x00\x00\x00\x00\x00'
p2165
tp2166
Rp2167
sa(dp2168
S'action'
p2169
S'delete'
p2170
sS'order'
p2171
F1524073758.342418
sS'objid'
p2172
g4
(g17
S'<\x00\x00\x00\x00\x00\x00\x00'
p2173
tp2174
Rp2175
sa(dp2176
S'action'
p2177
S'delete'
p2178
sS'order'
p2179
F1524073758.359084
sS'objid'
p2180
g4
(g17
S';\x00\x00\x00\x00\x00\x00\x00'
p2181
tp2182
Rp2183
sa(dp2184
S'action'
p2185
S'delete'
p2186
sS'order'
p2187
F1524073758.37577
sS'objid'
p2188
g4
(g17
S':\x00\x00\x00\x00\x00\x00\x00'
p2189
tp2190
Rp2191
sa(dp2192
S'action'
p2193
S'delete'
p2194
sS'order'
p2195
F1524073758.395564
sS'objid'
p2196
g4
(g17
S'9\x00\x00\x00\x00\x00\x00\x00'
p2197
tp2198
Rp2199
sa(dp2200
S'action'
p2201
S'delete'
p2202
sS'order'
p2203
F1524073758.420593
sS'objid'
p2204
g4
(g17
S'8\x00\x00\x00\x00\x00\x00\x00'
p2205
tp2206
Rp2207
sa(dp2208
S'action'
p2209
S'delete'
p2210
sS'order'
p2211
F1524073771.548585
sS'objid'
p2212
g4
(g17
S"'\x01\x00\x00\x00\x00\x00\x00"
p2213
tp2214
Rp2215
sa(dp2216
S'action'
p2217
S'delete'
p2218
sS'order'
p2219
F1524073771.58401
sS'objid'
p2220
g4
(g17
S'6\x00\x00\x00\x00\x00\x00\x00'
p2221
tp2222
Rp2223
sa(dp2224
S'action'
p2225
S'delete'
p2226
sS'order'
p2227
F1524073771.619119
sS'objid'
p2228
g4
(g17
S'5\x00\x00\x00\x00\x00\x00\x00'
p2229
tp2230
Rp2231
sa(dp2232
S'action'
p2233
S'delete'
p2234
sS'order'
p2235
F1524073771.653869
sS'objid'
p2236
g4
(g17
S'4\x00\x00\x00\x00\x00\x00\x00'
p2237
tp2238
Rp2239
sa(dp2240
S'action'
p2241
S'delete'
p2242
sS'order'
p2243
F1524073771.689371
sS'objid'
p2244
g4
(g17
S'3\x00\x00\x00\x00\x00\x00\x00'
p2245
tp2246
Rp2247
sa(dp2248
S'action'
p2249
S'delete'
p2250
sS'order'
p2251
F1524073771.72498
sS'objid'
p2252
g4
(g17
S'2\x00\x00\x00\x00\x00\x00\x00'
p2253
tp2254
Rp2255
sa(dp2256
S'action'
p2257
S'delete'
p2258
sS'order'
p2259
F1524073771.759909
sS'objid'
p2260
g4
(g17
S'1\x00\x00\x00\x00\x00\x00\x00'
p2261
tp2262
Rp2263
sa(dp2264
S'action'
p2265
S'delete'
p2266
sS'order'
p2267
F1524073771.795981
sS'objid'
p2268
g4
(g17
S'0\x00\x00\x00\x00\x00\x00\x00'
p2269
tp2270
Rp2271
sa(dp2272
S'action'
p2273
S'delete'
p2274
sS'order'
p2275
F1524073771.831372
sS'objid'
p2276
g4
(g17
S'/\x00\x00\x00\x00\x00\x00\x00'
p2277
tp2278
Rp2279
sa(dp2280
S'action'
p2281
S'delete'
p2282
sS'order'
p2283
F1524073771.866653
sS'objid'
p2284
g4
(g17
S'.\x00\x00\x00\x00\x00\x00\x00'
p2285
tp2286
Rp2287
sa(dp2288
S'action'
p2289
S'delete'
p2290
sS'order'
p2291
F1524073771.902824
sS'objid'
p2292
g4
(g17
S'-\x00\x00\x00\x00\x00\x00\x00'
p2293
tp2294
Rp2295
sa(dp2296
S'action'
p2297
S'delete'
p2298
sS'order'
p2299
F1524073771.93849
sS'objid'
p2300
g4
(g17
S',\x00\x00\x00\x00\x00\x00\x00'
p2301
tp2302
Rp2303
sa(dp2304
S'action'
p2305
S'delete'
p2306
sS'order'
p2307
F1524073771.974103
sS'objid'
p2308
g4
(g17
S'+\x00\x00\x00\x00\x00\x00\x00'
p2309
tp2310
Rp2311
sa(dp2312
S'action'
p2313
S'delete'
p2314
sS'order'
p2315
F1524073772.010746
sS'objid'
p2316
g4
(g17
S'*\x00\x00\x00\x00\x00\x00\x00'
p2317
tp2318
Rp2319
sa(dp2320
S'action'
p2321
S'delete'
p2322
sS'order'
p2323
F1524073772.046695
sS'objid'
p2324
g4
(g17
S')\x00\x00\x00\x00\x00\x00\x00'
p2325
tp2326
Rp2327
sa(dp2328
S'action'
p2329
S'delete'
p2330
sS'order'
p2331
F1524073772.082751
sS'objid'
p2332
g4
(g17
S'(\x00\x00\x00\x00\x00\x00\x00'
p2333
tp2334
Rp2335
sa(dp2336
S'action'
p2337
S'delete'
p2338
sS'order'
p2339
F1524073772.119121
sS'objid'
p2340
g4
(g17
S"'\x00\x00\x00\x00\x00\x00\x00"
p2341
tp2342
Rp2343
sa(dp2344
S'action'
p2345
S'delete'
p2346
sS'order'
p2347
F1524073772.155251
sS'objid'
p2348
g4
(g17
S'&\x00\x00\x00\x00\x00\x00\x00'
p2349
tp2350
Rp2351
sa(dp2352
S'action'
p2353
S'delete'
p2354
sS'order'
p2355
F1524073772.191941
sS'objid'
p2356
g4
(g17
S'%\x00\x00\x00\x00\x00\x00\x00'
p2357
tp2358
Rp2359
sa(dp2360
S'action'
p2361
S'delete'
p2362
sS'order'
p2363
F1524073772.228955
sS'objid'
p2364
g4
(g17
S'$\x00\x00\x00\x00\x00\x00\x00'
p2365
tp2366
Rp2367
sa(dp2368
S'action'
p2369
S'delete'
p2370
sS'order'
p2371
F1524073772.265506
sS'objid'
p2372
g4
(g17
S'#\x00\x00\x00\x00\x00\x00\x00'
p2373
tp2374
Rp2375
sa(dp2376
S'action'
p2377
S'delete'
p2378
sS'order'
p2379
F1524073772.302567
sS'objid'
p2380
g4
(g17
S'"\x00\x00\x00\x00\x00\x00\x00'
p2381
tp2382
Rp2383
sa(dp2384
S'action'
p2385
S'delete'
p2386
sS'order'
p2387
F1524073772.339547
sS'objid'
p2388
g4
(g17
S'!\x00\x00\x00\x00\x00\x00\x00'
p2389
tp2390
Rp2391
sa(dp2392
S'action'
p2393
S'delete'
p2394
sS'order'
p2395
F1524073772.376508
sS'objid'
p2396
g4
(g17
S' \x00\x00\x00\x00\x00\x00\x00'
p2397
tp2398
Rp2399
sa(dp2400
S'action'
p2401
S'delete'
p2402
sS'order'
p2403
F1524073772.413778
sS'objid'
p2404
g4
(g17
S'\x1f\x00\x00\x00\x00\x00\x00\x00'
p2405
tp2406
Rp2407
sa(dp2408
S'action'
p2409
S'delete'
p2410
sS'order'
p2411
F1524073772.451143
sS'objid'
p2412
g4
(g17
S'\x1e\x00\x00\x00\x00\x00\x00\x00'
p2413
tp2414
Rp2415
sa(dp2416
S'action'
p2417
S'delete'
p2418
sS'order'
p2419
F1524073772.488857
sS'objid'
p2420
g4
(g17
S'\x1d\x00\x00\x00\x00\x00\x00\x00'
p2421
tp2422
Rp2423
sa(dp2424
S'action'
p2425
S'delete'
p2426
sS'order'
p2427
F1524073772.526578
sS'objid'
p2428
g4
(g17
S'\x1c\x00\x00\x00\x00\x00\x00\x00'
p2429
tp2430
Rp2431
sa(dp2432
S'action'
p2433
S'delete'
p2434
sS'order'
p2435
F1524073772.564135
sS'objid'
p2436
g4
(g17
S'\x1b\x00\x00\x00\x00\x00\x00\x00'
p2437
tp2438
Rp2439
sa(dp2440
S'action'
p2441
S'delete'
p2442
sS'order'
p2443
F1524073772.602143
sS'objid'
p2444
g4
(g17
S'\x1a\x00\x00\x00\x00\x00\x00\x00'
p2445
tp2446
Rp2447
sa(dp2448
S'action'
p2449
S'delete'
p2450
sS'order'
p2451
F1524073772.639952
sS'objid'
p2452
g4
(g17
S'\x19\x00\x00\x00\x00\x00\x00\x00'
p2453
tp2454
Rp2455
sa(dp2456
S'action'
p2457
S'delete'
p2458
sS'order'
p2459
F1524073772.677729
sS'objid'
p2460
g4
(g17
S'\x18\x00\x00\x00\x00\x00\x00\x00'
p2461
tp2462
Rp2463
sa(dp2464
S'action'
p2465
S'delete'
p2466
sS'order'
p2467
F1524073772.715901
sS'objid'
p2468
g4
(g17
S'\x17\x00\x00\x00\x00\x00\x00\x00'
p2469
tp2470
Rp2471
sa(dp2472
S'action'
p2473
S'delete'
p2474
sS'order'
p2475
F1524073772.754008
sS'objid'
p2476
g4
(g17
S'\x16\x00\x00\x00\x00\x00\x00\x00'
p2477
tp2478
Rp2479
sa(dp2480
S'action'
p2481
S'delete'
p2482
sS'order'
p2483
F1524073772.793158
sS'objid'
p2484
g4
(g17
S'\x15\x00\x00\x00\x00\x00\x00\x00'
p2485
tp2486
Rp2487
sa(dp2488
S'action'
p2489
S'delete'
p2490
sS'order'
p2491
F1524073772.831767
sS'objid'
p2492
g4
(g17
S'\x14\x00\x00\x00\x00\x00\x00\x00'
p2493
tp2494
Rp2495
sa(dp2496
S'action'
p2497
S'delete'
p2498
sS'order'
p2499
F1524073772.870217
sS'objid'
p2500
g4
(g17
S'\x13\x00\x00\x00\x00\x00\x00\x00'
p2501
tp2502
Rp2503
sa(dp2504
S'action'
p2505
S'delete'
p2506
sS'order'
p2507
F1524073772.909179
sS'objid'
p2508
g4
(g17
S'\x12\x00\x00\x00\x00\x00\x00\x00'
p2509
tp2510
Rp2511
sa(dp2512
S'action'
p2513
S'delete'
p2514
sS'order'
p2515
F1524073772.947947
sS'objid'
p2516
g4
(g17
S'\x11\x00\x00\x00\x00\x00\x00\x00'
p2517
tp2518
Rp2519
sa(dp2520
S'action'
p2521
S'delete'
p2522
sS'order'
p2523
F1524073772.986806
sS'objid'
p2524
g4
(g17
S'\x10\x00\x00\x00\x00\x00\x00\x00'
p2525
tp2526
Rp2527
sa(dp2528
S'action'
p2529
S'delete'
p2530
sS'order'
p2531
F1524073773.025878
sS'objid'
p2532
g4
(g17
S'\x0f\x00\x00\x00\x00\x00\x00\x00'
p2533
tp2534
Rp2535
sa(dp2536
S'action'
p2537
S'delete'
p2538
sS'order'
p2539
F1524073773.064944
sS'objid'
p2540
g4
(g17
S'\x0e\x00\x00\x00\x00\x00\x00\x00'
p2541
tp2542
Rp2543
sa(dp2544
S'action'
p2545
S'delete'
p2546
sS'order'
p2547
F1524073773.104412
sS'objid'
p2548
g4
(g17
S'\r\x00\x00\x00\x00\x00\x00\x00'
p2549
tp2550
Rp2551
sa(dp2552
S'action'
p2553
S'delete'
p2554
sS'order'
p2555
F1524073773.143785
sS'objid'
p2556
g4
(g17
S'\x0c\x00\x00\x00\x00\x00\x00\x00'
p2557
tp2558
Rp2559
sa(dp2560
S'action'
p2561
S'delete'
p2562
sS'order'
p2563
F1524073773.183292
sS'objid'
p2564
g4
(g17
S'\x0b\x00\x00\x00\x00\x00\x00\x00'
p2565
tp2566
Rp2567
sa(dp2568
S'action'
p2569
S'delete'
p2570
sS'order'
p2571
F1524073773.223158
sS'objid'
p2572
g4
(g17
S'\n\x00\x00\x00\x00\x00\x00\x00'
p2573
tp2574
Rp2575
sa(dp2576
S'action'
p2577
S'delete'
p2578
sS'order'
p2579
F1524073773.262873
sS'objid'
p2580
g4
(g17
S'\t\x00\x00\x00\x00\x00\x00\x00'
p2581
tp2582
Rp2583
sa(dp2584
S'action'
p2585
S'delete'
p2586
sS'order'
p2587
F1524073773.302996
sS'objid'
p2588
g4
(g17
S'\x08\x00\x00\x00\x00\x00\x00\x00'
p2589
tp2590
Rp2591
sa(dp2592
S'action'
p2593
S'delete'
p2594
sS'order'
p2595
F1524073773.342981
sS'objid'
p2596
g4
(g17
S'\x07\x00\x00\x00\x00\x00\x00\x00'
p2597
tp2598
Rp2599
sa(dp2600
S'action'
p2601
S'delete'
p2602
sS'order'
p2603
F1524073773.382948
sS'objid'
p2604
g4
(g17
S'\x06\x00\x00\x00\x00\x00\x00\x00'
p2605
tp2606
Rp2607
sa(dp2608
S'action'
p2609
S'delete'
p2610
sS'order'
p2611
F1524073773.423318
sS'objid'
p2612
g4
(g17
S'\x05\x00\x00\x00\x00\x00\x00\x00'
p2613
tp2614
Rp2615
sa(dp2616
S'action'
p2617
S'delete'
p2618
sS'order'
p2619
F1524073773.463576
sS'objid'
p2620
g4
(g17
S'\x04\x00\x00\x00\x00\x00\x00\x00'
p2621
tp2622
Rp2623
sa(dp2624
S'action'
p2625
S'delete'
p2626
sS'order'
p2627
F1524073773.504304
sS'objid'
p2628
g4
(g17
S'\x03\x00\x00\x00\x00\x00\x00\x00'
p2629
tp2630
Rp2631
sa(dp2632
S'action'
p2633
S'delete'
p2634
sS'order'
p2635
F1524073773.544879
sS'objid'
p2636
g4
(g17
S'\x02\x00\x00\x00\x00\x00\x00\x00'
p2637
tp2638
Rp2639
sa(dp2640
S'action'
p2641
S'delete'
p2642
sS'order'
p2643
F1524073773.585517
sS'objid'
p2644
g4
(g17
S'\x01\x00\x00\x00\x00\x00\x00\x00'
p2645
tp2646
Rp2647
sa.