(lp0
(dp1
S'action'
p2
S'join'
p3
sS'data_to_add'
p4
(lp5
sS'order'
p6
F1523921688.471093
sS'new_objid'
p7
cnumpy.core.multiarray
scalar
p8
(cnumpy
dtype
p9
(S'i8'
p10
I0
I1
tp11
Rp12
(I3
S'<'
p13
NNNI-1
I-1
I0
tp14
bS'=\x00\x00\x00\x00\x00\x00\x00'
p15
tp16
Rp17
sS'objids'
p18
(lp19
g8
(g12
S'\x06\x00\x00\x00\x00\x00\x00\x00'
p20
tp21
Rp22
ag8
(g12
S'\x03\x00\x00\x00\x00\x00\x00\x00'
p23
tp24
Rp25
asa(dp26
S'cut_frame_global'
p27
I245
sS'cut_time_epoch'
p28
g8
(g9
(S'f8'
p29
I0
I1
tp30
Rp31
(I3
S'<'
p32
NNNI-1
I-1
I0
tp33
bS'\x9a\x18S\xa7\x93\xb4\xd6A'
p34
tp35
Rp36
sS'cut_frame_trajectory'
p37
g8
(g12
S'\xc4\x00\x00\x00\x00\x00\x00\x00'
p38
tp39
Rp40
sS'objid'
p41
g8
(g12
S'\x04\x00\x00\x00\x00\x00\x00\x00'
p42
tp43
Rp44
sg2
S'cut'
p45
sg6
F1523921742.950927
sg7
g8
(g12
S'>\x00\x00\x00\x00\x00\x00\x00'
p46
tp47
Rp48
sa(dp49
g2
g3
sg4
(lp50
(lp51
F1523732102.9983225
aF34.236408451156116
aF309.4661215420502
aa(lp52
F1523732102.8983712
aF34.236408451156116
aF309.4661215420502
aa(lp53
F1523732103.1983294
aF34.78006970198803
aF309.4661215420502
aa(lp54
F1523732103.9983287
aF34.78006970198803
aF309.4661215420502
aa(lp55
F1523732104.8983557
aF34.78006970198803
aF309.4661215420502
aasg6
F1523921746.974693
sg7
g8
(g12
S'?\x00\x00\x00\x00\x00\x00\x00'
p56
tp57
Rp58
sg18
(lp59
g8
(g12
S'=\x00\x00\x00\x00\x00\x00\x00'
p60
tp61
Rp62
ag8
(g12
S'>\x00\x00\x00\x00\x00\x00\x00'
p63
tp64
Rp65
asa(dp66
g27
I986
sg28
g8
(g31
S'%~\xd9\xb9\x93\xb4\xd6A'
p67
tp68
Rp69
sg37
g8
(g12
S'\xa9\x03\x00\x00\x00\x00\x00\x00'
p70
tp71
Rp72
sg41
g8
(g12
S'?\x00\x00\x00\x00\x00\x00\x00'
p73
tp74
Rp75
sg2
g45
sg6
F1523921769.262588
sg7
g8
(g12
S'@\x00\x00\x00\x00\x00\x00\x00'
p76
tp77
Rp78
sa(dp79
g2
g3
sg4
(lp80
sg6
F1523921775.013082
sg7
g8
(g12
S'A\x00\x00\x00\x00\x00\x00\x00'
p81
tp82
Rp83
sg18
(lp84
g8
(g12
S'\x19\x00\x00\x00\x00\x00\x00\x00'
p85
tp86
Rp87
ag8
(g12
S'?\x00\x00\x00\x00\x00\x00\x00'
p88
tp89
Rp90
asa(dp91
g2
g3
sg4
(lp92
sg6
F1523921787.765346
sg7
g8
(g12
S'B\x00\x00\x00\x00\x00\x00\x00'
p93
tp94
Rp95
sg18
(lp96
g8
(g12
S'A\x00\x00\x00\x00\x00\x00\x00'
p97
tp98
Rp99
ag8
(g12
S"'\x00\x00\x00\x00\x00\x00\x00"
p100
tp101
Rp102
ag8
(g12
S',\x00\x00\x00\x00\x00\x00\x00'
p103
tp104
Rp105
asa(dp106
S'cut_frame_global'
p107
I1661
sS'cut_time_epoch'
p108
g8
(g31
S'8~\xb9\xca\x93\xb4\xd6A'
p109
tp110
Rp111
sS'cut_frame_trajectory'
p112
g8
(g12
S'L\x06\x00\x00\x00\x00\x00\x00'
p113
tp114
Rp115
sS'objid'
p116
g8
(g12
S'B\x00\x00\x00\x00\x00\x00\x00'
p117
tp118
Rp119
sS'action'
p120
S'cut'
p121
sS'order'
p122
F1523921805.901328
sS'new_objid'
p123
g8
(g12
S'D\x00\x00\x00\x00\x00\x00\x00'
p124
tp125
Rp126
sa(dp127
S'action'
p128
S'join'
p129
sS'data_to_add'
p130
(lp131
sS'order'
p132
F1523921811.621848
sS'new_objid'
p133
g8
(g12
S'E\x00\x00\x00\x00\x00\x00\x00'
p134
tp135
Rp136
sS'objids'
p137
(lp138
g8
(g12
S'D\x00\x00\x00\x00\x00\x00\x00'
p139
tp140
Rp141
ag8
(g12
S'/\x00\x00\x00\x00\x00\x00\x00'
p142
tp143
Rp144
asa(dp145
S'action'
p146
S'join'
p147
sS'data_to_add'
p148
(lp149
sS'order'
p150
F1523921824.182571
sS'new_objid'
p151
g8
(g12
S'F\x00\x00\x00\x00\x00\x00\x00'
p152
tp153
Rp154
sS'objids'
p155
(lp156
g8
(g12
S'E\x00\x00\x00\x00\x00\x00\x00'
p157
tp158
Rp159
ag8
(g12
S'B\x00\x00\x00\x00\x00\x00\x00'
p160
tp161
Rp162
asa(dp163
S'action'
p164
S'delete'
p165
sS'order'
p166
F1523921833.358223
sS'objid'
p167
g8
(g12
S'@\x00\x00\x00\x00\x00\x00\x00'
p168
tp169
Rp170
sa(dp171
S'action'
p172
S'delete'
p173
sS'order'
p174
F1523921833.362171
sS'objid'
p175
g8
(g12
S'.\x00\x00\x00\x00\x00\x00\x00'
p176
tp177
Rp178
sa(dp179
S'action'
p180
S'delete'
p181
sS'order'
p182
F1523921833.365876
sS'objid'
p183
g8
(g12
S'-\x00\x00\x00\x00\x00\x00\x00'
p184
tp185
Rp186
sa(dp187
S'action'
p188
S'delete'
p189
sS'order'
p190
F1523921833.369212
sS'objid'
p191
g8
(g12
S'+\x00\x00\x00\x00\x00\x00\x00'
p192
tp193
Rp194
sa(dp195
S'action'
p196
S'delete'
p197
sS'order'
p198
F1523921833.373413
sS'objid'
p199
g8
(g12
S'*\x00\x00\x00\x00\x00\x00\x00'
p200
tp201
Rp202
sa(dp203
S'action'
p204
S'delete'
p205
sS'order'
p206
F1523921833.377487
sS'objid'
p207
g8
(g12
S')\x00\x00\x00\x00\x00\x00\x00'
p208
tp209
Rp210
sa(dp211
S'action'
p212
S'delete'
p213
sS'order'
p214
F1523921833.381753
sS'objid'
p215
g8
(g12
S'(\x00\x00\x00\x00\x00\x00\x00'
p216
tp217
Rp218
sa(dp219
S'action'
p220
S'delete'
p221
sS'order'
p222
F1523921833.386019
sS'objid'
p223
g8
(g12
S'&\x00\x00\x00\x00\x00\x00\x00'
p224
tp225
Rp226
sa(dp227
S'action'
p228
S'delete'
p229
sS'order'
p230
F1523921833.388971
sS'objid'
p231
g8
(g12
S'%\x00\x00\x00\x00\x00\x00\x00'
p232
tp233
Rp234
sa(dp235
S'action'
p236
S'delete'
p237
sS'order'
p238
F1523921833.391898
sS'objid'
p239
g8
(g12
S'$\x00\x00\x00\x00\x00\x00\x00'
p240
tp241
Rp242
sa(dp243
S'action'
p244
S'delete'
p245
sS'order'
p246
F1523921833.394681
sS'objid'
p247
g8
(g12
S'#\x00\x00\x00\x00\x00\x00\x00'
p248
tp249
Rp250
sa(dp251
S'action'
p252
S'delete'
p253
sS'order'
p254
F1523921833.397531
sS'objid'
p255
g8
(g12
S'"\x00\x00\x00\x00\x00\x00\x00'
p256
tp257
Rp258
sa(dp259
S'action'
p260
S'delete'
p261
sS'order'
p262
F1523921833.4003
sS'objid'
p263
g8
(g12
S'!\x00\x00\x00\x00\x00\x00\x00'
p264
tp265
Rp266
sa(dp267
S'action'
p268
S'delete'
p269
sS'order'
p270
F1523921833.403102
sS'objid'
p271
g8
(g12
S' \x00\x00\x00\x00\x00\x00\x00'
p272
tp273
Rp274
sa(dp275
S'action'
p276
S'delete'
p277
sS'order'
p278
F1523921833.405976
sS'objid'
p279
g8
(g12
S'\x1f\x00\x00\x00\x00\x00\x00\x00'
p280
tp281
Rp282
sa(dp283
S'action'
p284
S'delete'
p285
sS'order'
p286
F1523921833.408897
sS'objid'
p287
g8
(g12
S'\x1e\x00\x00\x00\x00\x00\x00\x00'
p288
tp289
Rp290
sa(dp291
S'action'
p292
S'delete'
p293
sS'order'
p294
F1523921833.411881
sS'objid'
p295
g8
(g12
S'\x1d\x00\x00\x00\x00\x00\x00\x00'
p296
tp297
Rp298
sa(dp299
S'action'
p300
S'delete'
p301
sS'order'
p302
F1523921833.414908
sS'objid'
p303
g8
(g12
S'\x1c\x00\x00\x00\x00\x00\x00\x00'
p304
tp305
Rp306
sa(dp307
S'action'
p308
S'delete'
p309
sS'order'
p310
F1523921833.418003
sS'objid'
p311
g8
(g12
S'\x1b\x00\x00\x00\x00\x00\x00\x00'
p312
tp313
Rp314
sa(dp315
S'action'
p316
S'delete'
p317
sS'order'
p318
F1523921833.421159
sS'objid'
p319
g8
(g12
S'\x1a\x00\x00\x00\x00\x00\x00\x00'
p320
tp321
Rp322
sa(dp323
S'action'
p324
S'delete'
p325
sS'order'
p326
F1523921833.424365
sS'objid'
p327
g8
(g12
S'\x18\x00\x00\x00\x00\x00\x00\x00'
p328
tp329
Rp330
sa(dp331
S'action'
p332
S'delete'
p333
sS'order'
p334
F1523921833.427635
sS'objid'
p335
g8
(g12
S'\x17\x00\x00\x00\x00\x00\x00\x00'
p336
tp337
Rp338
sa(dp339
S'action'
p340
S'delete'
p341
sS'order'
p342
F1523921833.430959
sS'objid'
p343
g8
(g12
S'\x16\x00\x00\x00\x00\x00\x00\x00'
p344
tp345
Rp346
sa(dp347
S'action'
p348
S'delete'
p349
sS'order'
p350
F1523921833.434368
sS'objid'
p351
g8
(g12
S'\x15\x00\x00\x00\x00\x00\x00\x00'
p352
tp353
Rp354
sa(dp355
S'action'
p356
S'delete'
p357
sS'order'
p358
F1523921833.437842
sS'objid'
p359
g8
(g12
S'\x14\x00\x00\x00\x00\x00\x00\x00'
p360
tp361
Rp362
sa(dp363
S'action'
p364
S'delete'
p365
sS'order'
p366
F1523921833.441368
sS'objid'
p367
g8
(g12
S'\x13\x00\x00\x00\x00\x00\x00\x00'
p368
tp369
Rp370
sa(dp371
S'action'
p372
S'delete'
p373
sS'order'
p374
F1523921833.444953
sS'objid'
p375
g8
(g12
S'\x12\x00\x00\x00\x00\x00\x00\x00'
p376
tp377
Rp378
sa(dp379
S'action'
p380
S'delete'
p381
sS'order'
p382
F1523921833.448587
sS'objid'
p383
g8
(g12
S'\x11\x00\x00\x00\x00\x00\x00\x00'
p384
tp385
Rp386
sa(dp387
S'action'
p388
S'delete'
p389
sS'order'
p390
F1523921833.452277
sS'objid'
p391
g8
(g12
S'\x10\x00\x00\x00\x00\x00\x00\x00'
p392
tp393
Rp394
sa(dp395
S'action'
p396
S'delete'
p397
sS'order'
p398
F1523921833.456012
sS'objid'
p399
g8
(g12
S'\x0f\x00\x00\x00\x00\x00\x00\x00'
p400
tp401
Rp402
sa(dp403
S'action'
p404
S'delete'
p405
sS'order'
p406
F1523921833.459818
sS'objid'
p407
g8
(g12
S'\x0e\x00\x00\x00\x00\x00\x00\x00'
p408
tp409
Rp410
sa(dp411
S'action'
p412
S'delete'
p413
sS'order'
p414
F1523921833.46367
sS'objid'
p415
g8
(g12
S'\r\x00\x00\x00\x00\x00\x00\x00'
p416
tp417
Rp418
sa(dp419
S'action'
p420
S'delete'
p421
sS'order'
p422
F1523921833.467589
sS'objid'
p423
g8
(g12
S'\x0c\x00\x00\x00\x00\x00\x00\x00'
p424
tp425
Rp426
sa(dp427
S'action'
p428
S'delete'
p429
sS'order'
p430
F1523921833.471564
sS'objid'
p431
g8
(g12
S'\x0b\x00\x00\x00\x00\x00\x00\x00'
p432
tp433
Rp434
sa(dp435
S'action'
p436
S'delete'
p437
sS'order'
p438
F1523921833.477679
sS'objid'
p439
g8
(g12
S'\n\x00\x00\x00\x00\x00\x00\x00'
p440
tp441
Rp442
sa(dp443
S'action'
p444
S'delete'
p445
sS'order'
p446
F1523921833.482345
sS'objid'
p447
g8
(g12
S'\t\x00\x00\x00\x00\x00\x00\x00'
p448
tp449
Rp450
sa(dp451
S'action'
p452
S'delete'
p453
sS'order'
p454
F1523921833.487133
sS'objid'
p455
g8
(g12
S'\x08\x00\x00\x00\x00\x00\x00\x00'
p456
tp457
Rp458
sa(dp459
S'action'
p460
S'delete'
p461
sS'order'
p462
F1523921833.491546
sS'objid'
p463
g8
(g12
S'\x07\x00\x00\x00\x00\x00\x00\x00'
p464
tp465
Rp466
sa(dp467
S'action'
p468
S'delete'
p469
sS'order'
p470
F1523921833.495868
sS'objid'
p471
g8
(g12
S'\x05\x00\x00\x00\x00\x00\x00\x00'
p472
tp473
Rp474
sa(dp475
S'action'
p476
S'delete'
p477
sS'order'
p478
F1523921833.5002
sS'objid'
p479
g8
(g12
S'\x04\x00\x00\x00\x00\x00\x00\x00'
p480
tp481
Rp482
sa(dp483
S'action'
p484
S'delete'
p485
sS'order'
p486
F1523921833.504586
sS'objid'
p487
g8
(g12
S'\x02\x00\x00\x00\x00\x00\x00\x00'
p488
tp489
Rp490
sa(dp491
S'action'
p492
S'delete'
p493
sS'order'
p494
F1523921833.509021
sS'objid'
p495
g8
(g12
S'\x01\x00\x00\x00\x00\x00\x00\x00'
p496
tp497
Rp498
sa(dp499
S'action'
p500
S'delete'
p501
sS'order'
p502
F1523921833.513503
sS'objid'
p503
g8
(g12
S'\x00\x00\x00\x00\x00\x00\x00\x00'
p504
tp505
Rp506
sa.