(lp0
(dp1
S'action'
p2
S'join'
p3
sS'data_to_add'
p4
(lp5
sS'order'
p6
F1523983706.01909
sS'new_objid'
p7
cnumpy.core.multiarray
scalar
p8
(cnumpy
dtype
p9
(S'i8'
p10
I0
I1
tp11
Rp12
(I3
S'<'
p13
NNNI-1
I-1
I0
tp14
bS'\x97\x00\x00\x00\x00\x00\x00\x00'
p15
tp16
Rp17
sS'objids'
p18
(lp19
g8
(g12
S'\x00\x00\x00\x00\x00\x00\x00\x00'
p20
tp21
Rp22
ag8
(g12
S'A\x00\x00\x00\x00\x00\x00\x00'
p23
tp24
Rp25
ag8
(g12
S'E\x00\x00\x00\x00\x00\x00\x00'
p26
tp27
Rp28
ag8
(g12
S'L\x00\x00\x00\x00\x00\x00\x00'
p29
tp30
Rp31
ag8
(g12
S'>\x00\x00\x00\x00\x00\x00\x00'
p32
tp33
Rp34
asa(dp35
S'action'
p36
S'delete'
p37
sS'order'
p38
F1523983733.333161
sS'objid'
p39
g8
(g12
S'\x8c\x00\x00\x00\x00\x00\x00\x00'
p40
tp41
Rp42
sa(dp43
S'action'
p44
S'delete'
p45
sS'order'
p46
F1523983733.335313
sS'objid'
p47
g8
(g12
S'\x8b\x00\x00\x00\x00\x00\x00\x00'
p48
tp49
Rp50
sa(dp51
S'action'
p52
S'delete'
p53
sS'order'
p54
F1523983733.337327
sS'objid'
p55
g8
(g12
S'\x8a\x00\x00\x00\x00\x00\x00\x00'
p56
tp57
Rp58
sa(dp59
S'action'
p60
S'delete'
p61
sS'order'
p62
F1523983733.339325
sS'objid'
p63
g8
(g12
S'\x89\x00\x00\x00\x00\x00\x00\x00'
p64
tp65
Rp66
sa(dp67
S'action'
p68
S'delete'
p69
sS'order'
p70
F1523983733.34199
sS'objid'
p71
g8
(g12
S'\x88\x00\x00\x00\x00\x00\x00\x00'
p72
tp73
Rp74
sa(dp75
S'action'
p76
S'delete'
p77
sS'order'
p78
F1523983733.344756
sS'objid'
p79
g8
(g12
S'\x87\x00\x00\x00\x00\x00\x00\x00'
p80
tp81
Rp82
sa(dp83
S'action'
p84
S'delete'
p85
sS'order'
p86
F1523983733.345992
sS'objid'
p87
g8
(g12
S'\x86\x00\x00\x00\x00\x00\x00\x00'
p88
tp89
Rp90
sa(dp91
S'action'
p92
S'delete'
p93
sS'order'
p94
F1523983733.347278
sS'objid'
p95
g8
(g12
S'\x85\x00\x00\x00\x00\x00\x00\x00'
p96
tp97
Rp98
sa(dp99
S'action'
p100
S'delete'
p101
sS'order'
p102
F1523983733.348627
sS'objid'
p103
g8
(g12
S'\x84\x00\x00\x00\x00\x00\x00\x00'
p104
tp105
Rp106
sa(dp107
S'action'
p108
S'delete'
p109
sS'order'
p110
F1523983733.350055
sS'objid'
p111
g8
(g12
S'\x83\x00\x00\x00\x00\x00\x00\x00'
p112
tp113
Rp114
sa(dp115
S'action'
p116
S'delete'
p117
sS'order'
p118
F1523983733.35152
sS'objid'
p119
g8
(g12
S'\x82\x00\x00\x00\x00\x00\x00\x00'
p120
tp121
Rp122
sa(dp123
S'action'
p124
S'delete'
p125
sS'order'
p126
F1523983733.35304
sS'objid'
p127
g8
(g12
S'\x81\x00\x00\x00\x00\x00\x00\x00'
p128
tp129
Rp130
sa(dp131
S'action'
p132
S'delete'
p133
sS'order'
p134
F1523983733.35461
sS'objid'
p135
g8
(g12
S'\x80\x00\x00\x00\x00\x00\x00\x00'
p136
tp137
Rp138
sa(dp139
S'action'
p140
S'delete'
p141
sS'order'
p142
F1523983733.356282
sS'objid'
p143
g8
(g12
S'\x7f\x00\x00\x00\x00\x00\x00\x00'
p144
tp145
Rp146
sa(dp147
S'action'
p148
S'delete'
p149
sS'order'
p150
F1523983733.357985
sS'objid'
p151
g8
(g12
S'~\x00\x00\x00\x00\x00\x00\x00'
p152
tp153
Rp154
sa(dp155
S'action'
p156
S'delete'
p157
sS'order'
p158
F1523983733.359753
sS'objid'
p159
g8
(g12
S'}\x00\x00\x00\x00\x00\x00\x00'
p160
tp161
Rp162
sa(dp163
S'action'
p164
S'delete'
p165
sS'order'
p166
F1523983733.361553
sS'objid'
p167
g8
(g12
S'|\x00\x00\x00\x00\x00\x00\x00'
p168
tp169
Rp170
sa(dp171
S'action'
p172
S'delete'
p173
sS'order'
p174
F1523983733.363981
sS'objid'
p175
g8
(g12
S'{\x00\x00\x00\x00\x00\x00\x00'
p176
tp177
Rp178
sa(dp179
S'action'
p180
S'delete'
p181
sS'order'
p182
F1523983733.366188
sS'objid'
p183
g8
(g12
S'z\x00\x00\x00\x00\x00\x00\x00'
p184
tp185
Rp186
sa(dp187
S'action'
p188
S'delete'
p189
sS'order'
p190
F1523983733.368248
sS'objid'
p191
g8
(g12
S'y\x00\x00\x00\x00\x00\x00\x00'
p192
tp193
Rp194
sa(dp195
S'action'
p196
S'delete'
p197
sS'order'
p198
F1523983733.370292
sS'objid'
p199
g8
(g12
S'x\x00\x00\x00\x00\x00\x00\x00'
p200
tp201
Rp202
sa(dp203
S'action'
p204
S'delete'
p205
sS'order'
p206
F1523983733.372395
sS'objid'
p207
g8
(g12
S'w\x00\x00\x00\x00\x00\x00\x00'
p208
tp209
Rp210
sa(dp211
S'action'
p212
S'delete'
p213
sS'order'
p214
F1523983733.374607
sS'objid'
p215
g8
(g12
S'v\x00\x00\x00\x00\x00\x00\x00'
p216
tp217
Rp218
sa(dp219
S'action'
p220
S'delete'
p221
sS'order'
p222
F1523983733.376844
sS'objid'
p223
g8
(g12
S'u\x00\x00\x00\x00\x00\x00\x00'
p224
tp225
Rp226
sa(dp227
S'action'
p228
S'delete'
p229
sS'order'
p230
F1523983733.379114
sS'objid'
p231
g8
(g12
S't\x00\x00\x00\x00\x00\x00\x00'
p232
tp233
Rp234
sa(dp235
S'action'
p236
S'delete'
p237
sS'order'
p238
F1523983733.382251
sS'objid'
p239
g8
(g12
S's\x00\x00\x00\x00\x00\x00\x00'
p240
tp241
Rp242
sa(dp243
S'action'
p244
S'delete'
p245
sS'order'
p246
F1523983733.384695
sS'objid'
p247
g8
(g12
S'r\x00\x00\x00\x00\x00\x00\x00'
p248
tp249
Rp250
sa(dp251
S'action'
p252
S'delete'
p253
sS'order'
p254
F1523983733.387258
sS'objid'
p255
g8
(g12
S'q\x00\x00\x00\x00\x00\x00\x00'
p256
tp257
Rp258
sa(dp259
S'action'
p260
S'delete'
p261
sS'order'
p262
F1523983733.389988
sS'objid'
p263
g8
(g12
S'p\x00\x00\x00\x00\x00\x00\x00'
p264
tp265
Rp266
sa(dp267
S'action'
p268
S'delete'
p269
sS'order'
p270
F1523983733.392578
sS'objid'
p271
g8
(g12
S'o\x00\x00\x00\x00\x00\x00\x00'
p272
tp273
Rp274
sa(dp275
S'action'
p276
S'delete'
p277
sS'order'
p278
F1523983733.395215
sS'objid'
p279
g8
(g12
S'n\x00\x00\x00\x00\x00\x00\x00'
p280
tp281
Rp282
sa(dp283
S'action'
p284
S'delete'
p285
sS'order'
p286
F1523983733.398942
sS'objid'
p287
g8
(g12
S'm\x00\x00\x00\x00\x00\x00\x00'
p288
tp289
Rp290
sa(dp291
S'action'
p292
S'delete'
p293
sS'order'
p294
F1523983733.404449
sS'objid'
p295
g8
(g12
S'l\x00\x00\x00\x00\x00\x00\x00'
p296
tp297
Rp298
sa(dp299
S'action'
p300
S'delete'
p301
sS'order'
p302
F1523983733.408246
sS'objid'
p303
g8
(g12
S'k\x00\x00\x00\x00\x00\x00\x00'
p304
tp305
Rp306
sa(dp307
S'action'
p308
S'delete'
p309
sS'order'
p310
F1523983733.411107
sS'objid'
p311
g8
(g12
S'j\x00\x00\x00\x00\x00\x00\x00'
p312
tp313
Rp314
sa(dp315
S'action'
p316
S'delete'
p317
sS'order'
p318
F1523983733.414038
sS'objid'
p319
g8
(g12
S'i\x00\x00\x00\x00\x00\x00\x00'
p320
tp321
Rp322
sa(dp323
S'action'
p324
S'delete'
p325
sS'order'
p326
F1523983733.41704
sS'objid'
p327
g8
(g12
S'h\x00\x00\x00\x00\x00\x00\x00'
p328
tp329
Rp330
sa(dp331
S'action'
p332
S'delete'
p333
sS'order'
p334
F1523983733.420081
sS'objid'
p335
g8
(g12
S'g\x00\x00\x00\x00\x00\x00\x00'
p336
tp337
Rp338
sa(dp339
S'action'
p340
S'delete'
p341
sS'order'
p342
F1523983733.423197
sS'objid'
p343
g8
(g12
S'f\x00\x00\x00\x00\x00\x00\x00'
p344
tp345
Rp346
sa(dp347
S'action'
p348
S'delete'
p349
sS'order'
p350
F1523983733.426375
sS'objid'
p351
g8
(g12
S'e\x00\x00\x00\x00\x00\x00\x00'
p352
tp353
Rp354
sa(dp355
S'action'
p356
S'delete'
p357
sS'order'
p358
F1523983733.429606
sS'objid'
p359
g8
(g12
S'd\x00\x00\x00\x00\x00\x00\x00'
p360
tp361
Rp362
sa(dp363
S'action'
p364
S'delete'
p365
sS'order'
p366
F1523983733.432902
sS'objid'
p367
g8
(g12
S'c\x00\x00\x00\x00\x00\x00\x00'
p368
tp369
Rp370
sa(dp371
S'action'
p372
S'delete'
p373
sS'order'
p374
F1523983733.43626
sS'objid'
p375
g8
(g12
S'b\x00\x00\x00\x00\x00\x00\x00'
p376
tp377
Rp378
sa(dp379
S'action'
p380
S'delete'
p381
sS'order'
p382
F1523983733.439677
sS'objid'
p383
g8
(g12
S'a\x00\x00\x00\x00\x00\x00\x00'
p384
tp385
Rp386
sa(dp387
S'action'
p388
S'delete'
p389
sS'order'
p390
F1523983733.443129
sS'objid'
p391
g8
(g12
S'`\x00\x00\x00\x00\x00\x00\x00'
p392
tp393
Rp394
sa(dp395
S'action'
p396
S'delete'
p397
sS'order'
p398
F1523983733.446674
sS'objid'
p399
g8
(g12
S'_\x00\x00\x00\x00\x00\x00\x00'
p400
tp401
Rp402
sa(dp403
S'action'
p404
S'delete'
p405
sS'order'
p406
F1523983733.450281
sS'objid'
p407
g8
(g12
S'^\x00\x00\x00\x00\x00\x00\x00'
p408
tp409
Rp410
sa(dp411
S'action'
p412
S'delete'
p413
sS'order'
p414
F1523983733.453927
sS'objid'
p415
g8
(g12
S']\x00\x00\x00\x00\x00\x00\x00'
p416
tp417
Rp418
sa(dp419
S'action'
p420
S'delete'
p421
sS'order'
p422
F1523983733.457631
sS'objid'
p423
g8
(g12
S'\\\x00\x00\x00\x00\x00\x00\x00'
p424
tp425
Rp426
sa(dp427
S'action'
p428
S'delete'
p429
sS'order'
p430
F1523983733.461378
sS'objid'
p431
g8
(g12
S'[\x00\x00\x00\x00\x00\x00\x00'
p432
tp433
Rp434
sa(dp435
S'action'
p436
S'delete'
p437
sS'order'
p438
F1523983733.46519
sS'objid'
p439
g8
(g12
S'Z\x00\x00\x00\x00\x00\x00\x00'
p440
tp441
Rp442
sa(dp443
S'action'
p444
S'delete'
p445
sS'order'
p446
F1523983733.469092
sS'objid'
p447
g8
(g12
S'Y\x00\x00\x00\x00\x00\x00\x00'
p448
tp449
Rp450
sa(dp451
S'action'
p452
S'delete'
p453
sS'order'
p454
F1523983733.473036
sS'objid'
p455
g8
(g12
S'X\x00\x00\x00\x00\x00\x00\x00'
p456
tp457
Rp458
sa(dp459
S'action'
p460
S'delete'
p461
sS'order'
p462
F1523983733.477046
sS'objid'
p463
g8
(g12
S'W\x00\x00\x00\x00\x00\x00\x00'
p464
tp465
Rp466
sa(dp467
S'action'
p468
S'delete'
p469
sS'order'
p470
F1523983733.481099
sS'objid'
p471
g8
(g12
S'V\x00\x00\x00\x00\x00\x00\x00'
p472
tp473
Rp474
sa(dp475
S'action'
p476
S'delete'
p477
sS'order'
p478
F1523983733.485334
sS'objid'
p479
g8
(g12
S'U\x00\x00\x00\x00\x00\x00\x00'
p480
tp481
Rp482
sa(dp483
S'action'
p484
S'delete'
p485
sS'order'
p486
F1523983733.489565
sS'objid'
p487
g8
(g12
S'T\x00\x00\x00\x00\x00\x00\x00'
p488
tp489
Rp490
sa(dp491
S'action'
p492
S'delete'
p493
sS'order'
p494
F1523983733.494006
sS'objid'
p495
g8
(g12
S'S\x00\x00\x00\x00\x00\x00\x00'
p496
tp497
Rp498
sa(dp499
S'action'
p500
S'delete'
p501
sS'order'
p502
F1523983733.49851
sS'objid'
p503
g8
(g12
S'R\x00\x00\x00\x00\x00\x00\x00'
p504
tp505
Rp506
sa(dp507
S'action'
p508
S'delete'
p509
sS'order'
p510
F1523983733.506933
sS'objid'
p511
g8
(g12
S'Q\x00\x00\x00\x00\x00\x00\x00'
p512
tp513
Rp514
sa(dp515
S'action'
p516
S'delete'
p517
sS'order'
p518
F1523983733.511356
sS'objid'
p519
g8
(g12
S'P\x00\x00\x00\x00\x00\x00\x00'
p520
tp521
Rp522
sa(dp523
S'action'
p524
S'delete'
p525
sS'order'
p526
F1523983733.515811
sS'objid'
p527
g8
(g12
S'O\x00\x00\x00\x00\x00\x00\x00'
p528
tp529
Rp530
sa(dp531
S'action'
p532
S'delete'
p533
sS'order'
p534
F1523983733.520346
sS'objid'
p535
g8
(g12
S'N\x00\x00\x00\x00\x00\x00\x00'
p536
tp537
Rp538
sa(dp539
S'action'
p540
S'delete'
p541
sS'order'
p542
F1523983733.524917
sS'objid'
p543
g8
(g12
S'M\x00\x00\x00\x00\x00\x00\x00'
p544
tp545
Rp546
sa(dp547
S'action'
p548
S'delete'
p549
sS'order'
p550
F1523983733.529547
sS'objid'
p551
g8
(g12
S'K\x00\x00\x00\x00\x00\x00\x00'
p552
tp553
Rp554
sa(dp555
S'action'
p556
S'delete'
p557
sS'order'
p558
F1523983733.534253
sS'objid'
p559
g8
(g12
S'J\x00\x00\x00\x00\x00\x00\x00'
p560
tp561
Rp562
sa(dp563
S'action'
p564
S'delete'
p565
sS'order'
p566
F1523983733.539005
sS'objid'
p567
g8
(g12
S'I\x00\x00\x00\x00\x00\x00\x00'
p568
tp569
Rp570
sa(dp571
S'action'
p572
S'delete'
p573
sS'order'
p574
F1523983733.543813
sS'objid'
p575
g8
(g12
S'H\x00\x00\x00\x00\x00\x00\x00'
p576
tp577
Rp578
sa(dp579
S'action'
p580
S'delete'
p581
sS'order'
p582
F1523983733.548689
sS'objid'
p583
g8
(g12
S'G\x00\x00\x00\x00\x00\x00\x00'
p584
tp585
Rp586
sa(dp587
S'action'
p588
S'delete'
p589
sS'order'
p590
F1523983733.553611
sS'objid'
p591
g8
(g12
S'F\x00\x00\x00\x00\x00\x00\x00'
p592
tp593
Rp594
sa(dp595
S'action'
p596
S'delete'
p597
sS'order'
p598
F1523983733.558604
sS'objid'
p599
g8
(g12
S'D\x00\x00\x00\x00\x00\x00\x00'
p600
tp601
Rp602
sa(dp603
S'action'
p604
S'delete'
p605
sS'order'
p606
F1523983733.563642
sS'objid'
p607
g8
(g12
S'C\x00\x00\x00\x00\x00\x00\x00'
p608
tp609
Rp610
sa(dp611
S'action'
p612
S'delete'
p613
sS'order'
p614
F1523983733.568739
sS'objid'
p615
g8
(g12
S'B\x00\x00\x00\x00\x00\x00\x00'
p616
tp617
Rp618
sa(dp619
S'action'
p620
S'delete'
p621
sS'order'
p622
F1523983733.573901
sS'objid'
p623
g8
(g12
S'@\x00\x00\x00\x00\x00\x00\x00'
p624
tp625
Rp626
sa(dp627
S'action'
p628
S'delete'
p629
sS'order'
p630
F1523983733.579124
sS'objid'
p631
g8
(g12
S'?\x00\x00\x00\x00\x00\x00\x00'
p632
tp633
Rp634
sa(dp635
S'action'
p636
S'delete'
p637
sS'order'
p638
F1523983733.584514
sS'objid'
p639
g8
(g12
S'=\x00\x00\x00\x00\x00\x00\x00'
p640
tp641
Rp642
sa(dp643
S'action'
p644
S'delete'
p645
sS'order'
p646
F1523983733.589926
sS'objid'
p647
g8
(g12
S'<\x00\x00\x00\x00\x00\x00\x00'
p648
tp649
Rp650
sa(dp651
S'action'
p652
S'delete'
p653
sS'order'
p654
F1523983733.595502
sS'objid'
p655
g8
(g12
S';\x00\x00\x00\x00\x00\x00\x00'
p656
tp657
Rp658
sa(dp659
S'action'
p660
S'delete'
p661
sS'order'
p662
F1523983733.602115
sS'objid'
p663
g8
(g12
S':\x00\x00\x00\x00\x00\x00\x00'
p664
tp665
Rp666
sa(dp667
S'action'
p668
S'delete'
p669
sS'order'
p670
F1523983733.609863
sS'objid'
p671
g8
(g12
S'9\x00\x00\x00\x00\x00\x00\x00'
p672
tp673
Rp674
sa(dp675
S'action'
p676
S'delete'
p677
sS'order'
p678
F1523983733.615444
sS'objid'
p679
g8
(g12
S'8\x00\x00\x00\x00\x00\x00\x00'
p680
tp681
Rp682
sa(dp683
S'action'
p684
S'delete'
p685
sS'order'
p686
F1523983744.417133
sS'objid'
p687
g8
(g12
S'7\x00\x00\x00\x00\x00\x00\x00'
p688
tp689
Rp690
sa(dp691
S'action'
p692
S'delete'
p693
sS'order'
p694
F1523983744.427434
sS'objid'
p695
g8
(g12
S'6\x00\x00\x00\x00\x00\x00\x00'
p696
tp697
Rp698
sa(dp699
S'action'
p700
S'delete'
p701
sS'order'
p702
F1523983744.434654
sS'objid'
p703
g8
(g12
S'5\x00\x00\x00\x00\x00\x00\x00'
p704
tp705
Rp706
sa(dp707
S'action'
p708
S'delete'
p709
sS'order'
p710
F1523983744.440514
sS'objid'
p711
g8
(g12
S'4\x00\x00\x00\x00\x00\x00\x00'
p712
tp713
Rp714
sa(dp715
S'action'
p716
S'delete'
p717
sS'order'
p718
F1523983744.446424
sS'objid'
p719
g8
(g12
S'3\x00\x00\x00\x00\x00\x00\x00'
p720
tp721
Rp722
sa(dp723
S'action'
p724
S'delete'
p725
sS'order'
p726
F1523983744.452426
sS'objid'
p727
g8
(g12
S'2\x00\x00\x00\x00\x00\x00\x00'
p728
tp729
Rp730
sa(dp731
S'action'
p732
S'delete'
p733
sS'order'
p734
F1523983744.458405
sS'objid'
p735
g8
(g12
S'1\x00\x00\x00\x00\x00\x00\x00'
p736
tp737
Rp738
sa(dp739
S'action'
p740
S'delete'
p741
sS'order'
p742
F1523983744.464478
sS'objid'
p743
g8
(g12
S'0\x00\x00\x00\x00\x00\x00\x00'
p744
tp745
Rp746
sa(dp747
S'action'
p748
S'delete'
p749
sS'order'
p750
F1523983744.470572
sS'objid'
p751
g8
(g12
S'/\x00\x00\x00\x00\x00\x00\x00'
p752
tp753
Rp754
sa(dp755
S'action'
p756
S'delete'
p757
sS'order'
p758
F1523983744.476714
sS'objid'
p759
g8
(g12
S'.\x00\x00\x00\x00\x00\x00\x00'
p760
tp761
Rp762
sa(dp763
S'action'
p764
S'delete'
p765
sS'order'
p766
F1523983744.482977
sS'objid'
p767
g8
(g12
S'-\x00\x00\x00\x00\x00\x00\x00'
p768
tp769
Rp770
sa(dp771
S'action'
p772
S'delete'
p773
sS'order'
p774
F1523983744.489297
sS'objid'
p775
g8
(g12
S',\x00\x00\x00\x00\x00\x00\x00'
p776
tp777
Rp778
sa(dp779
S'action'
p780
S'delete'
p781
sS'order'
p782
F1523983744.495723
sS'objid'
p783
g8
(g12
S'+\x00\x00\x00\x00\x00\x00\x00'
p784
tp785
Rp786
sa(dp787
S'action'
p788
S'delete'
p789
sS'order'
p790
F1523983744.502112
sS'objid'
p791
g8
(g12
S'*\x00\x00\x00\x00\x00\x00\x00'
p792
tp793
Rp794
sa(dp795
S'action'
p796
S'delete'
p797
sS'order'
p798
F1523983744.508586
sS'objid'
p799
g8
(g12
S')\x00\x00\x00\x00\x00\x00\x00'
p800
tp801
Rp802
sa(dp803
S'action'
p804
S'delete'
p805
sS'order'
p806
F1523983744.51509
sS'objid'
p807
g8
(g12
S'(\x00\x00\x00\x00\x00\x00\x00'
p808
tp809
Rp810
sa(dp811
S'action'
p812
S'delete'
p813
sS'order'
p814
F1523983744.521641
sS'objid'
p815
g8
(g12
S"'\x00\x00\x00\x00\x00\x00\x00"
p816
tp817
Rp818
sa(dp819
S'action'
p820
S'delete'
p821
sS'order'
p822
F1523983744.528273
sS'objid'
p823
g8
(g12
S'&\x00\x00\x00\x00\x00\x00\x00'
p824
tp825
Rp826
sa(dp827
S'action'
p828
S'delete'
p829
sS'order'
p830
F1523983744.534938
sS'objid'
p831
g8
(g12
S'%\x00\x00\x00\x00\x00\x00\x00'
p832
tp833
Rp834
sa(dp835
S'action'
p836
S'delete'
p837
sS'order'
p838
F1523983744.541669
sS'objid'
p839
g8
(g12
S'$\x00\x00\x00\x00\x00\x00\x00'
p840
tp841
Rp842
sa(dp843
S'action'
p844
S'delete'
p845
sS'order'
p846
F1523983744.548483
sS'objid'
p847
g8
(g12
S'#\x00\x00\x00\x00\x00\x00\x00'
p848
tp849
Rp850
sa(dp851
S'action'
p852
S'delete'
p853
sS'order'
p854
F1523983744.555324
sS'objid'
p855
g8
(g12
S'"\x00\x00\x00\x00\x00\x00\x00'
p856
tp857
Rp858
sa(dp859
S'action'
p860
S'delete'
p861
sS'order'
p862
F1523983744.562221
sS'objid'
p863
g8
(g12
S'!\x00\x00\x00\x00\x00\x00\x00'
p864
tp865
Rp866
sa(dp867
S'action'
p868
S'delete'
p869
sS'order'
p870
F1523983744.569213
sS'objid'
p871
g8
(g12
S' \x00\x00\x00\x00\x00\x00\x00'
p872
tp873
Rp874
sa(dp875
S'action'
p876
S'delete'
p877
sS'order'
p878
F1523983744.576246
sS'objid'
p879
g8
(g12
S'\x1f\x00\x00\x00\x00\x00\x00\x00'
p880
tp881
Rp882
sa(dp883
S'action'
p884
S'delete'
p885
sS'order'
p886
F1523983744.583332
sS'objid'
p887
g8
(g12
S'\x1e\x00\x00\x00\x00\x00\x00\x00'
p888
tp889
Rp890
sa(dp891
S'action'
p892
S'delete'
p893
sS'order'
p894
F1523983744.590523
sS'objid'
p895
g8
(g12
S'\x1d\x00\x00\x00\x00\x00\x00\x00'
p896
tp897
Rp898
sa(dp899
S'action'
p900
S'delete'
p901
sS'order'
p902
F1523983744.597794
sS'objid'
p903
g8
(g12
S'\x1c\x00\x00\x00\x00\x00\x00\x00'
p904
tp905
Rp906
sa(dp907
S'action'
p908
S'delete'
p909
sS'order'
p910
F1523983744.605076
sS'objid'
p911
g8
(g12
S'\x1b\x00\x00\x00\x00\x00\x00\x00'
p912
tp913
Rp914
sa(dp915
S'action'
p916
S'delete'
p917
sS'order'
p918
F1523983744.6124
sS'objid'
p919
g8
(g12
S'\x1a\x00\x00\x00\x00\x00\x00\x00'
p920
tp921
Rp922
sa(dp923
S'action'
p924
S'delete'
p925
sS'order'
p926
F1523983744.619772
sS'objid'
p927
g8
(g12
S'\x19\x00\x00\x00\x00\x00\x00\x00'
p928
tp929
Rp930
sa(dp931
S'action'
p932
S'delete'
p933
sS'order'
p934
F1523983744.627201
sS'objid'
p935
g8
(g12
S'\x18\x00\x00\x00\x00\x00\x00\x00'
p936
tp937
Rp938
sa(dp939
S'action'
p940
S'delete'
p941
sS'order'
p942
F1523983744.634711
sS'objid'
p943
g8
(g12
S'\x17\x00\x00\x00\x00\x00\x00\x00'
p944
tp945
Rp946
sa(dp947
S'action'
p948
S'delete'
p949
sS'order'
p950
F1523983744.642239
sS'objid'
p951
g8
(g12
S'\x16\x00\x00\x00\x00\x00\x00\x00'
p952
tp953
Rp954
sa(dp955
S'action'
p956
S'delete'
p957
sS'order'
p958
F1523983744.649842
sS'objid'
p959
g8
(g12
S'\x15\x00\x00\x00\x00\x00\x00\x00'
p960
tp961
Rp962
sa(dp963
S'action'
p964
S'delete'
p965
sS'order'
p966
F1523983744.657533
sS'objid'
p967
g8
(g12
S'\x14\x00\x00\x00\x00\x00\x00\x00'
p968
tp969
Rp970
sa(dp971
S'action'
p972
S'delete'
p973
sS'order'
p974
F1523983744.665275
sS'objid'
p975
g8
(g12
S'\x13\x00\x00\x00\x00\x00\x00\x00'
p976
tp977
Rp978
sa(dp979
S'action'
p980
S'delete'
p981
sS'order'
p982
F1523983744.673039
sS'objid'
p983
g8
(g12
S'\x12\x00\x00\x00\x00\x00\x00\x00'
p984
tp985
Rp986
sa(dp987
S'action'
p988
S'delete'
p989
sS'order'
p990
F1523983744.680889
sS'objid'
p991
g8
(g12
S'\x11\x00\x00\x00\x00\x00\x00\x00'
p992
tp993
Rp994
sa(dp995
S'action'
p996
S'delete'
p997
sS'order'
p998
F1523983744.688822
sS'objid'
p999
g8
(g12
S'\x10\x00\x00\x00\x00\x00\x00\x00'
p1000
tp1001
Rp1002
sa(dp1003
S'action'
p1004
S'delete'
p1005
sS'order'
p1006
F1523983744.696947
sS'objid'
p1007
g8
(g12
S'\x0f\x00\x00\x00\x00\x00\x00\x00'
p1008
tp1009
Rp1010
sa(dp1011
S'action'
p1012
S'delete'
p1013
sS'order'
p1014
F1523983744.705
sS'objid'
p1015
g8
(g12
S'\x0e\x00\x00\x00\x00\x00\x00\x00'
p1016
tp1017
Rp1018
sa(dp1019
S'action'
p1020
S'delete'
p1021
sS'order'
p1022
F1523983744.713087
sS'objid'
p1023
g8
(g12
S'\r\x00\x00\x00\x00\x00\x00\x00'
p1024
tp1025
Rp1026
sa(dp1027
S'action'
p1028
S'delete'
p1029
sS'order'
p1030
F1523983744.721255
sS'objid'
p1031
g8
(g12
S'\x0c\x00\x00\x00\x00\x00\x00\x00'
p1032
tp1033
Rp1034
sa(dp1035
S'action'
p1036
S'delete'
p1037
sS'order'
p1038
F1523983744.729465
sS'objid'
p1039
g8
(g12
S'\x0b\x00\x00\x00\x00\x00\x00\x00'
p1040
tp1041
Rp1042
sa(dp1043
S'action'
p1044
S'delete'
p1045
sS'order'
p1046
F1523983744.737715
sS'objid'
p1047
g8
(g12
S'\n\x00\x00\x00\x00\x00\x00\x00'
p1048
tp1049
Rp1050
sa(dp1051
S'action'
p1052
S'delete'
p1053
sS'order'
p1054
F1523983744.746019
sS'objid'
p1055
g8
(g12
S'\t\x00\x00\x00\x00\x00\x00\x00'
p1056
tp1057
Rp1058
sa(dp1059
S'action'
p1060
S'delete'
p1061
sS'order'
p1062
F1523983744.754382
sS'objid'
p1063
g8
(g12
S'\x08\x00\x00\x00\x00\x00\x00\x00'
p1064
tp1065
Rp1066
sa(dp1067
S'action'
p1068
S'delete'
p1069
sS'order'
p1070
F1523983744.76282
sS'objid'
p1071
g8
(g12
S'\x07\x00\x00\x00\x00\x00\x00\x00'
p1072
tp1073
Rp1074
sa(dp1075
S'action'
p1076
S'delete'
p1077
sS'order'
p1078
F1523983744.771313
sS'objid'
p1079
g8
(g12
S'\x06\x00\x00\x00\x00\x00\x00\x00'
p1080
tp1081
Rp1082
sa(dp1083
S'action'
p1084
S'delete'
p1085
sS'order'
p1086
F1523983744.779846
sS'objid'
p1087
g8
(g12
S'\x05\x00\x00\x00\x00\x00\x00\x00'
p1088
tp1089
Rp1090
sa(dp1091
S'action'
p1092
S'delete'
p1093
sS'order'
p1094
F1523983751.08155
sS'objid'
p1095
g8
(g12
S'\x04\x00\x00\x00\x00\x00\x00\x00'
p1096
tp1097
Rp1098
sa(dp1099
S'action'
p1100
S'delete'
p1101
sS'order'
p1102
F1523983751.096952
sS'objid'
p1103
g8
(g12
S'\x03\x00\x00\x00\x00\x00\x00\x00'
p1104
tp1105
Rp1106
sa(dp1107
S'action'
p1108
S'delete'
p1109
sS'order'
p1110
F1523983751.106413
sS'objid'
p1111
g8
(g12
S'\x02\x00\x00\x00\x00\x00\x00\x00'
p1112
tp1113
Rp1114
sa(dp1115
S'action'
p1116
S'delete'
p1117
sS'order'
p1118
F1523983751.115435
sS'objid'
p1119
g8
(g12
S'\x01\x00\x00\x00\x00\x00\x00\x00'
p1120
tp1121
Rp1122
sa.