(lp0
(dp1
S'action'
p2
S'join'
p3
sS'data_to_add'
p4
(lp5
sS'order'
p6
F1523897501.859854
sS'new_objid'
p7
cnumpy.core.multiarray
scalar
p8
(cnumpy
dtype
p9
(S'i8'
p10
I0
I1
tp11
Rp12
(I3
S'<'
p13
NNNI-1
I-1
I0
tp14
bS'O\x00\x00\x00\x00\x00\x00\x00'
p15
tp16
Rp17
sS'objids'
p18
(lp19
g8
(g12
S'\x10\x00\x00\x00\x00\x00\x00\x00'
p20
tp21
Rp22
ag8
(g12
S'\x11\x00\x00\x00\x00\x00\x00\x00'
p23
tp24
Rp25
ag8
(g12
S'\x00\x00\x00\x00\x00\x00\x00\x00'
p26
tp27
Rp28
asa(dp29
g2
g3
sg4
(lp30
sg6
F1523897507.265413
sg7
g8
(g12
S'P\x00\x00\x00\x00\x00\x00\x00'
p31
tp32
Rp33
sg18
(lp34
g8
(g12
S'\x12\x00\x00\x00\x00\x00\x00\x00'
p35
tp36
Rp37
ag8
(g12
S'O\x00\x00\x00\x00\x00\x00\x00'
p38
tp39
Rp40
asa(dp41
S'cut_frame_global'
p42
I1034
sS'cut_time_epoch'
p43
g8
(g9
(S'f8'
p44
I0
I1
tp45
Rp46
(I3
S'<'
p47
NNNI-1
I-1
I0
tp48
bS'I\xaf\xcf\xe5Y\xb4\xd6A'
p49
tp50
Rp51
sS'cut_frame_trajectory'
p52
g8
(g12
S'\x98\x00\x00\x00\x00\x00\x00\x00'
p53
tp54
Rp55
sS'objid'
p56
g8
(g12
S'\x18\x00\x00\x00\x00\x00\x00\x00'
p57
tp58
Rp59
sg2
S'cut'
p60
sg6
F1523897544.811286
sg7
g8
(g12
S'Q\x00\x00\x00\x00\x00\x00\x00'
p61
tp62
Rp63
sa(dp64
g2
g3
sg4
(lp65
sg6
F1523897554.99408
sg7
g8
(g12
S'R\x00\x00\x00\x00\x00\x00\x00'
p66
tp67
Rp68
sg18
(lp69
g8
(g12
S'\x19\x00\x00\x00\x00\x00\x00\x00'
p70
tp71
Rp72
ag8
(g12
S'P\x00\x00\x00\x00\x00\x00\x00'
p73
tp74
Rp75
ag8
(g12
S'Q\x00\x00\x00\x00\x00\x00\x00'
p76
tp77
Rp78
asa(dp79
g2
g3
sg4
(lp80
sg6
F1523897564.082321
sg7
g8
(g12
S'S\x00\x00\x00\x00\x00\x00\x00'
p81
tp82
Rp83
sg18
(lp84
g8
(g12
S'R\x00\x00\x00\x00\x00\x00\x00'
p85
tp86
Rp87
ag8
(g12
S'\x1c\x00\x00\x00\x00\x00\x00\x00'
p88
tp89
Rp90
asa(dp91
g2
g3
sg4
(lp92
sg6
F1523897570.34605
sg7
g8
(g12
S'T\x00\x00\x00\x00\x00\x00\x00'
p93
tp94
Rp95
sg18
(lp96
g8
(g12
S'\x1f\x00\x00\x00\x00\x00\x00\x00'
p97
tp98
Rp99
ag8
(g12
S'S\x00\x00\x00\x00\x00\x00\x00'
p100
tp101
Rp102
asa(dp103
g2
g3
sg4
(lp104
sg6
F1523897574.938755
sg7
g8
(g12
S'U\x00\x00\x00\x00\x00\x00\x00'
p105
tp106
Rp107
sg18
(lp108
g8
(g12
S'T\x00\x00\x00\x00\x00\x00\x00'
p109
tp110
Rp111
ag8
(g12
S' \x00\x00\x00\x00\x00\x00\x00'
p112
tp113
Rp114
asa(dp115
S'cut_frame_global'
p116
I1390
sS'cut_time_epoch'
p117
g8
(g46
S'\xc3\x15\xb6\xeeY\xb4\xd6A'
p118
tp119
Rp120
sS'cut_frame_trajectory'
p121
g8
(g12
S'\x0f\x00\x00\x00\x00\x00\x00\x00'
p122
tp123
Rp124
sS'objid'
p125
g8
(g12
S'$\x00\x00\x00\x00\x00\x00\x00'
p126
tp127
Rp128
sS'action'
p129
S'cut'
p130
sS'order'
p131
F1523897618.454758
sS'new_objid'
p132
g8
(g12
S'X\x00\x00\x00\x00\x00\x00\x00'
p133
tp134
Rp135
sa(dp136
g116
I1390
sg117
g8
(g46
S'\xc3\x15\xb6\xeeY\xb4\xd6A'
p137
tp138
Rp139
sg121
g8
(g12
S'\x00\x00\x00\x00\x00\x00\x00\x00'
p140
tp141
Rp142
sg125
g8
(g12
S'X\x00\x00\x00\x00\x00\x00\x00'
p143
tp144
Rp145
sg129
g130
sg131
F1523897621.590297
sg132
g8
(g12
S'Y\x00\x00\x00\x00\x00\x00\x00'
p146
tp147
Rp148
sa(dp149
g116
I1395
sg117
g8
(g46
S'p\x16\xd6\xeeY\xb4\xd6A'
p150
tp151
Rp152
sg121
g8
(g12
S'\x01\x00\x00\x00\x00\x00\x00\x00'
p153
tp154
Rp155
sg125
g8
(g12
S'%\x00\x00\x00\x00\x00\x00\x00'
p156
tp157
Rp158
sg129
g130
sg131
F1523897625.164537
sg132
g8
(g12
S'Z\x00\x00\x00\x00\x00\x00\x00'
p159
tp160
Rp161
sa(dp162
g129
S'join'
p163
sS'data_to_add'
p164
(lp165
sg131
F1523897632.883546
sg132
g8
(g12
S'[\x00\x00\x00\x00\x00\x00\x00'
p166
tp167
Rp168
sS'objids'
p169
(lp170
g8
(g12
S'Z\x00\x00\x00\x00\x00\x00\x00'
p171
tp172
Rp173
ag8
(g12
S'$\x00\x00\x00\x00\x00\x00\x00'
p174
tp175
Rp176
ag8
(g12
S'U\x00\x00\x00\x00\x00\x00\x00'
p177
tp178
Rp179
asa(dp180
g129
g163
sg164
(lp181
sg131
F1523897656.947913
sg132
g8
(g12
S'\\\x00\x00\x00\x00\x00\x00\x00'
p182
tp183
Rp184
sg169
(lp185
g8
(g12
S'[\x00\x00\x00\x00\x00\x00\x00'
p186
tp187
Rp188
ag8
(g12
S'*\x00\x00\x00\x00\x00\x00\x00'
p189
tp190
Rp191
asa(dp192
g129
g163
sg164
(lp193
sg131
F1523897661.947855
sg132
g8
(g12
S']\x00\x00\x00\x00\x00\x00\x00'
p194
tp195
Rp196
sg169
(lp197
g8
(g12
S'\\\x00\x00\x00\x00\x00\x00\x00'
p198
tp199
Rp200
ag8
(g12
S'/\x00\x00\x00\x00\x00\x00\x00'
p201
tp202
Rp203
asa(dp204
g129
g163
sg164
(lp205
sg131
F1523897667.768027
sg132
g8
(g12
S'^\x00\x00\x00\x00\x00\x00\x00'
p206
tp207
Rp208
sg169
(lp209
g8
(g12
S']\x00\x00\x00\x00\x00\x00\x00'
p210
tp211
Rp212
ag8
(g12
S'1\x00\x00\x00\x00\x00\x00\x00'
p213
tp214
Rp215
ag8
(g12
S'4\x00\x00\x00\x00\x00\x00\x00'
p216
tp217
Rp218
asa(dp219
g129
g163
sg164
(lp220
sg131
F1523897674.500215
sg132
g8
(g12
S'_\x00\x00\x00\x00\x00\x00\x00'
p221
tp222
Rp223
sg169
(lp224
g8
(g12
S'^\x00\x00\x00\x00\x00\x00\x00'
p225
tp226
Rp227
ag8
(g12
S':\x00\x00\x00\x00\x00\x00\x00'
p228
tp229
Rp230
asa(dp231
S'cut_frame_global'
p232
I1723
sS'cut_time_epoch'
p233
g8
(g46
S'\x06I\t\xf7Y\xb4\xd6A'
p234
tp235
Rp236
sS'cut_frame_trajectory'
p237
g8
(g12
S'\x01\x00\x00\x00\x00\x00\x00\x00'
p238
tp239
Rp240
sS'objid'
p241
g8
(g12
S'@\x00\x00\x00\x00\x00\x00\x00'
p242
tp243
Rp244
sS'action'
p245
S'cut'
p246
sS'order'
p247
F1523897688.055385
sS'new_objid'
p248
g8
(g12
S'a\x00\x00\x00\x00\x00\x00\x00'
p249
tp250
Rp251
sa(dp252
S'action'
p253
S'join'
p254
sS'data_to_add'
p255
(lp256
sS'order'
p257
F1523897694.556275
sS'new_objid'
p258
g8
(g12
S'b\x00\x00\x00\x00\x00\x00\x00'
p259
tp260
Rp261
sS'objids'
p262
(lp263
g8
(g12
S'a\x00\x00\x00\x00\x00\x00\x00'
p264
tp265
Rp266
ag8
(g12
S'_\x00\x00\x00\x00\x00\x00\x00'
p267
tp268
Rp269
asa(dp270
S'action'
p271
S'join'
p272
sS'data_to_add'
p273
(lp274
sS'order'
p275
F1523897699.844688
sS'new_objid'
p276
g8
(g12
S'c\x00\x00\x00\x00\x00\x00\x00'
p277
tp278
Rp279
sS'objids'
p280
(lp281
g8
(g12
S'b\x00\x00\x00\x00\x00\x00\x00'
p282
tp283
Rp284
ag8
(g12
S'D\x00\x00\x00\x00\x00\x00\x00'
p285
tp286
Rp287
asa(dp288
S'action'
p289
S'delete'
p290
sS'order'
p291
F1523897708.773039
sS'objid'
p292
g8
(g12
S'Y\x00\x00\x00\x00\x00\x00\x00'
p293
tp294
Rp295
sa(dp296
S'action'
p297
S'delete'
p298
sS'order'
p299
F1523897708.779623
sS'objid'
p300
g8
(g12
S'C\x00\x00\x00\x00\x00\x00\x00'
p301
tp302
Rp303
sa(dp304
S'action'
p305
S'delete'
p306
sS'order'
p307
F1523897708.7855
sS'objid'
p308
g8
(g12
S'B\x00\x00\x00\x00\x00\x00\x00'
p309
tp310
Rp311
sa(dp312
S'action'
p313
S'delete'
p314
sS'order'
p315
F1523897708.789577
sS'objid'
p316
g8
(g12
S'A\x00\x00\x00\x00\x00\x00\x00'
p317
tp318
Rp319
sa(dp320
S'action'
p321
S'delete'
p322
sS'order'
p323
F1523897708.792985
sS'objid'
p324
g8
(g12
S'@\x00\x00\x00\x00\x00\x00\x00'
p325
tp326
Rp327
sa(dp328
S'action'
p329
S'delete'
p330
sS'order'
p331
F1523897708.796607
sS'objid'
p332
g8
(g12
S'?\x00\x00\x00\x00\x00\x00\x00'
p333
tp334
Rp335
sa(dp336
S'action'
p337
S'delete'
p338
sS'order'
p339
F1523897708.800417
sS'objid'
p340
g8
(g12
S'>\x00\x00\x00\x00\x00\x00\x00'
p341
tp342
Rp343
sa(dp344
S'action'
p345
S'delete'
p346
sS'order'
p347
F1523897708.804139
sS'objid'
p348
g8
(g12
S'=\x00\x00\x00\x00\x00\x00\x00'
p349
tp350
Rp351
sa(dp352
S'action'
p353
S'delete'
p354
sS'order'
p355
F1523897708.807764
sS'objid'
p356
g8
(g12
S'<\x00\x00\x00\x00\x00\x00\x00'
p357
tp358
Rp359
sa(dp360
S'action'
p361
S'delete'
p362
sS'order'
p363
F1523897708.811496
sS'objid'
p364
g8
(g12
S';\x00\x00\x00\x00\x00\x00\x00'
p365
tp366
Rp367
sa(dp368
S'action'
p369
S'delete'
p370
sS'order'
p371
F1523897708.815764
sS'objid'
p372
g8
(g12
S'9\x00\x00\x00\x00\x00\x00\x00'
p373
tp374
Rp375
sa(dp376
S'action'
p377
S'delete'
p378
sS'order'
p379
F1523897708.819516
sS'objid'
p380
g8
(g12
S'8\x00\x00\x00\x00\x00\x00\x00'
p381
tp382
Rp383
sa(dp384
S'action'
p385
S'delete'
p386
sS'order'
p387
F1523897708.823319
sS'objid'
p388
g8
(g12
S'7\x00\x00\x00\x00\x00\x00\x00'
p389
tp390
Rp391
sa(dp392
S'action'
p393
S'delete'
p394
sS'order'
p395
F1523897708.827361
sS'objid'
p396
g8
(g12
S'6\x00\x00\x00\x00\x00\x00\x00'
p397
tp398
Rp399
sa(dp400
S'action'
p401
S'delete'
p402
sS'order'
p403
F1523897708.831293
sS'objid'
p404
g8
(g12
S'5\x00\x00\x00\x00\x00\x00\x00'
p405
tp406
Rp407
sa(dp408
S'action'
p409
S'delete'
p410
sS'order'
p411
F1523897708.835277
sS'objid'
p412
g8
(g12
S'3\x00\x00\x00\x00\x00\x00\x00'
p413
tp414
Rp415
sa(dp416
S'action'
p417
S'delete'
p418
sS'order'
p419
F1523897708.839316
sS'objid'
p420
g8
(g12
S'2\x00\x00\x00\x00\x00\x00\x00'
p421
tp422
Rp423
sa(dp424
S'action'
p425
S'delete'
p426
sS'order'
p427
F1523897708.84343
sS'objid'
p428
g8
(g12
S'0\x00\x00\x00\x00\x00\x00\x00'
p429
tp430
Rp431
sa(dp432
S'action'
p433
S'delete'
p434
sS'order'
p435
F1523897708.847634
sS'objid'
p436
g8
(g12
S'.\x00\x00\x00\x00\x00\x00\x00'
p437
tp438
Rp439
sa(dp440
S'action'
p441
S'delete'
p442
sS'order'
p443
F1523897708.851868
sS'objid'
p444
g8
(g12
S'-\x00\x00\x00\x00\x00\x00\x00'
p445
tp446
Rp447
sa(dp448
S'action'
p449
S'delete'
p450
sS'order'
p451
F1523897708.856156
sS'objid'
p452
g8
(g12
S',\x00\x00\x00\x00\x00\x00\x00'
p453
tp454
Rp455
sa(dp456
S'action'
p457
S'delete'
p458
sS'order'
p459
F1523897708.86049
sS'objid'
p460
g8
(g12
S'+\x00\x00\x00\x00\x00\x00\x00'
p461
tp462
Rp463
sa(dp464
S'action'
p465
S'delete'
p466
sS'order'
p467
F1523897708.864876
sS'objid'
p468
g8
(g12
S')\x00\x00\x00\x00\x00\x00\x00'
p469
tp470
Rp471
sa(dp472
S'action'
p473
S'delete'
p474
sS'order'
p475
F1523897708.869317
sS'objid'
p476
g8
(g12
S'(\x00\x00\x00\x00\x00\x00\x00'
p477
tp478
Rp479
sa(dp480
S'action'
p481
S'delete'
p482
sS'order'
p483
F1523897708.873804
sS'objid'
p484
g8
(g12
S"'\x00\x00\x00\x00\x00\x00\x00"
p485
tp486
Rp487
sa(dp488
S'action'
p489
S'delete'
p490
sS'order'
p491
F1523897708.878357
sS'objid'
p492
g8
(g12
S'&\x00\x00\x00\x00\x00\x00\x00'
p493
tp494
Rp495
sa(dp496
S'action'
p497
S'delete'
p498
sS'order'
p499
F1523897708.882957
sS'objid'
p500
g8
(g12
S'%\x00\x00\x00\x00\x00\x00\x00'
p501
tp502
Rp503
sa(dp504
S'action'
p505
S'delete'
p506
sS'order'
p507
F1523897708.887743
sS'objid'
p508
g8
(g12
S'#\x00\x00\x00\x00\x00\x00\x00'
p509
tp510
Rp511
sa(dp512
S'action'
p513
S'delete'
p514
sS'order'
p515
F1523897708.89249
sS'objid'
p516
g8
(g12
S'"\x00\x00\x00\x00\x00\x00\x00'
p517
tp518
Rp519
sa(dp520
S'action'
p521
S'delete'
p522
sS'order'
p523
F1523897708.897326
sS'objid'
p524
g8
(g12
S'!\x00\x00\x00\x00\x00\x00\x00'
p525
tp526
Rp527
sa(dp528
S'action'
p529
S'delete'
p530
sS'order'
p531
F1523897708.902229
sS'objid'
p532
g8
(g12
S'\x1e\x00\x00\x00\x00\x00\x00\x00'
p533
tp534
Rp535
sa(dp536
S'action'
p537
S'delete'
p538
sS'order'
p539
F1523897708.907721
sS'objid'
p540
g8
(g12
S'\x1d\x00\x00\x00\x00\x00\x00\x00'
p541
tp542
Rp543
sa(dp544
S'action'
p545
S'delete'
p546
sS'order'
p547
F1523897708.912699
sS'objid'
p548
g8
(g12
S'\x1b\x00\x00\x00\x00\x00\x00\x00'
p549
tp550
Rp551
sa(dp552
S'action'
p553
S'delete'
p554
sS'order'
p555
F1523897708.917745
sS'objid'
p556
g8
(g12
S'\x1a\x00\x00\x00\x00\x00\x00\x00'
p557
tp558
Rp559
sa(dp560
S'action'
p561
S'delete'
p562
sS'order'
p563
F1523897708.922864
sS'objid'
p564
g8
(g12
S'\x18\x00\x00\x00\x00\x00\x00\x00'
p565
tp566
Rp567
sa(dp568
S'action'
p569
S'delete'
p570
sS'order'
p571
F1523897708.928036
sS'objid'
p572
g8
(g12
S'\x17\x00\x00\x00\x00\x00\x00\x00'
p573
tp574
Rp575
sa(dp576
S'action'
p577
S'delete'
p578
sS'order'
p579
F1523897708.933236
sS'objid'
p580
g8
(g12
S'\x16\x00\x00\x00\x00\x00\x00\x00'
p581
tp582
Rp583
sa(dp584
S'action'
p585
S'delete'
p586
sS'order'
p587
F1523897708.938486
sS'objid'
p588
g8
(g12
S'\x15\x00\x00\x00\x00\x00\x00\x00'
p589
tp590
Rp591
sa(dp592
S'action'
p593
S'delete'
p594
sS'order'
p595
F1523897708.943787
sS'objid'
p596
g8
(g12
S'\x14\x00\x00\x00\x00\x00\x00\x00'
p597
tp598
Rp599
sa(dp600
S'action'
p601
S'delete'
p602
sS'order'
p603
F1523897708.949156
sS'objid'
p604
g8
(g12
S'\x13\x00\x00\x00\x00\x00\x00\x00'
p605
tp606
Rp607
sa(dp608
S'action'
p609
S'delete'
p610
sS'order'
p611
F1523897708.954558
sS'objid'
p612
g8
(g12
S'\x0f\x00\x00\x00\x00\x00\x00\x00'
p613
tp614
Rp615
sa(dp616
S'action'
p617
S'delete'
p618
sS'order'
p619
F1523897708.960058
sS'objid'
p620
g8
(g12
S'\x0e\x00\x00\x00\x00\x00\x00\x00'
p621
tp622
Rp623
sa(dp624
S'action'
p625
S'delete'
p626
sS'order'
p627
F1523897708.965594
sS'objid'
p628
g8
(g12
S'\r\x00\x00\x00\x00\x00\x00\x00'
p629
tp630
Rp631
sa(dp632
S'action'
p633
S'delete'
p634
sS'order'
p635
F1523897708.971194
sS'objid'
p636
g8
(g12
S'\x0c\x00\x00\x00\x00\x00\x00\x00'
p637
tp638
Rp639
sa(dp640
S'action'
p641
S'delete'
p642
sS'order'
p643
F1523897708.976842
sS'objid'
p644
g8
(g12
S'\x0b\x00\x00\x00\x00\x00\x00\x00'
p645
tp646
Rp647
sa(dp648
S'action'
p649
S'delete'
p650
sS'order'
p651
F1523897708.982541
sS'objid'
p652
g8
(g12
S'\n\x00\x00\x00\x00\x00\x00\x00'
p653
tp654
Rp655
sa(dp656
S'action'
p657
S'delete'
p658
sS'order'
p659
F1523897708.988368
sS'objid'
p660
g8
(g12
S'\t\x00\x00\x00\x00\x00\x00\x00'
p661
tp662
Rp663
sa(dp664
S'action'
p665
S'delete'
p666
sS'order'
p667
F1523897708.994222
sS'objid'
p668
g8
(g12
S'\x08\x00\x00\x00\x00\x00\x00\x00'
p669
tp670
Rp671
sa(dp672
S'action'
p673
S'delete'
p674
sS'order'
p675
F1523897709.000217
sS'objid'
p676
g8
(g12
S'\x07\x00\x00\x00\x00\x00\x00\x00'
p677
tp678
Rp679
sa(dp680
S'action'
p681
S'delete'
p682
sS'order'
p683
F1523897709.006733
sS'objid'
p684
g8
(g12
S'\x06\x00\x00\x00\x00\x00\x00\x00'
p685
tp686
Rp687
sa(dp688
S'action'
p689
S'delete'
p690
sS'order'
p691
F1523897709.012772
sS'objid'
p692
g8
(g12
S'\x05\x00\x00\x00\x00\x00\x00\x00'
p693
tp694
Rp695
sa(dp696
S'action'
p697
S'delete'
p698
sS'order'
p699
F1523897709.018842
sS'objid'
p700
g8
(g12
S'\x04\x00\x00\x00\x00\x00\x00\x00'
p701
tp702
Rp703
sa(dp704
S'action'
p705
S'delete'
p706
sS'order'
p707
F1523897709.024986
sS'objid'
p708
g8
(g12
S'\x03\x00\x00\x00\x00\x00\x00\x00'
p709
tp710
Rp711
sa(dp712
S'action'
p713
S'delete'
p714
sS'order'
p715
F1523897709.031197
sS'objid'
p716
g8
(g12
S'\x02\x00\x00\x00\x00\x00\x00\x00'
p717
tp718
Rp719
sa(dp720
S'action'
p721
S'delete'
p722
sS'order'
p723
F1523897709.037453
sS'objid'
p724
g8
(g12
S'\x01\x00\x00\x00\x00\x00\x00\x00'
p725
tp726
Rp727
sa.