(lp0
(dp1
S'cut_frame_global'
p2
I269
sS'cut_time_epoch'
p3
cnumpy.core.multiarray
scalar
p4
(cnumpy
dtype
p5
(S'f8'
p6
I0
I1
tp7
Rp8
(I3
S'<'
p9
NNNI-1
I-1
I0
tp10
bS'\xc5V\x0b%\x98\xb4\xd6A'
p11
tp12
Rp13
sS'cut_frame_trajectory'
p14
g4
(g5
(S'i8'
p15
I0
I1
tp16
Rp17
(I3
S'<'
p18
NNNI-1
I-1
I0
tp19
bS'\x04\x00\x00\x00\x00\x00\x00\x00'
p20
tp21
Rp22
sS'objid'
p23
g4
(g17
S'\x03\x00\x00\x00\x00\x00\x00\x00'
p24
tp25
Rp26
sS'action'
p27
S'cut'
p28
sS'order'
p29
F1523922772.677056
sS'new_objid'
p30
g4
(g17
S'\x13\x00\x00\x00\x00\x00\x00\x00'
p31
tp32
Rp33
sa(dp34
S'action'
p35
S'join'
p36
sS'data_to_add'
p37
(lp38
sS'order'
p39
F1523922781.40791
sS'new_objid'
p40
g4
(g17
S'\x14\x00\x00\x00\x00\x00\x00\x00'
p41
tp42
Rp43
sS'objids'
p44
(lp45
g4
(g17
S'\x13\x00\x00\x00\x00\x00\x00\x00'
p46
tp47
Rp48
ag4
(g17
S'\x00\x00\x00\x00\x00\x00\x00\x00'
p49
tp50
Rp51
asa(dp52
S'action'
p53
S'delete'
p54
sS'order'
p55
F1523922792.024553
sS'objid'
p56
g4
(g17
S'\x08\x00\x00\x00\x00\x00\x00\x00'
p57
tp58
Rp59
sa(dp60
S'action'
p61
S'delete'
p62
sS'order'
p63
F1523922792.026467
sS'objid'
p64
g4
(g17
S'\x07\x00\x00\x00\x00\x00\x00\x00'
p65
tp66
Rp67
sa(dp68
S'action'
p69
S'delete'
p70
sS'order'
p71
F1523922792.028491
sS'objid'
p72
g4
(g17
S'\x06\x00\x00\x00\x00\x00\x00\x00'
p73
tp74
Rp75
sa(dp76
S'action'
p77
S'delete'
p78
sS'order'
p79
F1523922792.030714
sS'objid'
p80
g4
(g17
S'\x05\x00\x00\x00\x00\x00\x00\x00'
p81
tp82
Rp83
sa(dp84
S'action'
p85
S'delete'
p86
sS'order'
p87
F1523922792.032777
sS'objid'
p88
g4
(g17
S'\x04\x00\x00\x00\x00\x00\x00\x00'
p89
tp90
Rp91
sa(dp92
S'action'
p93
S'delete'
p94
sS'order'
p95
F1523922792.034652
sS'objid'
p96
g4
(g17
S'\x03\x00\x00\x00\x00\x00\x00\x00'
p97
tp98
Rp99
sa(dp100
S'action'
p101
S'delete'
p102
sS'order'
p103
F1523922792.036781
sS'objid'
p104
g4
(g17
S'\x02\x00\x00\x00\x00\x00\x00\x00'
p105
tp106
Rp107
sa(dp108
S'action'
p109
S'delete'
p110
sS'order'
p111
F1523922792.038821
sS'objid'
p112
g4
(g17
S'\x01\x00\x00\x00\x00\x00\x00\x00'
p113
tp114
Rp115
sa.