(lp0
(dp1
S'action'
p2
S'join'
p3
sS'data_to_add'
p4
(lp5
sS'order'
p6
F1523983832.030744
sS'new_objid'
p7
cnumpy.core.multiarray
scalar
p8
(cnumpy
dtype
p9
(S'i8'
p10
I0
I1
tp11
Rp12
(I3
S'<'
p13
NNNI-1
I-1
I0
tp14
bS'\xd0\x00\x00\x00\x00\x00\x00\x00'
p15
tp16
Rp17
sS'objids'
p18
(lp19
g8
(g12
S'\x00\x00\x00\x00\x00\x00\x00\x00'
p20
tp21
Rp22
ag8
(g12
S'\x01\x00\x00\x00\x00\x00\x00\x00'
p23
tp24
Rp25
asa(dp26
S'action'
p27
S'join'
p28
sS'data_to_add'
p29
(lp30
sS'order'
p31
F1523983842.099121
sS'new_objid'
p32
g8
(g12
S'\xd2\x00\x00\x00\x00\x00\x00\x00'
p33
tp34
Rp35
sS'objids'
p36
(lp37
g8
(g12
S'\x03\x00\x00\x00\x00\x00\x00\x00'
p38
tp39
Rp40
ag8
(g12
S'\xd0\x00\x00\x00\x00\x00\x00\x00'
p41
tp42
Rp43
asa(dp44
S'cut_frame_global'
p45
I1043
sS'cut_time_epoch'
p46
g8
(g9
(S'f8'
p47
I0
I1
tp48
Rp49
(I3
S'<'
p50
NNNI-1
I-1
I0
tp51
bS'\xd7k8\x9c\xad\xb4\xd6A'
p52
tp53
Rp54
sS'cut_frame_trajectory'
p55
g8
(g12
S'\n\x04\x00\x00\x00\x00\x00\x00'
p56
tp57
Rp58
sS'objid'
p59
g8
(g12
S'\xd2\x00\x00\x00\x00\x00\x00\x00'
p60
tp61
Rp62
sS'action'
p63
S'cut'
p64
sS'order'
p65
F1523983858.124877
sS'new_objid'
p66
g8
(g12
S'\xd3\x00\x00\x00\x00\x00\x00\x00'
p67
tp68
Rp69
sa(dp70
S'cut_frame_global'
p71
I1088
sS'cut_time_epoch'
p72
g8
(g49
S'\xf9jX\x9d\xad\xb4\xd6A'
p73
tp74
Rp75
sS'cut_frame_trajectory'
p76
g8
(g12
S'\x0f\x00\x00\x00\x00\x00\x00\x00'
p77
tp78
Rp79
sS'objid'
p80
g8
(g12
S'C\x00\x00\x00\x00\x00\x00\x00'
p81
tp82
Rp83
sS'action'
p84
S'cut'
p85
sS'order'
p86
F1523983865.543213
sS'new_objid'
p87
g8
(g12
S'\xd4\x00\x00\x00\x00\x00\x00\x00'
p88
tp89
Rp90
sa(dp91
S'action'
p92
S'join'
p93
sS'data_to_add'
p94
(lp95
sS'order'
p96
F1523983874.075211
sS'new_objid'
p97
g8
(g12
S'\xd5\x00\x00\x00\x00\x00\x00\x00'
p98
tp99
Rp100
sS'objids'
p101
(lp102
g8
(g12
S'\xd4\x00\x00\x00\x00\x00\x00\x00'
p103
tp104
Rp105
ag8
(g12
S'\xd2\x00\x00\x00\x00\x00\x00\x00'
p106
tp107
Rp108
ag8
(g12
S'@\x00\x00\x00\x00\x00\x00\x00'
p109
tp110
Rp111
asa(dp112
S'action'
p113
S'join'
p114
sS'data_to_add'
p115
(lp116
sS'order'
p117
F1523983901.268193
sS'new_objid'
p118
g8
(g12
S'\xd6\x00\x00\x00\x00\x00\x00\x00'
p119
tp120
Rp121
sS'objids'
p122
(lp123
g8
(g12
S'H\x00\x00\x00\x00\x00\x00\x00'
p124
tp125
Rp126
ag8
(g12
S'E\x00\x00\x00\x00\x00\x00\x00'
p127
tp128
Rp129
ag8
(g12
S'\xd5\x00\x00\x00\x00\x00\x00\x00'
p130
tp131
Rp132
ag8
(g12
S'F\x00\x00\x00\x00\x00\x00\x00'
p133
tp134
Rp135
asa(dp136
S'action'
p137
S'join'
p138
sS'data_to_add'
p139
(lp140
sS'order'
p141
F1523983911.972485
sS'new_objid'
p142
g8
(g12
S'\xd7\x00\x00\x00\x00\x00\x00\x00'
p143
tp144
Rp145
sS'objids'
p146
(lp147
g8
(g12
S'a\x00\x00\x00\x00\x00\x00\x00'
p148
tp149
Rp150
ag8
(g12
S'\xd6\x00\x00\x00\x00\x00\x00\x00'
p151
tp152
Rp153
asa(dp154
S'cut_frame_global'
p155
I1465
sS'cut_time_epoch'
p156
g8
(g49
S'$8\xc5\xa6\xad\xb4\xd6A'
p157
tp158
Rp159
sS'cut_frame_trajectory'
p160
g8
(g12
S'\x0b\x00\x00\x00\x00\x00\x00\x00'
p161
tp162
Rp163
sS'objid'
p164
g8
(g12
S'w\x00\x00\x00\x00\x00\x00\x00'
p165
tp166
Rp167
sS'action'
p168
S'cut'
p169
sS'order'
p170
F1523983922.486941
sS'new_objid'
p171
g8
(g12
S'\xd8\x00\x00\x00\x00\x00\x00\x00'
p172
tp173
Rp174
sa(dp175
S'action'
p176
S'join'
p177
sS'data_to_add'
p178
(lp179
sS'order'
p180
F1523983928.449146
sS'new_objid'
p181
g8
(g12
S'\xd9\x00\x00\x00\x00\x00\x00\x00'
p182
tp183
Rp184
sS'objids'
p185
(lp186
g8
(g12
S'\xd8\x00\x00\x00\x00\x00\x00\x00'
p187
tp188
Rp189
ag8
(g12
S'\xd7\x00\x00\x00\x00\x00\x00\x00'
p190
tp191
Rp192
ag8
(g12
S'v\x00\x00\x00\x00\x00\x00\x00'
p193
tp194
Rp195
asa(dp196
S'action'
p197
S'delete'
p198
sS'order'
p199
F1523983958.269258
sS'objid'
p200
g8
(g12
S'\xc5\x00\x00\x00\x00\x00\x00\x00'
p201
tp202
Rp203
sa(dp204
S'action'
p205
S'delete'
p206
sS'order'
p207
F1523983958.273368
sS'objid'
p208
g8
(g12
S'\xc4\x00\x00\x00\x00\x00\x00\x00'
p209
tp210
Rp211
sa(dp212
S'action'
p213
S'delete'
p214
sS'order'
p215
F1523983958.277336
sS'objid'
p216
g8
(g12
S'\xc3\x00\x00\x00\x00\x00\x00\x00'
p217
tp218
Rp219
sa(dp220
S'action'
p221
S'delete'
p222
sS'order'
p223
F1523983958.280532
sS'objid'
p224
g8
(g12
S'\xc2\x00\x00\x00\x00\x00\x00\x00'
p225
tp226
Rp227
sa(dp228
S'action'
p229
S'delete'
p230
sS'order'
p231
F1523983958.282955
sS'objid'
p232
g8
(g12
S'\xc1\x00\x00\x00\x00\x00\x00\x00'
p233
tp234
Rp235
sa(dp236
S'action'
p237
S'delete'
p238
sS'order'
p239
F1523983958.285388
sS'objid'
p240
g8
(g12
S'\xc0\x00\x00\x00\x00\x00\x00\x00'
p241
tp242
Rp243
sa(dp244
S'action'
p245
S'delete'
p246
sS'order'
p247
F1523983958.287898
sS'objid'
p248
g8
(g12
S'\xbf\x00\x00\x00\x00\x00\x00\x00'
p249
tp250
Rp251
sa(dp252
S'action'
p253
S'delete'
p254
sS'order'
p255
F1523983958.290442
sS'objid'
p256
g8
(g12
S'\xbe\x00\x00\x00\x00\x00\x00\x00'
p257
tp258
Rp259
sa(dp260
S'action'
p261
S'delete'
p262
sS'order'
p263
F1523983958.293052
sS'objid'
p264
g8
(g12
S'\xbd\x00\x00\x00\x00\x00\x00\x00'
p265
tp266
Rp267
sa(dp268
S'action'
p269
S'delete'
p270
sS'order'
p271
F1523983958.295771
sS'objid'
p272
g8
(g12
S'\xbc\x00\x00\x00\x00\x00\x00\x00'
p273
tp274
Rp275
sa(dp276
S'action'
p277
S'delete'
p278
sS'order'
p279
F1523983958.298543
sS'objid'
p280
g8
(g12
S'\xbb\x00\x00\x00\x00\x00\x00\x00'
p281
tp282
Rp283
sa(dp284
S'action'
p285
S'delete'
p286
sS'order'
p287
F1523983958.301347
sS'objid'
p288
g8
(g12
S'\xba\x00\x00\x00\x00\x00\x00\x00'
p289
tp290
Rp291
sa(dp292
S'action'
p293
S'delete'
p294
sS'order'
p295
F1523983958.304191
sS'objid'
p296
g8
(g12
S'\xb9\x00\x00\x00\x00\x00\x00\x00'
p297
tp298
Rp299
sa(dp300
S'action'
p301
S'delete'
p302
sS'order'
p303
F1523983958.307094
sS'objid'
p304
g8
(g12
S'\xb8\x00\x00\x00\x00\x00\x00\x00'
p305
tp306
Rp307
sa(dp308
S'action'
p309
S'delete'
p310
sS'order'
p311
F1523983958.31005
sS'objid'
p312
g8
(g12
S'\xb7\x00\x00\x00\x00\x00\x00\x00'
p313
tp314
Rp315
sa(dp316
S'action'
p317
S'delete'
p318
sS'order'
p319
F1523983958.313077
sS'objid'
p320
g8
(g12
S'\xb6\x00\x00\x00\x00\x00\x00\x00'
p321
tp322
Rp323
sa(dp324
S'action'
p325
S'delete'
p326
sS'order'
p327
F1523983958.316148
sS'objid'
p328
g8
(g12
S'\xb5\x00\x00\x00\x00\x00\x00\x00'
p329
tp330
Rp331
sa(dp332
S'action'
p333
S'delete'
p334
sS'order'
p335
F1523983958.319279
sS'objid'
p336
g8
(g12
S'\xb4\x00\x00\x00\x00\x00\x00\x00'
p337
tp338
Rp339
sa(dp340
S'action'
p341
S'delete'
p342
sS'order'
p343
F1523983958.322463
sS'objid'
p344
g8
(g12
S'\xb3\x00\x00\x00\x00\x00\x00\x00'
p345
tp346
Rp347
sa(dp348
S'action'
p349
S'delete'
p350
sS'order'
p351
F1523983958.325719
sS'objid'
p352
g8
(g12
S'\xb2\x00\x00\x00\x00\x00\x00\x00'
p353
tp354
Rp355
sa(dp356
S'action'
p357
S'delete'
p358
sS'order'
p359
F1523983958.329056
sS'objid'
p360
g8
(g12
S'\xb1\x00\x00\x00\x00\x00\x00\x00'
p361
tp362
Rp363
sa(dp364
S'action'
p365
S'delete'
p366
sS'order'
p367
F1523983958.332432
sS'objid'
p368
g8
(g12
S'\xb0\x00\x00\x00\x00\x00\x00\x00'
p369
tp370
Rp371
sa(dp372
S'action'
p373
S'delete'
p374
sS'order'
p375
F1523983958.33587
sS'objid'
p376
g8
(g12
S'\xaf\x00\x00\x00\x00\x00\x00\x00'
p377
tp378
Rp379
sa(dp380
S'action'
p381
S'delete'
p382
sS'order'
p383
F1523983958.339373
sS'objid'
p384
g8
(g12
S'\xae\x00\x00\x00\x00\x00\x00\x00'
p385
tp386
Rp387
sa(dp388
S'action'
p389
S'delete'
p390
sS'order'
p391
F1523983958.342925
sS'objid'
p392
g8
(g12
S'\xad\x00\x00\x00\x00\x00\x00\x00'
p393
tp394
Rp395
sa(dp396
S'action'
p397
S'delete'
p398
sS'order'
p399
F1523983958.347076
sS'objid'
p400
g8
(g12
S'\xac\x00\x00\x00\x00\x00\x00\x00'
p401
tp402
Rp403
sa(dp404
S'action'
p405
S'delete'
p406
sS'order'
p407
F1523983958.351264
sS'objid'
p408
g8
(g12
S'\xab\x00\x00\x00\x00\x00\x00\x00'
p409
tp410
Rp411
sa(dp412
S'action'
p413
S'delete'
p414
sS'order'
p415
F1523983958.355463
sS'objid'
p416
g8
(g12
S'\xaa\x00\x00\x00\x00\x00\x00\x00'
p417
tp418
Rp419
sa(dp420
S'action'
p421
S'delete'
p422
sS'order'
p423
F1523983958.359515
sS'objid'
p424
g8
(g12
S'\xa9\x00\x00\x00\x00\x00\x00\x00'
p425
tp426
Rp427
sa(dp428
S'action'
p429
S'delete'
p430
sS'order'
p431
F1523983958.363433
sS'objid'
p432
g8
(g12
S'\xa8\x00\x00\x00\x00\x00\x00\x00'
p433
tp434
Rp435
sa(dp436
S'action'
p437
S'delete'
p438
sS'order'
p439
F1523983958.367337
sS'objid'
p440
g8
(g12
S'\xa7\x00\x00\x00\x00\x00\x00\x00'
p441
tp442
Rp443
sa(dp444
S'action'
p445
S'delete'
p446
sS'order'
p447
F1523983958.371321
sS'objid'
p448
g8
(g12
S'\xa6\x00\x00\x00\x00\x00\x00\x00'
p449
tp450
Rp451
sa(dp452
S'action'
p453
S'delete'
p454
sS'order'
p455
F1523983958.375359
sS'objid'
p456
g8
(g12
S'\xa5\x00\x00\x00\x00\x00\x00\x00'
p457
tp458
Rp459
sa(dp460
S'action'
p461
S'delete'
p462
sS'order'
p463
F1523983958.379442
sS'objid'
p464
g8
(g12
S'\xa4\x00\x00\x00\x00\x00\x00\x00'
p465
tp466
Rp467
sa(dp468
S'action'
p469
S'delete'
p470
sS'order'
p471
F1523983958.383599
sS'objid'
p472
g8
(g12
S'\xa3\x00\x00\x00\x00\x00\x00\x00'
p473
tp474
Rp475
sa(dp476
S'action'
p477
S'delete'
p478
sS'order'
p479
F1523983958.387799
sS'objid'
p480
g8
(g12
S'\xa2\x00\x00\x00\x00\x00\x00\x00'
p481
tp482
Rp483
sa(dp484
S'action'
p485
S'delete'
p486
sS'order'
p487
F1523983958.392059
sS'objid'
p488
g8
(g12
S'\xa1\x00\x00\x00\x00\x00\x00\x00'
p489
tp490
Rp491
sa(dp492
S'action'
p493
S'delete'
p494
sS'order'
p495
F1523983958.396382
sS'objid'
p496
g8
(g12
S'\xa0\x00\x00\x00\x00\x00\x00\x00'
p497
tp498
Rp499
sa(dp500
S'action'
p501
S'delete'
p502
sS'order'
p503
F1523983958.400771
sS'objid'
p504
g8
(g12
S'\x9f\x00\x00\x00\x00\x00\x00\x00'
p505
tp506
Rp507
sa(dp508
S'action'
p509
S'delete'
p510
sS'order'
p511
F1523983958.40521
sS'objid'
p512
g8
(g12
S'\x9e\x00\x00\x00\x00\x00\x00\x00'
p513
tp514
Rp515
sa(dp516
S'action'
p517
S'delete'
p518
sS'order'
p519
F1523983958.409704
sS'objid'
p520
g8
(g12
S'\x9d\x00\x00\x00\x00\x00\x00\x00'
p521
tp522
Rp523
sa(dp524
S'action'
p525
S'delete'
p526
sS'order'
p527
F1523983958.414269
sS'objid'
p528
g8
(g12
S'\x9c\x00\x00\x00\x00\x00\x00\x00'
p529
tp530
Rp531
sa(dp532
S'action'
p533
S'delete'
p534
sS'order'
p535
F1523983958.418881
sS'objid'
p536
g8
(g12
S'\x9b\x00\x00\x00\x00\x00\x00\x00'
p537
tp538
Rp539
sa(dp540
S'action'
p541
S'delete'
p542
sS'order'
p543
F1523983958.42355
sS'objid'
p544
g8
(g12
S'\x9a\x00\x00\x00\x00\x00\x00\x00'
p545
tp546
Rp547
sa(dp548
S'action'
p549
S'delete'
p550
sS'order'
p551
F1523983958.428415
sS'objid'
p552
g8
(g12
S'\x99\x00\x00\x00\x00\x00\x00\x00'
p553
tp554
Rp555
sa(dp556
S'action'
p557
S'delete'
p558
sS'order'
p559
F1523983958.43321
sS'objid'
p560
g8
(g12
S'\x98\x00\x00\x00\x00\x00\x00\x00'
p561
tp562
Rp563
sa(dp564
S'action'
p565
S'delete'
p566
sS'order'
p567
F1523983958.438047
sS'objid'
p568
g8
(g12
S'\x97\x00\x00\x00\x00\x00\x00\x00'
p569
tp570
Rp571
sa(dp572
S'action'
p573
S'delete'
p574
sS'order'
p575
F1523983958.442952
sS'objid'
p576
g8
(g12
S'\x96\x00\x00\x00\x00\x00\x00\x00'
p577
tp578
Rp579
sa(dp580
S'action'
p581
S'delete'
p582
sS'order'
p583
F1523983958.448507
sS'objid'
p584
g8
(g12
S'\x95\x00\x00\x00\x00\x00\x00\x00'
p585
tp586
Rp587
sa(dp588
S'action'
p589
S'delete'
p590
sS'order'
p591
F1523983958.454289
sS'objid'
p592
g8
(g12
S'\x94\x00\x00\x00\x00\x00\x00\x00'
p593
tp594
Rp595
sa(dp596
S'action'
p597
S'delete'
p598
sS'order'
p599
F1523983958.459782
sS'objid'
p600
g8
(g12
S'\x93\x00\x00\x00\x00\x00\x00\x00'
p601
tp602
Rp603
sa(dp604
S'action'
p605
S'delete'
p606
sS'order'
p607
F1523983958.464976
sS'objid'
p608
g8
(g12
S'\x92\x00\x00\x00\x00\x00\x00\x00'
p609
tp610
Rp611
sa(dp612
S'action'
p613
S'delete'
p614
sS'order'
p615
F1523983958.470175
sS'objid'
p616
g8
(g12
S'\x91\x00\x00\x00\x00\x00\x00\x00'
p617
tp618
Rp619
sa(dp620
S'action'
p621
S'delete'
p622
sS'order'
p623
F1523983958.475443
sS'objid'
p624
g8
(g12
S'\x90\x00\x00\x00\x00\x00\x00\x00'
p625
tp626
Rp627
sa(dp628
S'action'
p629
S'delete'
p630
sS'order'
p631
F1523983958.480753
sS'objid'
p632
g8
(g12
S'\x8f\x00\x00\x00\x00\x00\x00\x00'
p633
tp634
Rp635
sa(dp636
S'action'
p637
S'delete'
p638
sS'order'
p639
F1523983958.486127
sS'objid'
p640
g8
(g12
S'\x8e\x00\x00\x00\x00\x00\x00\x00'
p641
tp642
Rp643
sa(dp644
S'action'
p645
S'delete'
p646
sS'order'
p647
F1523983958.491555
sS'objid'
p648
g8
(g12
S'\x8d\x00\x00\x00\x00\x00\x00\x00'
p649
tp650
Rp651
sa(dp652
S'action'
p653
S'delete'
p654
sS'order'
p655
F1523983958.497047
sS'objid'
p656
g8
(g12
S'\x8c\x00\x00\x00\x00\x00\x00\x00'
p657
tp658
Rp659
sa(dp660
S'action'
p661
S'delete'
p662
sS'order'
p663
F1523983958.502575
sS'objid'
p664
g8
(g12
S'\x8b\x00\x00\x00\x00\x00\x00\x00'
p665
tp666
Rp667
sa(dp668
S'action'
p669
S'delete'
p670
sS'order'
p671
F1523983958.508208
sS'objid'
p672
g8
(g12
S'\x8a\x00\x00\x00\x00\x00\x00\x00'
p673
tp674
Rp675
sa(dp676
S'action'
p677
S'delete'
p678
sS'order'
p679
F1523983958.513872
sS'objid'
p680
g8
(g12
S'\x89\x00\x00\x00\x00\x00\x00\x00'
p681
tp682
Rp683
sa(dp684
S'action'
p685
S'delete'
p686
sS'order'
p687
F1523983958.519588
sS'objid'
p688
g8
(g12
S'\x88\x00\x00\x00\x00\x00\x00\x00'
p689
tp690
Rp691
sa(dp692
S'action'
p693
S'delete'
p694
sS'order'
p695
F1523983958.525388
sS'objid'
p696
g8
(g12
S'\x87\x00\x00\x00\x00\x00\x00\x00'
p697
tp698
Rp699
sa(dp700
S'action'
p701
S'delete'
p702
sS'order'
p703
F1523983958.531219
sS'objid'
p704
g8
(g12
S'\x86\x00\x00\x00\x00\x00\x00\x00'
p705
tp706
Rp707
sa(dp708
S'action'
p709
S'delete'
p710
sS'order'
p711
F1523983958.53713
sS'objid'
p712
g8
(g12
S'\x85\x00\x00\x00\x00\x00\x00\x00'
p713
tp714
Rp715
sa(dp716
S'action'
p717
S'delete'
p718
sS'order'
p719
F1523983958.543076
sS'objid'
p720
g8
(g12
S'\x84\x00\x00\x00\x00\x00\x00\x00'
p721
tp722
Rp723
sa(dp724
S'action'
p725
S'delete'
p726
sS'order'
p727
F1523983958.549481
sS'objid'
p728
g8
(g12
S'\x83\x00\x00\x00\x00\x00\x00\x00'
p729
tp730
Rp731
sa(dp732
S'action'
p733
S'delete'
p734
sS'order'
p735
F1523983958.556449
sS'objid'
p736
g8
(g12
S'\x82\x00\x00\x00\x00\x00\x00\x00'
p737
tp738
Rp739
sa(dp740
S'action'
p741
S'delete'
p742
sS'order'
p743
F1523983958.562963
sS'objid'
p744
g8
(g12
S'\x81\x00\x00\x00\x00\x00\x00\x00'
p745
tp746
Rp747
sa(dp748
S'action'
p749
S'delete'
p750
sS'order'
p751
F1523983958.569212
sS'objid'
p752
g8
(g12
S'\x80\x00\x00\x00\x00\x00\x00\x00'
p753
tp754
Rp755
sa(dp756
S'action'
p757
S'delete'
p758
sS'order'
p759
F1523983958.575465
sS'objid'
p760
g8
(g12
S'\x7f\x00\x00\x00\x00\x00\x00\x00'
p761
tp762
Rp763
sa(dp764
S'action'
p765
S'delete'
p766
sS'order'
p767
F1523983958.581769
sS'objid'
p768
g8
(g12
S'~\x00\x00\x00\x00\x00\x00\x00'
p769
tp770
Rp771
sa(dp772
S'action'
p773
S'delete'
p774
sS'order'
p775
F1523983958.58812
sS'objid'
p776
g8
(g12
S'}\x00\x00\x00\x00\x00\x00\x00'
p777
tp778
Rp779
sa(dp780
S'action'
p781
S'delete'
p782
sS'order'
p783
F1523983958.594544
sS'objid'
p784
g8
(g12
S'|\x00\x00\x00\x00\x00\x00\x00'
p785
tp786
Rp787
sa(dp788
S'action'
p789
S'delete'
p790
sS'order'
p791
F1523983958.601029
sS'objid'
p792
g8
(g12
S'{\x00\x00\x00\x00\x00\x00\x00'
p793
tp794
Rp795
sa(dp796
S'action'
p797
S'delete'
p798
sS'order'
p799
F1523983958.607578
sS'objid'
p800
g8
(g12
S'z\x00\x00\x00\x00\x00\x00\x00'
p801
tp802
Rp803
sa(dp804
S'action'
p805
S'delete'
p806
sS'order'
p807
F1523983958.614172
sS'objid'
p808
g8
(g12
S'y\x00\x00\x00\x00\x00\x00\x00'
p809
tp810
Rp811
sa(dp812
S'action'
p813
S'delete'
p814
sS'order'
p815
F1523983958.620839
sS'objid'
p816
g8
(g12
S'x\x00\x00\x00\x00\x00\x00\x00'
p817
tp818
Rp819
sa(dp820
S'action'
p821
S'delete'
p822
sS'order'
p823
F1523983958.627581
sS'objid'
p824
g8
(g12
S'w\x00\x00\x00\x00\x00\x00\x00'
p825
tp826
Rp827
sa(dp828
S'action'
p829
S'delete'
p830
sS'order'
p831
F1523983958.634336
sS'objid'
p832
g8
(g12
S'u\x00\x00\x00\x00\x00\x00\x00'
p833
tp834
Rp835
sa(dp836
S'action'
p837
S'delete'
p838
sS'order'
p839
F1523983958.641174
sS'objid'
p840
g8
(g12
S't\x00\x00\x00\x00\x00\x00\x00'
p841
tp842
Rp843
sa(dp844
S'action'
p845
S'delete'
p846
sS'order'
p847
F1523983958.648075
sS'objid'
p848
g8
(g12
S's\x00\x00\x00\x00\x00\x00\x00'
p849
tp850
Rp851
sa(dp852
S'action'
p853
S'delete'
p854
sS'order'
p855
F1523983958.656203
sS'objid'
p856
g8
(g12
S'r\x00\x00\x00\x00\x00\x00\x00'
p857
tp858
Rp859
sa(dp860
S'action'
p861
S'delete'
p862
sS'order'
p863
F1523983958.663831
sS'objid'
p864
g8
(g12
S'q\x00\x00\x00\x00\x00\x00\x00'
p865
tp866
Rp867
sa(dp868
S'action'
p869
S'delete'
p870
sS'order'
p871
F1523983958.670928
sS'objid'
p872
g8
(g12
S'p\x00\x00\x00\x00\x00\x00\x00'
p873
tp874
Rp875
sa(dp876
S'action'
p877
S'delete'
p878
sS'order'
p879
F1523983958.678079
sS'objid'
p880
g8
(g12
S'o\x00\x00\x00\x00\x00\x00\x00'
p881
tp882
Rp883
sa(dp884
S'action'
p885
S'delete'
p886
sS'order'
p887
F1523983958.685298
sS'objid'
p888
g8
(g12
S'n\x00\x00\x00\x00\x00\x00\x00'
p889
tp890
Rp891
sa(dp892
S'action'
p893
S'delete'
p894
sS'order'
p895
F1523983958.692587
sS'objid'
p896
g8
(g12
S'm\x00\x00\x00\x00\x00\x00\x00'
p897
tp898
Rp899
sa(dp900
S'action'
p901
S'delete'
p902
sS'order'
p903
F1523983958.699909
sS'objid'
p904
g8
(g12
S'l\x00\x00\x00\x00\x00\x00\x00'
p905
tp906
Rp907
sa(dp908
S'action'
p909
S'delete'
p910
sS'order'
p911
F1523983958.707324
sS'objid'
p912
g8
(g12
S'k\x00\x00\x00\x00\x00\x00\x00'
p913
tp914
Rp915
sa(dp916
S'action'
p917
S'delete'
p918
sS'order'
p919
F1523983958.714742
sS'objid'
p920
g8
(g12
S'j\x00\x00\x00\x00\x00\x00\x00'
p921
tp922
Rp923
sa(dp924
S'action'
p925
S'delete'
p926
sS'order'
p927
F1523983958.722209
sS'objid'
p928
g8
(g12
S'i\x00\x00\x00\x00\x00\x00\x00'
p929
tp930
Rp931
sa(dp932
S'action'
p933
S'delete'
p934
sS'order'
p935
F1523983958.729795
sS'objid'
p936
g8
(g12
S'h\x00\x00\x00\x00\x00\x00\x00'
p937
tp938
Rp939
sa(dp940
S'action'
p941
S'delete'
p942
sS'order'
p943
F1523983958.737397
sS'objid'
p944
g8
(g12
S'g\x00\x00\x00\x00\x00\x00\x00'
p945
tp946
Rp947
sa(dp948
S'action'
p949
S'delete'
p950
sS'order'
p951
F1523983958.745064
sS'objid'
p952
g8
(g12
S'f\x00\x00\x00\x00\x00\x00\x00'
p953
tp954
Rp955
sa(dp956
S'action'
p957
S'delete'
p958
sS'order'
p959
F1523983958.754468
sS'objid'
p960
g8
(g12
S'e\x00\x00\x00\x00\x00\x00\x00'
p961
tp962
Rp963
sa(dp964
S'action'
p965
S'delete'
p966
sS'order'
p967
F1523983969.573363
sS'objid'
p968
g8
(g12
S'\xd3\x00\x00\x00\x00\x00\x00\x00'
p969
tp970
Rp971
sa(dp972
S'action'
p973
S'delete'
p974
sS'order'
p975
F1523983969.585356
sS'objid'
p976
g8
(g12
S'd\x00\x00\x00\x00\x00\x00\x00'
p977
tp978
Rp979
sa(dp980
S'action'
p981
S'delete'
p982
sS'order'
p983
F1523983969.59338
sS'objid'
p984
g8
(g12
S'c\x00\x00\x00\x00\x00\x00\x00'
p985
tp986
Rp987
sa(dp988
S'action'
p989
S'delete'
p990
sS'order'
p991
F1523983969.601428
sS'objid'
p992
g8
(g12
S'b\x00\x00\x00\x00\x00\x00\x00'
p993
tp994
Rp995
sa(dp996
S'action'
p997
S'delete'
p998
sS'order'
p999
F1523983969.609557
sS'objid'
p1000
g8
(g12
S'`\x00\x00\x00\x00\x00\x00\x00'
p1001
tp1002
Rp1003
sa(dp1004
S'action'
p1005
S'delete'
p1006
sS'order'
p1007
F1523983969.617715
sS'objid'
p1008
g8
(g12
S'_\x00\x00\x00\x00\x00\x00\x00'
p1009
tp1010
Rp1011
sa(dp1012
S'action'
p1013
S'delete'
p1014
sS'order'
p1015
F1523983969.625919
sS'objid'
p1016
g8
(g12
S'^\x00\x00\x00\x00\x00\x00\x00'
p1017
tp1018
Rp1019
sa(dp1020
S'action'
p1021
S'delete'
p1022
sS'order'
p1023
F1523983969.634195
sS'objid'
p1024
g8
(g12
S']\x00\x00\x00\x00\x00\x00\x00'
p1025
tp1026
Rp1027
sa(dp1028
S'action'
p1029
S'delete'
p1030
sS'order'
p1031
F1523983969.642824
sS'objid'
p1032
g8
(g12
S'\\\x00\x00\x00\x00\x00\x00\x00'
p1033
tp1034
Rp1035
sa(dp1036
S'action'
p1037
S'delete'
p1038
sS'order'
p1039
F1523983969.651134
sS'objid'
p1040
g8
(g12
S'[\x00\x00\x00\x00\x00\x00\x00'
p1041
tp1042
Rp1043
sa(dp1044
S'action'
p1045
S'delete'
p1046
sS'order'
p1047
F1523983969.659496
sS'objid'
p1048
g8
(g12
S'Z\x00\x00\x00\x00\x00\x00\x00'
p1049
tp1050
Rp1051
sa(dp1052
S'action'
p1053
S'delete'
p1054
sS'order'
p1055
F1523983969.667904
sS'objid'
p1056
g8
(g12
S'Y\x00\x00\x00\x00\x00\x00\x00'
p1057
tp1058
Rp1059
sa(dp1060
S'action'
p1061
S'delete'
p1062
sS'order'
p1063
F1523983969.676398
sS'objid'
p1064
g8
(g12
S'X\x00\x00\x00\x00\x00\x00\x00'
p1065
tp1066
Rp1067
sa(dp1068
S'action'
p1069
S'delete'
p1070
sS'order'
p1071
F1523983969.684914
sS'objid'
p1072
g8
(g12
S'W\x00\x00\x00\x00\x00\x00\x00'
p1073
tp1074
Rp1075
sa(dp1076
S'action'
p1077
S'delete'
p1078
sS'order'
p1079
F1523983969.69353
sS'objid'
p1080
g8
(g12
S'V\x00\x00\x00\x00\x00\x00\x00'
p1081
tp1082
Rp1083
sa(dp1084
S'action'
p1085
S'delete'
p1086
sS'order'
p1087
F1523983969.702235
sS'objid'
p1088
g8
(g12
S'U\x00\x00\x00\x00\x00\x00\x00'
p1089
tp1090
Rp1091
sa(dp1092
S'action'
p1093
S'delete'
p1094
sS'order'
p1095
F1523983969.710927
sS'objid'
p1096
g8
(g12
S'T\x00\x00\x00\x00\x00\x00\x00'
p1097
tp1098
Rp1099
sa(dp1100
S'action'
p1101
S'delete'
p1102
sS'order'
p1103
F1523983969.719674
sS'objid'
p1104
g8
(g12
S'S\x00\x00\x00\x00\x00\x00\x00'
p1105
tp1106
Rp1107
sa(dp1108
S'action'
p1109
S'delete'
p1110
sS'order'
p1111
F1523983969.728594
sS'objid'
p1112
g8
(g12
S'R\x00\x00\x00\x00\x00\x00\x00'
p1113
tp1114
Rp1115
sa(dp1116
S'action'
p1117
S'delete'
p1118
sS'order'
p1119
F1523983969.737575
sS'objid'
p1120
g8
(g12
S'Q\x00\x00\x00\x00\x00\x00\x00'
p1121
tp1122
Rp1123
sa(dp1124
S'action'
p1125
S'delete'
p1126
sS'order'
p1127
F1523983969.746632
sS'objid'
p1128
g8
(g12
S'P\x00\x00\x00\x00\x00\x00\x00'
p1129
tp1130
Rp1131
sa(dp1132
S'action'
p1133
S'delete'
p1134
sS'order'
p1135
F1523983969.755685
sS'objid'
p1136
g8
(g12
S'O\x00\x00\x00\x00\x00\x00\x00'
p1137
tp1138
Rp1139
sa(dp1140
S'action'
p1141
S'delete'
p1142
sS'order'
p1143
F1523983969.764789
sS'objid'
p1144
g8
(g12
S'N\x00\x00\x00\x00\x00\x00\x00'
p1145
tp1146
Rp1147
sa(dp1148
S'action'
p1149
S'delete'
p1150
sS'order'
p1151
F1523983969.773894
sS'objid'
p1152
g8
(g12
S'M\x00\x00\x00\x00\x00\x00\x00'
p1153
tp1154
Rp1155
sa(dp1156
S'action'
p1157
S'delete'
p1158
sS'order'
p1159
F1523983969.78308
sS'objid'
p1160
g8
(g12
S'L\x00\x00\x00\x00\x00\x00\x00'
p1161
tp1162
Rp1163
sa(dp1164
S'action'
p1165
S'delete'
p1166
sS'order'
p1167
F1523983969.792356
sS'objid'
p1168
g8
(g12
S'K\x00\x00\x00\x00\x00\x00\x00'
p1169
tp1170
Rp1171
sa(dp1172
S'action'
p1173
S'delete'
p1174
sS'order'
p1175
F1523983969.801632
sS'objid'
p1176
g8
(g12
S'J\x00\x00\x00\x00\x00\x00\x00'
p1177
tp1178
Rp1179
sa(dp1180
S'action'
p1181
S'delete'
p1182
sS'order'
p1183
F1523983969.810978
sS'objid'
p1184
g8
(g12
S'I\x00\x00\x00\x00\x00\x00\x00'
p1185
tp1186
Rp1187
sa(dp1188
S'action'
p1189
S'delete'
p1190
sS'order'
p1191
F1523983969.820384
sS'objid'
p1192
g8
(g12
S'G\x00\x00\x00\x00\x00\x00\x00'
p1193
tp1194
Rp1195
sa(dp1196
S'action'
p1197
S'delete'
p1198
sS'order'
p1199
F1523983969.829927
sS'objid'
p1200
g8
(g12
S'D\x00\x00\x00\x00\x00\x00\x00'
p1201
tp1202
Rp1203
sa(dp1204
S'action'
p1205
S'delete'
p1206
sS'order'
p1207
F1523983969.839592
sS'objid'
p1208
g8
(g12
S'C\x00\x00\x00\x00\x00\x00\x00'
p1209
tp1210
Rp1211
sa(dp1212
S'action'
p1213
S'delete'
p1214
sS'order'
p1215
F1523983969.849241
sS'objid'
p1216
g8
(g12
S'B\x00\x00\x00\x00\x00\x00\x00'
p1217
tp1218
Rp1219
sa(dp1220
S'action'
p1221
S'delete'
p1222
sS'order'
p1223
F1523983969.858907
sS'objid'
p1224
g8
(g12
S'A\x00\x00\x00\x00\x00\x00\x00'
p1225
tp1226
Rp1227
sa(dp1228
S'action'
p1229
S'delete'
p1230
sS'order'
p1231
F1523983969.868692
sS'objid'
p1232
g8
(g12
S'?\x00\x00\x00\x00\x00\x00\x00'
p1233
tp1234
Rp1235
sa(dp1236
S'action'
p1237
S'delete'
p1238
sS'order'
p1239
F1523983969.87843
sS'objid'
p1240
g8
(g12
S'>\x00\x00\x00\x00\x00\x00\x00'
p1241
tp1242
Rp1243
sa(dp1244
S'action'
p1245
S'delete'
p1246
sS'order'
p1247
F1523983969.888233
sS'objid'
p1248
g8
(g12
S'=\x00\x00\x00\x00\x00\x00\x00'
p1249
tp1250
Rp1251
sa(dp1252
S'action'
p1253
S'delete'
p1254
sS'order'
p1255
F1523983969.898129
sS'objid'
p1256
g8
(g12
S'<\x00\x00\x00\x00\x00\x00\x00'
p1257
tp1258
Rp1259
sa(dp1260
S'action'
p1261
S'delete'
p1262
sS'order'
p1263
F1523983969.908073
sS'objid'
p1264
g8
(g12
S';\x00\x00\x00\x00\x00\x00\x00'
p1265
tp1266
Rp1267
sa(dp1268
S'action'
p1269
S'delete'
p1270
sS'order'
p1271
F1523983969.91803
sS'objid'
p1272
g8
(g12
S':\x00\x00\x00\x00\x00\x00\x00'
p1273
tp1274
Rp1275
sa(dp1276
S'action'
p1277
S'delete'
p1278
sS'order'
p1279
F1523983978.02116
sS'objid'
p1280
g8
(g12
S'9\x00\x00\x00\x00\x00\x00\x00'
p1281
tp1282
Rp1283
sa(dp1284
S'action'
p1285
S'delete'
p1286
sS'order'
p1287
F1523983978.034717
sS'objid'
p1288
g8
(g12
S'8\x00\x00\x00\x00\x00\x00\x00'
p1289
tp1290
Rp1291
sa(dp1292
S'action'
p1293
S'delete'
p1294
sS'order'
p1295
F1523983978.044921
sS'objid'
p1296
g8
(g12
S'7\x00\x00\x00\x00\x00\x00\x00'
p1297
tp1298
Rp1299
sa(dp1300
S'action'
p1301
S'delete'
p1302
sS'order'
p1303
F1523983978.055233
sS'objid'
p1304
g8
(g12
S'6\x00\x00\x00\x00\x00\x00\x00'
p1305
tp1306
Rp1307
sa(dp1308
S'action'
p1309
S'delete'
p1310
sS'order'
p1311
F1523983978.065657
sS'objid'
p1312
g8
(g12
S'5\x00\x00\x00\x00\x00\x00\x00'
p1313
tp1314
Rp1315
sa(dp1316
S'action'
p1317
S'delete'
p1318
sS'order'
p1319
F1523983978.083174
sS'objid'
p1320
g8
(g12
S'4\x00\x00\x00\x00\x00\x00\x00'
p1321
tp1322
Rp1323
sa(dp1324
S'action'
p1325
S'delete'
p1326
sS'order'
p1327
F1523983978.096376
sS'objid'
p1328
g8
(g12
S'3\x00\x00\x00\x00\x00\x00\x00'
p1329
tp1330
Rp1331
sa(dp1332
S'action'
p1333
S'delete'
p1334
sS'order'
p1335
F1523983978.106823
sS'objid'
p1336
g8
(g12
S'2\x00\x00\x00\x00\x00\x00\x00'
p1337
tp1338
Rp1339
sa(dp1340
S'action'
p1341
S'delete'
p1342
sS'order'
p1343
F1523983978.117319
sS'objid'
p1344
g8
(g12
S'1\x00\x00\x00\x00\x00\x00\x00'
p1345
tp1346
Rp1347
sa(dp1348
S'action'
p1349
S'delete'
p1350
sS'order'
p1351
F1523983978.127896
sS'objid'
p1352
g8
(g12
S'0\x00\x00\x00\x00\x00\x00\x00'
p1353
tp1354
Rp1355
sa(dp1356
S'action'
p1357
S'delete'
p1358
sS'order'
p1359
F1523983978.13853
sS'objid'
p1360
g8
(g12
S'/\x00\x00\x00\x00\x00\x00\x00'
p1361
tp1362
Rp1363
sa(dp1364
S'action'
p1365
S'delete'
p1366
sS'order'
p1367
F1523983978.149242
sS'objid'
p1368
g8
(g12
S'.\x00\x00\x00\x00\x00\x00\x00'
p1369
tp1370
Rp1371
sa(dp1372
S'action'
p1373
S'delete'
p1374
sS'order'
p1375
F1523983978.160052
sS'objid'
p1376
g8
(g12
S'-\x00\x00\x00\x00\x00\x00\x00'
p1377
tp1378
Rp1379
sa(dp1380
S'action'
p1381
S'delete'
p1382
sS'order'
p1383
F1523983978.171078
sS'objid'
p1384
g8
(g12
S',\x00\x00\x00\x00\x00\x00\x00'
p1385
tp1386
Rp1387
sa(dp1388
S'action'
p1389
S'delete'
p1390
sS'order'
p1391
F1523983978.18214
sS'objid'
p1392
g8
(g12
S'+\x00\x00\x00\x00\x00\x00\x00'
p1393
tp1394
Rp1395
sa(dp1396
S'action'
p1397
S'delete'
p1398
sS'order'
p1399
F1523983978.193141
sS'objid'
p1400
g8
(g12
S'*\x00\x00\x00\x00\x00\x00\x00'
p1401
tp1402
Rp1403
sa(dp1404
S'action'
p1405
S'delete'
p1406
sS'order'
p1407
F1523983978.204288
sS'objid'
p1408
g8
(g12
S')\x00\x00\x00\x00\x00\x00\x00'
p1409
tp1410
Rp1411
sa(dp1412
S'action'
p1413
S'delete'
p1414
sS'order'
p1415
F1523983978.215418
sS'objid'
p1416
g8
(g12
S'(\x00\x00\x00\x00\x00\x00\x00'
p1417
tp1418
Rp1419
sa(dp1420
S'action'
p1421
S'delete'
p1422
sS'order'
p1423
F1523983978.226573
sS'objid'
p1424
g8
(g12
S"'\x00\x00\x00\x00\x00\x00\x00"
p1425
tp1426
Rp1427
sa(dp1428
S'action'
p1429
S'delete'
p1430
sS'order'
p1431
F1523983978.237864
sS'objid'
p1432
g8
(g12
S'&\x00\x00\x00\x00\x00\x00\x00'
p1433
tp1434
Rp1435
sa(dp1436
S'action'
p1437
S'delete'
p1438
sS'order'
p1439
F1523983978.249154
sS'objid'
p1440
g8
(g12
S'%\x00\x00\x00\x00\x00\x00\x00'
p1441
tp1442
Rp1443
sa(dp1444
S'action'
p1445
S'delete'
p1446
sS'order'
p1447
F1523983978.260508
sS'objid'
p1448
g8
(g12
S'$\x00\x00\x00\x00\x00\x00\x00'
p1449
tp1450
Rp1451
sa(dp1452
S'action'
p1453
S'delete'
p1454
sS'order'
p1455
F1523983978.272004
sS'objid'
p1456
g8
(g12
S'#\x00\x00\x00\x00\x00\x00\x00'
p1457
tp1458
Rp1459
sa(dp1460
S'action'
p1461
S'delete'
p1462
sS'order'
p1463
F1523983978.283555
sS'objid'
p1464
g8
(g12
S'"\x00\x00\x00\x00\x00\x00\x00'
p1465
tp1466
Rp1467
sa(dp1468
S'action'
p1469
S'delete'
p1470
sS'order'
p1471
F1523983978.295107
sS'objid'
p1472
g8
(g12
S'!\x00\x00\x00\x00\x00\x00\x00'
p1473
tp1474
Rp1475
sa(dp1476
S'action'
p1477
S'delete'
p1478
sS'order'
p1479
F1523983978.306716
sS'objid'
p1480
g8
(g12
S' \x00\x00\x00\x00\x00\x00\x00'
p1481
tp1482
Rp1483
sa(dp1484
S'action'
p1485
S'delete'
p1486
sS'order'
p1487
F1523983978.318398
sS'objid'
p1488
g8
(g12
S'\x1f\x00\x00\x00\x00\x00\x00\x00'
p1489
tp1490
Rp1491
sa(dp1492
S'action'
p1493
S'delete'
p1494
sS'order'
p1495
F1523983978.330094
sS'objid'
p1496
g8
(g12
S'\x1e\x00\x00\x00\x00\x00\x00\x00'
p1497
tp1498
Rp1499
sa(dp1500
S'action'
p1501
S'delete'
p1502
sS'order'
p1503
F1523983978.341863
sS'objid'
p1504
g8
(g12
S'\x1d\x00\x00\x00\x00\x00\x00\x00'
p1505
tp1506
Rp1507
sa(dp1508
S'action'
p1509
S'delete'
p1510
sS'order'
p1511
F1523983978.353707
sS'objid'
p1512
g8
(g12
S'\x1c\x00\x00\x00\x00\x00\x00\x00'
p1513
tp1514
Rp1515
sa(dp1516
S'action'
p1517
S'delete'
p1518
sS'order'
p1519
F1523983978.365598
sS'objid'
p1520
g8
(g12
S'\x1b\x00\x00\x00\x00\x00\x00\x00'
p1521
tp1522
Rp1523
sa(dp1524
S'action'
p1525
S'delete'
p1526
sS'order'
p1527
F1523983978.377643
sS'objid'
p1528
g8
(g12
S'\x1a\x00\x00\x00\x00\x00\x00\x00'
p1529
tp1530
Rp1531
sa(dp1532
S'action'
p1533
S'delete'
p1534
sS'order'
p1535
F1523983978.389716
sS'objid'
p1536
g8
(g12
S'\x19\x00\x00\x00\x00\x00\x00\x00'
p1537
tp1538
Rp1539
sa(dp1540
S'action'
p1541
S'delete'
p1542
sS'order'
p1543
F1523983978.401826
sS'objid'
p1544
g8
(g12
S'\x18\x00\x00\x00\x00\x00\x00\x00'
p1545
tp1546
Rp1547
sa(dp1548
S'action'
p1549
S'delete'
p1550
sS'order'
p1551
F1523983978.413932
sS'objid'
p1552
g8
(g12
S'\x17\x00\x00\x00\x00\x00\x00\x00'
p1553
tp1554
Rp1555
sa(dp1556
S'action'
p1557
S'delete'
p1558
sS'order'
p1559
F1523983978.426125
sS'objid'
p1560
g8
(g12
S'\x16\x00\x00\x00\x00\x00\x00\x00'
p1561
tp1562
Rp1563
sa(dp1564
S'action'
p1565
S'delete'
p1566
sS'order'
p1567
F1523983978.438383
sS'objid'
p1568
g8
(g12
S'\x15\x00\x00\x00\x00\x00\x00\x00'
p1569
tp1570
Rp1571
sa(dp1572
S'action'
p1573
S'delete'
p1574
sS'order'
p1575
F1523983978.450668
sS'objid'
p1576
g8
(g12
S'\x14\x00\x00\x00\x00\x00\x00\x00'
p1577
tp1578
Rp1579
sa(dp1580
S'action'
p1581
S'delete'
p1582
sS'order'
p1583
F1523983978.463029
sS'objid'
p1584
g8
(g12
S'\x13\x00\x00\x00\x00\x00\x00\x00'
p1585
tp1586
Rp1587
sa(dp1588
S'action'
p1589
S'delete'
p1590
sS'order'
p1591
F1523983978.475533
sS'objid'
p1592
g8
(g12
S'\x12\x00\x00\x00\x00\x00\x00\x00'
p1593
tp1594
Rp1595
sa(dp1596
S'action'
p1597
S'delete'
p1598
sS'order'
p1599
F1523983978.488189
sS'objid'
p1600
g8
(g12
S'\x11\x00\x00\x00\x00\x00\x00\x00'
p1601
tp1602
Rp1603
sa(dp1604
S'action'
p1605
S'delete'
p1606
sS'order'
p1607
F1523983978.500773
sS'objid'
p1608
g8
(g12
S'\x10\x00\x00\x00\x00\x00\x00\x00'
p1609
tp1610
Rp1611
sa(dp1612
S'action'
p1613
S'delete'
p1614
sS'order'
p1615
F1523983978.513395
sS'objid'
p1616
g8
(g12
S'\x0f\x00\x00\x00\x00\x00\x00\x00'
p1617
tp1618
Rp1619
sa(dp1620
S'action'
p1621
S'delete'
p1622
sS'order'
p1623
F1523983978.526016
sS'objid'
p1624
g8
(g12
S'\x0e\x00\x00\x00\x00\x00\x00\x00'
p1625
tp1626
Rp1627
sa(dp1628
S'action'
p1629
S'delete'
p1630
sS'order'
p1631
F1523983978.538687
sS'objid'
p1632
g8
(g12
S'\r\x00\x00\x00\x00\x00\x00\x00'
p1633
tp1634
Rp1635
sa(dp1636
S'action'
p1637
S'delete'
p1638
sS'order'
p1639
F1523983978.551488
sS'objid'
p1640
g8
(g12
S'\x0c\x00\x00\x00\x00\x00\x00\x00'
p1641
tp1642
Rp1643
sa(dp1644
S'action'
p1645
S'delete'
p1646
sS'order'
p1647
F1523983978.564244
sS'objid'
p1648
g8
(g12
S'\x0b\x00\x00\x00\x00\x00\x00\x00'
p1649
tp1650
Rp1651
sa(dp1652
S'action'
p1653
S'delete'
p1654
sS'order'
p1655
F1523983978.577208
sS'objid'
p1656
g8
(g12
S'\n\x00\x00\x00\x00\x00\x00\x00'
p1657
tp1658
Rp1659
sa(dp1660
S'action'
p1661
S'delete'
p1662
sS'order'
p1663
F1523983978.590281
sS'objid'
p1664
g8
(g12
S'\t\x00\x00\x00\x00\x00\x00\x00'
p1665
tp1666
Rp1667
sa(dp1668
S'action'
p1669
S'delete'
p1670
sS'order'
p1671
F1523983978.603303
sS'objid'
p1672
g8
(g12
S'\x08\x00\x00\x00\x00\x00\x00\x00'
p1673
tp1674
Rp1675
sa(dp1676
S'action'
p1677
S'delete'
p1678
sS'order'
p1679
F1523983978.616337
sS'objid'
p1680
g8
(g12
S'\x07\x00\x00\x00\x00\x00\x00\x00'
p1681
tp1682
Rp1683
sa(dp1684
S'action'
p1685
S'delete'
p1686
sS'order'
p1687
F1523983978.629443
sS'objid'
p1688
g8
(g12
S'\x06\x00\x00\x00\x00\x00\x00\x00'
p1689
tp1690
Rp1691
sa(dp1692
S'action'
p1693
S'delete'
p1694
sS'order'
p1695
F1523983978.642555
sS'objid'
p1696
g8
(g12
S'\x05\x00\x00\x00\x00\x00\x00\x00'
p1697
tp1698
Rp1699
sa(dp1700
S'action'
p1701
S'delete'
p1702
sS'order'
p1703
F1523983978.65581
sS'objid'
p1704
g8
(g12
S'\x04\x00\x00\x00\x00\x00\x00\x00'
p1705
tp1706
Rp1707
sa(dp1708
S'action'
p1709
S'delete'
p1710
sS'order'
p1711
F1523983978.669109
sS'objid'
p1712
g8
(g12
S'\x02\x00\x00\x00\x00\x00\x00\x00'
p1713
tp1714
Rp1715
sa.